ARM GAS  C:\Users\Dell\AppData\Local\Temp\ccSPIrXH.s 			page 1


   1              		.syntax unified
   2              		.cpu cortex-m3
   3              		.fpu softvfp
   4              		.eabi_attribute 20, 1
   5              		.eabi_attribute 21, 1
   6              		.eabi_attribute 23, 3
   7              		.eabi_attribute 24, 1
   8              		.eabi_attribute 25, 1
   9              		.eabi_attribute 26, 1
  10              		.eabi_attribute 30, 1
  11              		.eabi_attribute 34, 1
  12              		.eabi_attribute 18, 4
  13              		.thumb
  14              		.syntax unified
  15              		.file	"cyfitter_cfg.c"
  16              		.text
  17              	.Ltext0:
  18              		.cfi_sections	.debug_frame
  19              		.section	.text.CyClockStartupError,"ax",%progbits
  20              		.align	2
  21              		.thumb
  22              		.thumb_func
  23              		.type	CyClockStartupError, %function
  24              	CyClockStartupError:
  25              	.LFB3:
  26              		.file 1 "Generated_Source\\PSoC5\\cyfitter_cfg.c"
   1:Generated_Source\PSoC5/cyfitter_cfg.c **** 
   2:Generated_Source\PSoC5/cyfitter_cfg.c **** /*******************************************************************************
   3:Generated_Source\PSoC5/cyfitter_cfg.c **** * File Name: cyfitter_cfg.c
   4:Generated_Source\PSoC5/cyfitter_cfg.c **** * 
   5:Generated_Source\PSoC5/cyfitter_cfg.c **** * PSoC Creator  4.4
   6:Generated_Source\PSoC5/cyfitter_cfg.c **** *
   7:Generated_Source\PSoC5/cyfitter_cfg.c **** * Description:
   8:Generated_Source\PSoC5/cyfitter_cfg.c **** * This file contains device initialization code.
   9:Generated_Source\PSoC5/cyfitter_cfg.c **** * Except for the user defined sections in CyClockStartupError(), this file should not be modified.
  10:Generated_Source\PSoC5/cyfitter_cfg.c **** * This file is automatically generated by PSoC Creator.
  11:Generated_Source\PSoC5/cyfitter_cfg.c **** *
  12:Generated_Source\PSoC5/cyfitter_cfg.c **** ********************************************************************************
  13:Generated_Source\PSoC5/cyfitter_cfg.c **** * Copyright (c) 2007-2020 Cypress Semiconductor.  All rights reserved.
  14:Generated_Source\PSoC5/cyfitter_cfg.c **** * You may use this file only in accordance with the license, terms, conditions, 
  15:Generated_Source\PSoC5/cyfitter_cfg.c **** * disclaimers, and limitations in the end user license agreement accompanying 
  16:Generated_Source\PSoC5/cyfitter_cfg.c **** * the software package with which this file was provided.
  17:Generated_Source\PSoC5/cyfitter_cfg.c **** ********************************************************************************/
  18:Generated_Source\PSoC5/cyfitter_cfg.c **** 
  19:Generated_Source\PSoC5/cyfitter_cfg.c **** #include <string.h>
  20:Generated_Source\PSoC5/cyfitter_cfg.c **** #include "cytypes.h"
  21:Generated_Source\PSoC5/cyfitter_cfg.c **** #include "cydevice_trm.h"
  22:Generated_Source\PSoC5/cyfitter_cfg.c **** #include "cyfitter.h"
  23:Generated_Source\PSoC5/cyfitter_cfg.c **** #include "CyLib.h"
  24:Generated_Source\PSoC5/cyfitter_cfg.c **** #include "cyfitter_cfg.h"
  25:Generated_Source\PSoC5/cyfitter_cfg.c **** #include "cyapicallbacks.h"
  26:Generated_Source\PSoC5/cyfitter_cfg.c **** 
  27:Generated_Source\PSoC5/cyfitter_cfg.c **** #define CY_NEED_CYCLOCKSTARTUPERROR 1
  28:Generated_Source\PSoC5/cyfitter_cfg.c **** 
  29:Generated_Source\PSoC5/cyfitter_cfg.c **** 
  30:Generated_Source\PSoC5/cyfitter_cfg.c **** #if defined(__GNUC__) || defined(__ARMCC_VERSION)
  31:Generated_Source\PSoC5/cyfitter_cfg.c ****     #define CYPACKED 
ARM GAS  C:\Users\Dell\AppData\Local\Temp\ccSPIrXH.s 			page 2


  32:Generated_Source\PSoC5/cyfitter_cfg.c ****     #define CYPACKED_ATTR __attribute__ ((packed))
  33:Generated_Source\PSoC5/cyfitter_cfg.c ****     #define CYALIGNED __attribute__ ((aligned))
  34:Generated_Source\PSoC5/cyfitter_cfg.c ****     #define CY_CFG_UNUSED __attribute__ ((unused))
  35:Generated_Source\PSoC5/cyfitter_cfg.c ****     #ifndef CY_CFG_SECTION
  36:Generated_Source\PSoC5/cyfitter_cfg.c ****         #define CY_CFG_SECTION __attribute__ ((section(".psocinit")))
  37:Generated_Source\PSoC5/cyfitter_cfg.c ****     #endif
  38:Generated_Source\PSoC5/cyfitter_cfg.c ****     
  39:Generated_Source\PSoC5/cyfitter_cfg.c ****     #if defined(__ARMCC_VERSION)
  40:Generated_Source\PSoC5/cyfitter_cfg.c ****         #define CY_CFG_MEMORY_BARRIER() __memory_changed()
  41:Generated_Source\PSoC5/cyfitter_cfg.c ****     #else
  42:Generated_Source\PSoC5/cyfitter_cfg.c ****         #define CY_CFG_MEMORY_BARRIER() __sync_synchronize()
  43:Generated_Source\PSoC5/cyfitter_cfg.c ****     #endif
  44:Generated_Source\PSoC5/cyfitter_cfg.c ****     
  45:Generated_Source\PSoC5/cyfitter_cfg.c **** #elif defined(__ICCARM__)
  46:Generated_Source\PSoC5/cyfitter_cfg.c ****     #include <intrinsics.h>
  47:Generated_Source\PSoC5/cyfitter_cfg.c **** 
  48:Generated_Source\PSoC5/cyfitter_cfg.c ****     #define CYPACKED __packed
  49:Generated_Source\PSoC5/cyfitter_cfg.c ****     #define CYPACKED_ATTR 
  50:Generated_Source\PSoC5/cyfitter_cfg.c ****     #define CYALIGNED _Pragma("data_alignment=4")
  51:Generated_Source\PSoC5/cyfitter_cfg.c ****     #define CY_CFG_UNUSED _Pragma("diag_suppress=Pe177")
  52:Generated_Source\PSoC5/cyfitter_cfg.c ****     #define CY_CFG_SECTION _Pragma("location=\".psocinit\"")
  53:Generated_Source\PSoC5/cyfitter_cfg.c ****     
  54:Generated_Source\PSoC5/cyfitter_cfg.c ****     #define CY_CFG_MEMORY_BARRIER() __DMB()
  55:Generated_Source\PSoC5/cyfitter_cfg.c ****     
  56:Generated_Source\PSoC5/cyfitter_cfg.c **** #else
  57:Generated_Source\PSoC5/cyfitter_cfg.c ****     #error Unsupported toolchain
  58:Generated_Source\PSoC5/cyfitter_cfg.c **** #endif
  59:Generated_Source\PSoC5/cyfitter_cfg.c **** 
  60:Generated_Source\PSoC5/cyfitter_cfg.c **** #ifndef CYCODE
  61:Generated_Source\PSoC5/cyfitter_cfg.c ****     #define CYCODE
  62:Generated_Source\PSoC5/cyfitter_cfg.c **** #endif
  63:Generated_Source\PSoC5/cyfitter_cfg.c **** #ifndef CYDATA
  64:Generated_Source\PSoC5/cyfitter_cfg.c ****     #define CYDATA
  65:Generated_Source\PSoC5/cyfitter_cfg.c **** #endif
  66:Generated_Source\PSoC5/cyfitter_cfg.c **** #ifndef CYFAR
  67:Generated_Source\PSoC5/cyfitter_cfg.c ****     #define CYFAR
  68:Generated_Source\PSoC5/cyfitter_cfg.c **** #endif
  69:Generated_Source\PSoC5/cyfitter_cfg.c **** #ifndef CYXDATA
  70:Generated_Source\PSoC5/cyfitter_cfg.c ****     #define CYXDATA
  71:Generated_Source\PSoC5/cyfitter_cfg.c **** #endif
  72:Generated_Source\PSoC5/cyfitter_cfg.c **** 
  73:Generated_Source\PSoC5/cyfitter_cfg.c **** 
  74:Generated_Source\PSoC5/cyfitter_cfg.c **** CY_CFG_UNUSED
  75:Generated_Source\PSoC5/cyfitter_cfg.c **** static void CYMEMZERO(void *s, size_t n);
  76:Generated_Source\PSoC5/cyfitter_cfg.c **** CY_CFG_UNUSED
  77:Generated_Source\PSoC5/cyfitter_cfg.c **** static void CYMEMZERO(void *s, size_t n)
  78:Generated_Source\PSoC5/cyfitter_cfg.c **** {
  79:Generated_Source\PSoC5/cyfitter_cfg.c **** 	(void)memset(s, 0, n);
  80:Generated_Source\PSoC5/cyfitter_cfg.c **** }
  81:Generated_Source\PSoC5/cyfitter_cfg.c **** CY_CFG_UNUSED
  82:Generated_Source\PSoC5/cyfitter_cfg.c **** static void CYCONFIGCPY(void *dest, const void *src, size_t n);
  83:Generated_Source\PSoC5/cyfitter_cfg.c **** CY_CFG_UNUSED
  84:Generated_Source\PSoC5/cyfitter_cfg.c **** static void CYCONFIGCPY(void *dest, const void *src, size_t n)
  85:Generated_Source\PSoC5/cyfitter_cfg.c **** {
  86:Generated_Source\PSoC5/cyfitter_cfg.c **** 	(void)memcpy(dest, src, n);
  87:Generated_Source\PSoC5/cyfitter_cfg.c **** }
  88:Generated_Source\PSoC5/cyfitter_cfg.c **** CY_CFG_UNUSED
ARM GAS  C:\Users\Dell\AppData\Local\Temp\ccSPIrXH.s 			page 3


  89:Generated_Source\PSoC5/cyfitter_cfg.c **** static void CYCONFIGCPYCODE(void *dest, const void *src, size_t n);
  90:Generated_Source\PSoC5/cyfitter_cfg.c **** CY_CFG_UNUSED
  91:Generated_Source\PSoC5/cyfitter_cfg.c **** static void CYCONFIGCPYCODE(void *dest, const void *src, size_t n)
  92:Generated_Source\PSoC5/cyfitter_cfg.c **** {
  93:Generated_Source\PSoC5/cyfitter_cfg.c **** 	(void)memcpy(dest, src, n);
  94:Generated_Source\PSoC5/cyfitter_cfg.c **** }
  95:Generated_Source\PSoC5/cyfitter_cfg.c **** 
  96:Generated_Source\PSoC5/cyfitter_cfg.c **** 
  97:Generated_Source\PSoC5/cyfitter_cfg.c **** 
  98:Generated_Source\PSoC5/cyfitter_cfg.c **** 
  99:Generated_Source\PSoC5/cyfitter_cfg.c **** /* Clock startup error codes                                                   */
 100:Generated_Source\PSoC5/cyfitter_cfg.c **** #define CYCLOCKSTART_NO_ERROR    0u
 101:Generated_Source\PSoC5/cyfitter_cfg.c **** #define CYCLOCKSTART_XTAL_ERROR  1u
 102:Generated_Source\PSoC5/cyfitter_cfg.c **** #define CYCLOCKSTART_32KHZ_ERROR 2u
 103:Generated_Source\PSoC5/cyfitter_cfg.c **** #define CYCLOCKSTART_PLL_ERROR   3u
 104:Generated_Source\PSoC5/cyfitter_cfg.c **** #define CYCLOCKSTART_FLL_ERROR   4u
 105:Generated_Source\PSoC5/cyfitter_cfg.c **** #define CYCLOCKSTART_WCO_ERROR   5u
 106:Generated_Source\PSoC5/cyfitter_cfg.c **** 
 107:Generated_Source\PSoC5/cyfitter_cfg.c **** 
 108:Generated_Source\PSoC5/cyfitter_cfg.c **** #ifdef CY_NEED_CYCLOCKSTARTUPERROR
 109:Generated_Source\PSoC5/cyfitter_cfg.c **** /*******************************************************************************
 110:Generated_Source\PSoC5/cyfitter_cfg.c **** * Function Name: CyClockStartupError
 111:Generated_Source\PSoC5/cyfitter_cfg.c **** ********************************************************************************
 112:Generated_Source\PSoC5/cyfitter_cfg.c **** * Summary:
 113:Generated_Source\PSoC5/cyfitter_cfg.c **** *  If an error is encountered during clock configuration (crystal startup error,
 114:Generated_Source\PSoC5/cyfitter_cfg.c **** *  PLL lock error, etc.), the system will end up here.  Unless reimplemented by
 115:Generated_Source\PSoC5/cyfitter_cfg.c **** *  the customer, this function will stop in an infinite loop.
 116:Generated_Source\PSoC5/cyfitter_cfg.c **** *
 117:Generated_Source\PSoC5/cyfitter_cfg.c **** * Parameters:
 118:Generated_Source\PSoC5/cyfitter_cfg.c **** *   void
 119:Generated_Source\PSoC5/cyfitter_cfg.c **** *
 120:Generated_Source\PSoC5/cyfitter_cfg.c **** * Return:
 121:Generated_Source\PSoC5/cyfitter_cfg.c **** *   void
 122:Generated_Source\PSoC5/cyfitter_cfg.c **** *
 123:Generated_Source\PSoC5/cyfitter_cfg.c **** *******************************************************************************/
 124:Generated_Source\PSoC5/cyfitter_cfg.c **** CY_CFG_UNUSED
 125:Generated_Source\PSoC5/cyfitter_cfg.c **** static void CyClockStartupError(uint8 errorCode);
 126:Generated_Source\PSoC5/cyfitter_cfg.c **** CY_CFG_UNUSED
 127:Generated_Source\PSoC5/cyfitter_cfg.c **** static void CyClockStartupError(uint8 errorCode)
 128:Generated_Source\PSoC5/cyfitter_cfg.c **** {
  27              		.loc 1 128 0
  28              		.cfi_startproc
  29              		@ Volatile: function does not return.
  30              		@ args = 0, pretend = 0, frame = 0
  31              		@ frame_needed = 0, uses_anonymous_args = 0
  32              		@ link register save eliminated.
  33              	.LVL0:
  34              	.L2:
  35 0000 FEE7     		b	.L2
  36              		.cfi_endproc
  37              	.LFE3:
  38              		.size	CyClockStartupError, .-CyClockStartupError
  39 0002 00BF     		.section	.text.cfg_write_bytes32,"ax",%progbits
  40              		.align	2
  41              		.thumb
  42              		.thumb_func
  43              		.type	cfg_write_bytes32, %function
ARM GAS  C:\Users\Dell\AppData\Local\Temp\ccSPIrXH.s 			page 4


  44              	cfg_write_bytes32:
  45              	.LFB4:
 129:Generated_Source\PSoC5/cyfitter_cfg.c ****     /* To remove the compiler warning if errorCode not used.                */
 130:Generated_Source\PSoC5/cyfitter_cfg.c ****     errorCode = errorCode;
 131:Generated_Source\PSoC5/cyfitter_cfg.c **** 
 132:Generated_Source\PSoC5/cyfitter_cfg.c ****     /* If we have a clock startup error (bad MHz crystal, PLL lock, etc.),  */
 133:Generated_Source\PSoC5/cyfitter_cfg.c ****     /* we will end up here to allow the customer to implement something to  */
 134:Generated_Source\PSoC5/cyfitter_cfg.c ****     /* deal with the clock condition.                                       */
 135:Generated_Source\PSoC5/cyfitter_cfg.c **** 
 136:Generated_Source\PSoC5/cyfitter_cfg.c **** #ifdef CY_CFG_CLOCK_STARTUP_ERROR_CALLBACK
 137:Generated_Source\PSoC5/cyfitter_cfg.c ****     CY_CFG_Clock_Startup_ErrorCallback();
 138:Generated_Source\PSoC5/cyfitter_cfg.c **** #else
 139:Generated_Source\PSoC5/cyfitter_cfg.c ****     /*  If not using CY_CFG_CLOCK_STARTUP_ERROR_CALLBACK, place your clock startup code here. */
 140:Generated_Source\PSoC5/cyfitter_cfg.c ****     /* `#START CyClockStartupError` */
 141:Generated_Source\PSoC5/cyfitter_cfg.c **** 
 142:Generated_Source\PSoC5/cyfitter_cfg.c **** 
 143:Generated_Source\PSoC5/cyfitter_cfg.c **** 
 144:Generated_Source\PSoC5/cyfitter_cfg.c ****     /* `#END` */
 145:Generated_Source\PSoC5/cyfitter_cfg.c **** 
 146:Generated_Source\PSoC5/cyfitter_cfg.c ****     while(1) {}
 147:Generated_Source\PSoC5/cyfitter_cfg.c **** #endif /* CY_CFG_CLOCK_STARTUP_ERROR_CALLBACK */
 148:Generated_Source\PSoC5/cyfitter_cfg.c **** }
 149:Generated_Source\PSoC5/cyfitter_cfg.c **** #endif
 150:Generated_Source\PSoC5/cyfitter_cfg.c **** 
 151:Generated_Source\PSoC5/cyfitter_cfg.c **** #define CY_CFG_BASE_ADDR_COUNT 26u
 152:Generated_Source\PSoC5/cyfitter_cfg.c **** CYPACKED typedef struct
 153:Generated_Source\PSoC5/cyfitter_cfg.c **** {
 154:Generated_Source\PSoC5/cyfitter_cfg.c **** 	uint8 offset;
 155:Generated_Source\PSoC5/cyfitter_cfg.c **** 	uint8 value;
 156:Generated_Source\PSoC5/cyfitter_cfg.c **** } CYPACKED_ATTR cy_cfg_addrvalue_t;
 157:Generated_Source\PSoC5/cyfitter_cfg.c **** 
 158:Generated_Source\PSoC5/cyfitter_cfg.c **** 
 159:Generated_Source\PSoC5/cyfitter_cfg.c **** 
 160:Generated_Source\PSoC5/cyfitter_cfg.c **** /*******************************************************************************
 161:Generated_Source\PSoC5/cyfitter_cfg.c **** * Function Name: cfg_write_bytes32
 162:Generated_Source\PSoC5/cyfitter_cfg.c **** ********************************************************************************
 163:Generated_Source\PSoC5/cyfitter_cfg.c **** * Summary:
 164:Generated_Source\PSoC5/cyfitter_cfg.c **** *  This function is used for setting up the chip configuration areas that
 165:Generated_Source\PSoC5/cyfitter_cfg.c **** *  contain relatively sparse data.
 166:Generated_Source\PSoC5/cyfitter_cfg.c **** *
 167:Generated_Source\PSoC5/cyfitter_cfg.c **** * Parameters:
 168:Generated_Source\PSoC5/cyfitter_cfg.c **** *   void
 169:Generated_Source\PSoC5/cyfitter_cfg.c **** *
 170:Generated_Source\PSoC5/cyfitter_cfg.c **** * Return:
 171:Generated_Source\PSoC5/cyfitter_cfg.c **** *   void
 172:Generated_Source\PSoC5/cyfitter_cfg.c **** *
 173:Generated_Source\PSoC5/cyfitter_cfg.c **** *******************************************************************************/
 174:Generated_Source\PSoC5/cyfitter_cfg.c **** static void cfg_write_bytes32(const uint32 addr_table[], const cy_cfg_addrvalue_t data_table[]);
 175:Generated_Source\PSoC5/cyfitter_cfg.c **** static void cfg_write_bytes32(const uint32 addr_table[], const cy_cfg_addrvalue_t data_table[])
 176:Generated_Source\PSoC5/cyfitter_cfg.c **** {
  46              		.loc 1 176 0
  47              		.cfi_startproc
  48              		@ args = 0, pretend = 0, frame = 0
  49              		@ frame_needed = 0, uses_anonymous_args = 0
  50              		@ link register save eliminated.
  51              	.LVL1:
  52              		.loc 1 176 0
ARM GAS  C:\Users\Dell\AppData\Local\Temp\ccSPIrXH.s 			page 5


  53 0000 F0B4     		push	{r4, r5, r6, r7}
  54              		.cfi_def_cfa_offset 16
  55              		.cfi_offset 4, -16
  56              		.cfi_offset 5, -12
  57              		.cfi_offset 6, -8
  58              		.cfi_offset 7, -4
  59              	.LVL2:
 177:Generated_Source\PSoC5/cyfitter_cfg.c **** 	/* For 32-bit little-endian architectures */
 178:Generated_Source\PSoC5/cyfitter_cfg.c **** 	uint32 i, j = 0u;
  60              		.loc 1 178 0
  61 0002 0022     		movs	r2, #0
 179:Generated_Source\PSoC5/cyfitter_cfg.c **** 	for (i = 0u; i < CY_CFG_BASE_ADDR_COUNT; i++)
  62              		.loc 1 179 0
  63 0004 1746     		mov	r7, r2
  64 0006 11E0     		b	.L4
  65              	.LVL3:
  66              	.L7:
  67              	.LBB2:
 180:Generated_Source\PSoC5/cyfitter_cfg.c **** 	{
 181:Generated_Source\PSoC5/cyfitter_cfg.c **** 		uint32 baseAddr = addr_table[i];
  68              		.loc 1 181 0
  69 0008 50F82760 		ldr	r6, [r0, r7, lsl #2]
  70              	.LVL4:
 182:Generated_Source\PSoC5/cyfitter_cfg.c **** 		uint8 count = (uint8)baseAddr;
  71              		.loc 1 182 0
  72 000c F3B2     		uxtb	r3, r6
  73              	.LVL5:
 183:Generated_Source\PSoC5/cyfitter_cfg.c **** 		baseAddr &= 0xFFFFFF00u;
  74              		.loc 1 183 0
  75 000e 26F0FF06 		bic	r6, r6, #255
  76              	.LVL6:
 184:Generated_Source\PSoC5/cyfitter_cfg.c **** 		while (count != 0u)
  77              		.loc 1 184 0
  78 0012 08E0     		b	.L5
  79              	.L6:
 185:Generated_Source\PSoC5/cyfitter_cfg.c **** 		{
 186:Generated_Source\PSoC5/cyfitter_cfg.c **** 			CY_SET_REG8((void *)(baseAddr + data_table[j].offset), data_table[j].value);
  80              		.loc 1 186 0
  81 0014 01EB4205 		add	r5, r1, r2, lsl #1
  82 0018 11F81240 		ldrb	r4, [r1, r2, lsl #1]	@ zero_extendqisi2
  83 001c 6D78     		ldrb	r5, [r5, #1]	@ zero_extendqisi2
  84 001e A555     		strb	r5, [r4, r6]
 187:Generated_Source\PSoC5/cyfitter_cfg.c **** 			j++;
  85              		.loc 1 187 0
  86 0020 0132     		adds	r2, r2, #1
  87              	.LVL7:
 188:Generated_Source\PSoC5/cyfitter_cfg.c **** 			count--;
  88              		.loc 1 188 0
  89 0022 013B     		subs	r3, r3, #1
  90              	.LVL8:
  91 0024 DBB2     		uxtb	r3, r3
  92              	.LVL9:
  93              	.L5:
 184:Generated_Source\PSoC5/cyfitter_cfg.c **** 		{
  94              		.loc 1 184 0
  95 0026 002B     		cmp	r3, #0
  96 0028 F4D1     		bne	.L6
ARM GAS  C:\Users\Dell\AppData\Local\Temp\ccSPIrXH.s 			page 6


  97              	.LBE2:
 179:Generated_Source\PSoC5/cyfitter_cfg.c **** 	{
  98              		.loc 1 179 0 discriminator 2
  99 002a 0137     		adds	r7, r7, #1
 100              	.LVL10:
 101              	.L4:
 179:Generated_Source\PSoC5/cyfitter_cfg.c **** 	{
 102              		.loc 1 179 0 is_stmt 0 discriminator 1
 103 002c 192F     		cmp	r7, #25
 104 002e EBD9     		bls	.L7
 189:Generated_Source\PSoC5/cyfitter_cfg.c **** 		}
 190:Generated_Source\PSoC5/cyfitter_cfg.c **** 	}
 191:Generated_Source\PSoC5/cyfitter_cfg.c **** }
 105              		.loc 1 191 0 is_stmt 1
 106 0030 F0BC     		pop	{r4, r5, r6, r7}
 107              		.cfi_restore 7
 108              		.cfi_restore 6
 109              		.cfi_restore 5
 110              		.cfi_restore 4
 111              		.cfi_def_cfa_offset 0
 112              	.LVL11:
 113 0032 7047     		bx	lr
 114              		.cfi_endproc
 115              	.LFE4:
 116              		.size	cfg_write_bytes32, .-cfg_write_bytes32
 117              		.section	.text.AnalogSetDefault,"ax",%progbits
 118              		.align	2
 119              		.thumb
 120              		.thumb_func
 121              		.type	AnalogSetDefault, %function
 122              	AnalogSetDefault:
 123              	.LFB6:
 192:Generated_Source\PSoC5/cyfitter_cfg.c **** 
 193:Generated_Source\PSoC5/cyfitter_cfg.c **** /*******************************************************************************
 194:Generated_Source\PSoC5/cyfitter_cfg.c **** * Function Name: ClockSetup
 195:Generated_Source\PSoC5/cyfitter_cfg.c **** ********************************************************************************
 196:Generated_Source\PSoC5/cyfitter_cfg.c **** *
 197:Generated_Source\PSoC5/cyfitter_cfg.c **** * Summary:
 198:Generated_Source\PSoC5/cyfitter_cfg.c **** *  Performs the initialization of all of the clocks in the device based on the
 199:Generated_Source\PSoC5/cyfitter_cfg.c **** *  settings in the Clock tab of the DWR.  This includes enabling the requested
 200:Generated_Source\PSoC5/cyfitter_cfg.c **** *  clocks and setting the necessary dividers to produce the desired frequency. 
 201:Generated_Source\PSoC5/cyfitter_cfg.c **** *
 202:Generated_Source\PSoC5/cyfitter_cfg.c **** * Parameters:
 203:Generated_Source\PSoC5/cyfitter_cfg.c **** *  void
 204:Generated_Source\PSoC5/cyfitter_cfg.c **** *
 205:Generated_Source\PSoC5/cyfitter_cfg.c **** * Return:
 206:Generated_Source\PSoC5/cyfitter_cfg.c **** *  void
 207:Generated_Source\PSoC5/cyfitter_cfg.c **** *
 208:Generated_Source\PSoC5/cyfitter_cfg.c **** *******************************************************************************/
 209:Generated_Source\PSoC5/cyfitter_cfg.c **** static void ClockSetup(void);
 210:Generated_Source\PSoC5/cyfitter_cfg.c **** static void ClockSetup(void)
 211:Generated_Source\PSoC5/cyfitter_cfg.c **** {
 212:Generated_Source\PSoC5/cyfitter_cfg.c **** 	uint32 timeout;
 213:Generated_Source\PSoC5/cyfitter_cfg.c **** 	uint8 pllLock;
 214:Generated_Source\PSoC5/cyfitter_cfg.c **** 
 215:Generated_Source\PSoC5/cyfitter_cfg.c **** 
 216:Generated_Source\PSoC5/cyfitter_cfg.c **** 	/* Configure Digital Clocks based on settings from Clock DWR */
ARM GAS  C:\Users\Dell\AppData\Local\Temp\ccSPIrXH.s 			page 7


 217:Generated_Source\PSoC5/cyfitter_cfg.c **** 	CY_SET_XTND_REG16((void CYFAR *)(CYREG_CLKDIST_DCFG0_CFG0), 0x0019u);
 218:Generated_Source\PSoC5/cyfitter_cfg.c **** 	CY_SET_XTND_REG8((void CYFAR *)(CYREG_CLKDIST_DCFG0_CFG0 + 0x2u), 0x18u);
 219:Generated_Source\PSoC5/cyfitter_cfg.c **** 	CY_SET_XTND_REG16((void CYFAR *)(CYREG_CLKDIST_DCFG1_CFG0), 0x095Fu);
 220:Generated_Source\PSoC5/cyfitter_cfg.c **** 	CY_SET_XTND_REG8((void CYFAR *)(CYREG_CLKDIST_DCFG1_CFG0 + 0x2u), 0x18u);
 221:Generated_Source\PSoC5/cyfitter_cfg.c **** 	CY_SET_XTND_REG16((void CYFAR *)(CYREG_CLKDIST_DCFG2_CFG0), 0x095Fu);
 222:Generated_Source\PSoC5/cyfitter_cfg.c **** 	CY_SET_XTND_REG8((void CYFAR *)(CYREG_CLKDIST_DCFG2_CFG0 + 0x2u), 0x18u);
 223:Generated_Source\PSoC5/cyfitter_cfg.c **** 
 224:Generated_Source\PSoC5/cyfitter_cfg.c **** 	/* Configure ILO based on settings from Clock DWR */
 225:Generated_Source\PSoC5/cyfitter_cfg.c **** 	CY_SET_XTND_REG8((void CYFAR *)(CYREG_SLOWCLK_ILO_CR0), 0x02u);
 226:Generated_Source\PSoC5/cyfitter_cfg.c **** 	CY_SET_XTND_REG8((void CYFAR *)(CYREG_CLKDIST_CR), 0x08u);
 227:Generated_Source\PSoC5/cyfitter_cfg.c **** 
 228:Generated_Source\PSoC5/cyfitter_cfg.c **** 	/* Configure IMO based on settings from Clock DWR */
 229:Generated_Source\PSoC5/cyfitter_cfg.c **** 	CY_SET_XTND_REG8((void CYFAR *)(CYREG_FASTCLK_IMO_CR), 0x03u);
 230:Generated_Source\PSoC5/cyfitter_cfg.c **** 	CY_SET_XTND_REG8((void CYFAR *)(CYREG_IMO_TR1), (CY_GET_XTND_REG8((void CYFAR *)CYREG_FLSHID_CUST_
 231:Generated_Source\PSoC5/cyfitter_cfg.c **** 
 232:Generated_Source\PSoC5/cyfitter_cfg.c **** 	/* Configure PLL based on settings from Clock DWR */
 233:Generated_Source\PSoC5/cyfitter_cfg.c **** 	CY_SET_XTND_REG16((void CYFAR *)(CYREG_FASTCLK_PLL_P), 0x0008u);
 234:Generated_Source\PSoC5/cyfitter_cfg.c **** 	CY_SET_XTND_REG16((void CYFAR *)(CYREG_FASTCLK_PLL_CFG0), 0x1251u);
 235:Generated_Source\PSoC5/cyfitter_cfg.c **** 	/* Wait up to 250us for the PLL to lock */
 236:Generated_Source\PSoC5/cyfitter_cfg.c **** 	pllLock = 0u;
 237:Generated_Source\PSoC5/cyfitter_cfg.c **** 	for (timeout = 250u / 10u; (timeout > 0u) && (pllLock != 0x03u); timeout--)
 238:Generated_Source\PSoC5/cyfitter_cfg.c **** 	{ 
 239:Generated_Source\PSoC5/cyfitter_cfg.c **** 		pllLock = 0x03u & ((uint8)((uint8)pllLock << 1) | ((CY_GET_XTND_REG8((void CYFAR *)CYREG_FASTCLK_
 240:Generated_Source\PSoC5/cyfitter_cfg.c **** 		CyDelayCycles(10u * 48u); /* Delay 10us based on 48MHz clock */
 241:Generated_Source\PSoC5/cyfitter_cfg.c **** 	}
 242:Generated_Source\PSoC5/cyfitter_cfg.c **** 	/* If we ran out of time the PLL didn't lock so go to the error function */
 243:Generated_Source\PSoC5/cyfitter_cfg.c **** 	if (timeout == 0u)
 244:Generated_Source\PSoC5/cyfitter_cfg.c **** 	{
 245:Generated_Source\PSoC5/cyfitter_cfg.c **** 		CyClockStartupError(CYCLOCKSTART_PLL_ERROR);
 246:Generated_Source\PSoC5/cyfitter_cfg.c **** 	}
 247:Generated_Source\PSoC5/cyfitter_cfg.c **** 
 248:Generated_Source\PSoC5/cyfitter_cfg.c **** 	/* Configure Bus/Master Clock based on settings from Clock DWR */
 249:Generated_Source\PSoC5/cyfitter_cfg.c **** 	CY_SET_XTND_REG16((void CYFAR *)(CYREG_CLKDIST_MSTR0), 0x0100u);
 250:Generated_Source\PSoC5/cyfitter_cfg.c **** 	CY_SET_XTND_REG8((void CYFAR *)(CYREG_CLKDIST_MSTR0), 0x07u);
 251:Generated_Source\PSoC5/cyfitter_cfg.c **** 	CY_SET_XTND_REG8((void CYFAR *)(CYREG_CLKDIST_BCFG0), 0x00u);
 252:Generated_Source\PSoC5/cyfitter_cfg.c **** 	CY_SET_XTND_REG8((void CYFAR *)(CYREG_CLKDIST_BCFG2), 0x48u);
 253:Generated_Source\PSoC5/cyfitter_cfg.c **** 	CY_SET_XTND_REG8((void CYFAR *)(CYREG_CLKDIST_MSTR0), 0x00u);
 254:Generated_Source\PSoC5/cyfitter_cfg.c **** 	CY_SET_XTND_REG8((void CYFAR *)(CYREG_CLKDIST_LD), 0x02u);
 255:Generated_Source\PSoC5/cyfitter_cfg.c **** 
 256:Generated_Source\PSoC5/cyfitter_cfg.c **** 	CY_SET_XTND_REG8((void CYFAR *)(CYREG_PM_ACT_CFG2), ((CY_GET_XTND_REG8((void CYFAR *)CYREG_PM_ACT_
 257:Generated_Source\PSoC5/cyfitter_cfg.c **** }
 258:Generated_Source\PSoC5/cyfitter_cfg.c **** 
 259:Generated_Source\PSoC5/cyfitter_cfg.c **** 
 260:Generated_Source\PSoC5/cyfitter_cfg.c **** /* Analog API Functions */
 261:Generated_Source\PSoC5/cyfitter_cfg.c **** 
 262:Generated_Source\PSoC5/cyfitter_cfg.c **** 
 263:Generated_Source\PSoC5/cyfitter_cfg.c **** /*******************************************************************************
 264:Generated_Source\PSoC5/cyfitter_cfg.c **** * Function Name: AnalogSetDefault
 265:Generated_Source\PSoC5/cyfitter_cfg.c **** ********************************************************************************
 266:Generated_Source\PSoC5/cyfitter_cfg.c **** *
 267:Generated_Source\PSoC5/cyfitter_cfg.c **** * Summary:
 268:Generated_Source\PSoC5/cyfitter_cfg.c **** *  Sets up the analog portions of the chip to default values based on chip
 269:Generated_Source\PSoC5/cyfitter_cfg.c **** *  configuration options from the project.
 270:Generated_Source\PSoC5/cyfitter_cfg.c **** *
 271:Generated_Source\PSoC5/cyfitter_cfg.c **** * Parameters:
 272:Generated_Source\PSoC5/cyfitter_cfg.c **** *  void
 273:Generated_Source\PSoC5/cyfitter_cfg.c **** *
ARM GAS  C:\Users\Dell\AppData\Local\Temp\ccSPIrXH.s 			page 8


 274:Generated_Source\PSoC5/cyfitter_cfg.c **** * Return:
 275:Generated_Source\PSoC5/cyfitter_cfg.c **** *  void
 276:Generated_Source\PSoC5/cyfitter_cfg.c **** *
 277:Generated_Source\PSoC5/cyfitter_cfg.c **** *******************************************************************************/
 278:Generated_Source\PSoC5/cyfitter_cfg.c **** static void AnalogSetDefault(void);
 279:Generated_Source\PSoC5/cyfitter_cfg.c **** static void AnalogSetDefault(void)
 280:Generated_Source\PSoC5/cyfitter_cfg.c **** {
 124              		.loc 1 280 0
 125              		.cfi_startproc
 126              		@ args = 0, pretend = 0, frame = 0
 127              		@ frame_needed = 0, uses_anonymous_args = 0
 128              		@ link register save eliminated.
 281:Generated_Source\PSoC5/cyfitter_cfg.c **** 	uint8 bg_xover_inl_trim = CY_GET_XTND_REG8((void CYFAR *)(CYREG_FLSHID_MFG_CFG_BG_XOVER_INL_TRIM +
 129              		.loc 1 281 0
 130 0000 064B     		ldr	r3, .L10
 131 0002 1B78     		ldrb	r3, [r3]	@ zero_extendqisi2
 132 0004 DBB2     		uxtb	r3, r3
 133              	.LVL12:
 282:Generated_Source\PSoC5/cyfitter_cfg.c **** 	CY_SET_XTND_REG8((void CYFAR *)(CYREG_BG_DFT0), (bg_xover_inl_trim & 0x07u));
 134              		.loc 1 282 0
 135 0006 03F00701 		and	r1, r3, #7
 136 000a 054A     		ldr	r2, .L10+4
 137 000c 1170     		strb	r1, [r2]
 283:Generated_Source\PSoC5/cyfitter_cfg.c **** 	CY_SET_XTND_REG8((void CYFAR *)(CYREG_BG_DFT1), ((bg_xover_inl_trim >> 4) & 0x0Fu));
 138              		.loc 1 283 0
 139 000e 1B09     		lsrs	r3, r3, #4
 140              	.LVL13:
 141 0010 0132     		adds	r2, r2, #1
 142 0012 1370     		strb	r3, [r2]
 284:Generated_Source\PSoC5/cyfitter_cfg.c **** 	CY_SET_XTND_REG8((void CYFAR *)CYREG_PUMP_CR0, 0x44u);
 143              		.loc 1 284 0
 144 0014 4422     		movs	r2, #68
 145 0016 034B     		ldr	r3, .L10+8
 146 0018 1A70     		strb	r2, [r3]
 147 001a 7047     		bx	lr
 148              	.L11:
 149              		.align	2
 150              	.L10:
 151 001c CF010049 		.word	1224737231
 152 0020 6E580040 		.word	1073764462
 153 0024 76580040 		.word	1073764470
 154              		.cfi_endproc
 155              	.LFE6:
 156              		.size	AnalogSetDefault, .-AnalogSetDefault
 157              		.section	.text.CYMEMZERO,"ax",%progbits
 158              		.align	2
 159              		.thumb
 160              		.thumb_func
 161              		.type	CYMEMZERO, %function
 162              	CYMEMZERO:
 163              	.LFB0:
  78:Generated_Source\PSoC5/cyfitter_cfg.c **** 	(void)memset(s, 0, n);
 164              		.loc 1 78 0
 165              		.cfi_startproc
 166              		@ args = 0, pretend = 0, frame = 0
 167              		@ frame_needed = 0, uses_anonymous_args = 0
 168              	.LVL14:
ARM GAS  C:\Users\Dell\AppData\Local\Temp\ccSPIrXH.s 			page 9


 169 0000 08B5     		push	{r3, lr}
 170              		.cfi_def_cfa_offset 8
 171              		.cfi_offset 3, -8
 172              		.cfi_offset 14, -4
  79:Generated_Source\PSoC5/cyfitter_cfg.c **** }
 173              		.loc 1 79 0
 174 0002 0A46     		mov	r2, r1
 175 0004 0021     		movs	r1, #0
 176              	.LVL15:
 177 0006 FFF7FEFF 		bl	memset
 178              	.LVL16:
 179 000a 08BD     		pop	{r3, pc}
 180              		.cfi_endproc
 181              	.LFE0:
 182              		.size	CYMEMZERO, .-CYMEMZERO
 183              		.section	.text.CYCONFIGCPYCODE,"ax",%progbits
 184              		.align	2
 185              		.thumb
 186              		.thumb_func
 187              		.type	CYCONFIGCPYCODE, %function
 188              	CYCONFIGCPYCODE:
 189              	.LFB2:
  92:Generated_Source\PSoC5/cyfitter_cfg.c **** 	(void)memcpy(dest, src, n);
 190              		.loc 1 92 0
 191              		.cfi_startproc
 192              		@ args = 0, pretend = 0, frame = 0
 193              		@ frame_needed = 0, uses_anonymous_args = 0
 194              	.LVL17:
 195 0000 08B5     		push	{r3, lr}
 196              		.cfi_def_cfa_offset 8
 197              		.cfi_offset 3, -8
 198              		.cfi_offset 14, -4
  93:Generated_Source\PSoC5/cyfitter_cfg.c **** }
 199              		.loc 1 93 0
 200 0002 FFF7FEFF 		bl	memcpy
 201              	.LVL18:
 202 0006 08BD     		pop	{r3, pc}
 203              		.cfi_endproc
 204              	.LFE2:
 205              		.size	CYCONFIGCPYCODE, .-CYCONFIGCPYCODE
 206              		.section	.text.CYCONFIGCPY,"ax",%progbits
 207              		.align	2
 208              		.thumb
 209              		.thumb_func
 210              		.type	CYCONFIGCPY, %function
 211              	CYCONFIGCPY:
 212              	.LFB1:
  85:Generated_Source\PSoC5/cyfitter_cfg.c **** 	(void)memcpy(dest, src, n);
 213              		.loc 1 85 0
 214              		.cfi_startproc
 215              		@ args = 0, pretend = 0, frame = 0
 216              		@ frame_needed = 0, uses_anonymous_args = 0
 217              	.LVL19:
 218 0000 08B5     		push	{r3, lr}
 219              		.cfi_def_cfa_offset 8
 220              		.cfi_offset 3, -8
 221              		.cfi_offset 14, -4
ARM GAS  C:\Users\Dell\AppData\Local\Temp\ccSPIrXH.s 			page 10


  86:Generated_Source\PSoC5/cyfitter_cfg.c **** }
 222              		.loc 1 86 0
 223 0002 FFF7FEFF 		bl	memcpy
 224              	.LVL20:
 225 0006 08BD     		pop	{r3, pc}
 226              		.cfi_endproc
 227              	.LFE1:
 228              		.size	CYCONFIGCPY, .-CYCONFIGCPY
 229              		.section	.text.ClockSetup,"ax",%progbits
 230              		.align	2
 231              		.thumb
 232              		.thumb_func
 233              		.type	ClockSetup, %function
 234              	ClockSetup:
 235              	.LFB5:
 211:Generated_Source\PSoC5/cyfitter_cfg.c **** 	uint32 timeout;
 236              		.loc 1 211 0
 237              		.cfi_startproc
 238              		@ args = 0, pretend = 0, frame = 0
 239              		@ frame_needed = 0, uses_anonymous_args = 0
 240 0000 38B5     		push	{r3, r4, r5, lr}
 241              		.cfi_def_cfa_offset 16
 242              		.cfi_offset 3, -16
 243              		.cfi_offset 4, -12
 244              		.cfi_offset 5, -8
 245              		.cfi_offset 14, -4
 217:Generated_Source\PSoC5/cyfitter_cfg.c **** 	CY_SET_XTND_REG8((void CYFAR *)(CYREG_CLKDIST_DCFG0_CFG0 + 0x2u), 0x18u);
 246              		.loc 1 217 0
 247 0002 1925     		movs	r5, #25
 248 0004 284B     		ldr	r3, .L24
 249 0006 1D80     		strh	r5, [r3]	@ movhi
 218:Generated_Source\PSoC5/cyfitter_cfg.c **** 	CY_SET_XTND_REG16((void CYFAR *)(CYREG_CLKDIST_DCFG1_CFG0), 0x095Fu);
 250              		.loc 1 218 0
 251 0008 1823     		movs	r3, #24
 252 000a 284A     		ldr	r2, .L24+4
 253 000c 1370     		strb	r3, [r2]
 219:Generated_Source\PSoC5/cyfitter_cfg.c **** 	CY_SET_XTND_REG8((void CYFAR *)(CYREG_CLKDIST_DCFG1_CFG0 + 0x2u), 0x18u);
 254              		.loc 1 219 0
 255 000e 40F65F12 		movw	r2, #2399
 256 0012 2749     		ldr	r1, .L24+8
 257 0014 0A80     		strh	r2, [r1]	@ movhi
 220:Generated_Source\PSoC5/cyfitter_cfg.c **** 	CY_SET_XTND_REG16((void CYFAR *)(CYREG_CLKDIST_DCFG2_CFG0), 0x095Fu);
 258              		.loc 1 220 0
 259 0016 0231     		adds	r1, r1, #2
 260 0018 0B70     		strb	r3, [r1]
 221:Generated_Source\PSoC5/cyfitter_cfg.c **** 	CY_SET_XTND_REG8((void CYFAR *)(CYREG_CLKDIST_DCFG2_CFG0 + 0x2u), 0x18u);
 261              		.loc 1 221 0
 262 001a 0231     		adds	r1, r1, #2
 263 001c 0A80     		strh	r2, [r1]	@ movhi
 222:Generated_Source\PSoC5/cyfitter_cfg.c **** 
 264              		.loc 1 222 0
 265 001e 254A     		ldr	r2, .L24+12
 266 0020 1370     		strb	r3, [r2]
 225:Generated_Source\PSoC5/cyfitter_cfg.c **** 	CY_SET_XTND_REG8((void CYFAR *)(CYREG_CLKDIST_CR), 0x08u);
 267              		.loc 1 225 0
 268 0022 0222     		movs	r2, #2
 269 0024 244B     		ldr	r3, .L24+16
ARM GAS  C:\Users\Dell\AppData\Local\Temp\ccSPIrXH.s 			page 11


 270 0026 1A70     		strb	r2, [r3]
 226:Generated_Source\PSoC5/cyfitter_cfg.c **** 
 271              		.loc 1 226 0
 272 0028 0822     		movs	r2, #8
 273 002a 4FF04023 		mov	r3, #1073758208
 274 002e 1A70     		strb	r2, [r3]
 229:Generated_Source\PSoC5/cyfitter_cfg.c **** 	CY_SET_XTND_REG8((void CYFAR *)(CYREG_IMO_TR1), (CY_GET_XTND_REG8((void CYFAR *)CYREG_FLSHID_CUST_
 275              		.loc 1 229 0
 276 0030 0321     		movs	r1, #3
 277 0032 03F50073 		add	r3, r3, #512
 278 0036 1970     		strb	r1, [r3]
 230:Generated_Source\PSoC5/cyfitter_cfg.c **** 
 279              		.loc 1 230 0
 280 0038 204B     		ldr	r3, .L24+20
 281 003a 1B78     		ldrb	r3, [r3]	@ zero_extendqisi2
 282 003c DBB2     		uxtb	r3, r3
 283 003e 2049     		ldr	r1, .L24+24
 284 0040 0B70     		strb	r3, [r1]
 233:Generated_Source\PSoC5/cyfitter_cfg.c **** 	CY_SET_XTND_REG16((void CYFAR *)(CYREG_FASTCLK_PLL_CFG0), 0x1251u);
 285              		.loc 1 233 0
 286 0042 204B     		ldr	r3, .L24+28
 287 0044 1A80     		strh	r2, [r3]	@ movhi
 234:Generated_Source\PSoC5/cyfitter_cfg.c **** 	/* Wait up to 250us for the PLL to lock */
 288              		.loc 1 234 0
 289 0046 41F25122 		movw	r2, #4689
 290 004a 023B     		subs	r3, r3, #2
 291 004c 1A80     		strh	r2, [r3]	@ movhi
 292              	.LVL21:
 236:Generated_Source\PSoC5/cyfitter_cfg.c **** 	for (timeout = 250u / 10u; (timeout > 0u) && (pllLock != 0x03u); timeout--)
 293              		.loc 1 236 0
 294 004e 0024     		movs	r4, #0
 237:Generated_Source\PSoC5/cyfitter_cfg.c **** 	{ 
 295              		.loc 1 237 0
 296 0050 0CE0     		b	.L19
 297              	.LVL22:
 298              	.L21:
 239:Generated_Source\PSoC5/cyfitter_cfg.c **** 		CyDelayCycles(10u * 48u); /* Delay 10us based on 48MHz clock */
 299              		.loc 1 239 0 discriminator 4
 300 0052 1D4B     		ldr	r3, .L24+32
 301 0054 1B78     		ldrb	r3, [r3]	@ zero_extendqisi2
 302 0056 03F00103 		and	r3, r3, #1
 303 005a 43EA4404 		orr	r4, r3, r4, lsl #1
 304              	.LVL23:
 305 005e 04F00304 		and	r4, r4, #3
 306              	.LVL24:
 240:Generated_Source\PSoC5/cyfitter_cfg.c **** 	}
 307              		.loc 1 240 0 discriminator 4
 308 0062 4FF4F070 		mov	r0, #480
 309 0066 FFF7FEFF 		bl	CyDelayCycles
 310              	.LVL25:
 237:Generated_Source\PSoC5/cyfitter_cfg.c **** 	{ 
 311              		.loc 1 237 0 discriminator 4
 312 006a 013D     		subs	r5, r5, #1
 313              	.LVL26:
 314              	.L19:
 237:Generated_Source\PSoC5/cyfitter_cfg.c **** 	{ 
 315              		.loc 1 237 0 is_stmt 0 discriminator 1
ARM GAS  C:\Users\Dell\AppData\Local\Temp\ccSPIrXH.s 			page 12


 316 006c 0DB1     		cbz	r5, .L20
 237:Generated_Source\PSoC5/cyfitter_cfg.c **** 	{ 
 317              		.loc 1 237 0 discriminator 3
 318 006e 032C     		cmp	r4, #3
 319 0070 EFD1     		bne	.L21
 320              	.L20:
 243:Generated_Source\PSoC5/cyfitter_cfg.c **** 	{
 321              		.loc 1 243 0 is_stmt 1
 322 0072 15B9     		cbnz	r5, .L22
 245:Generated_Source\PSoC5/cyfitter_cfg.c **** 	}
 323              		.loc 1 245 0
 324 0074 0320     		movs	r0, #3
 325 0076 FFF7FEFF 		bl	CyClockStartupError
 326              	.LVL27:
 327              	.L22:
 249:Generated_Source\PSoC5/cyfitter_cfg.c **** 	CY_SET_XTND_REG8((void CYFAR *)(CYREG_CLKDIST_MSTR0), 0x07u);
 328              		.loc 1 249 0
 329 007a 144B     		ldr	r3, .L24+36
 330 007c 4FF48072 		mov	r2, #256
 331 0080 1A80     		strh	r2, [r3]	@ movhi
 250:Generated_Source\PSoC5/cyfitter_cfg.c **** 	CY_SET_XTND_REG8((void CYFAR *)(CYREG_CLKDIST_BCFG0), 0x00u);
 332              		.loc 1 250 0
 333 0082 0722     		movs	r2, #7
 334 0084 1A70     		strb	r2, [r3]
 251:Generated_Source\PSoC5/cyfitter_cfg.c **** 	CY_SET_XTND_REG8((void CYFAR *)(CYREG_CLKDIST_BCFG2), 0x48u);
 335              		.loc 1 251 0
 336 0086 0022     		movs	r2, #0
 337 0088 1149     		ldr	r1, .L24+40
 338 008a 0A70     		strb	r2, [r1]
 252:Generated_Source\PSoC5/cyfitter_cfg.c **** 	CY_SET_XTND_REG8((void CYFAR *)(CYREG_CLKDIST_MSTR0), 0x00u);
 339              		.loc 1 252 0
 340 008c 4820     		movs	r0, #72
 341 008e 0231     		adds	r1, r1, #2
 342 0090 0870     		strb	r0, [r1]
 253:Generated_Source\PSoC5/cyfitter_cfg.c **** 	CY_SET_XTND_REG8((void CYFAR *)(CYREG_CLKDIST_LD), 0x02u);
 343              		.loc 1 253 0
 344 0092 1A70     		strb	r2, [r3]
 254:Generated_Source\PSoC5/cyfitter_cfg.c **** 
 345              		.loc 1 254 0
 346 0094 0222     		movs	r2, #2
 347 0096 033B     		subs	r3, r3, #3
 348 0098 1A70     		strb	r2, [r3]
 256:Generated_Source\PSoC5/cyfitter_cfg.c **** }
 349              		.loc 1 256 0
 350 009a 0E4A     		ldr	r2, .L24+44
 351 009c 1378     		ldrb	r3, [r2]	@ zero_extendqisi2
 352 009e 43F00703 		orr	r3, r3, #7
 353 00a2 1370     		strb	r3, [r2]
 354 00a4 38BD     		pop	{r3, r4, r5, pc}
 355              	.LVL28:
 356              	.L25:
 357 00a6 00BF     		.align	2
 358              	.L24:
 359 00a8 80400040 		.word	1073758336
 360 00ac 82400040 		.word	1073758338
 361 00b0 84400040 		.word	1073758340
 362 00b4 8A400040 		.word	1073758346
ARM GAS  C:\Users\Dell\AppData\Local\Temp\ccSPIrXH.s 			page 13


 363 00b8 00430040 		.word	1073758976
 364 00bc 08010049 		.word	1224737032
 365 00c0 A1460040 		.word	1073759905
 366 00c4 22420040 		.word	1073758754
 367 00c8 25420040 		.word	1073758757
 368 00cc 04400040 		.word	1073758212
 369 00d0 06400040 		.word	1073758214
 370 00d4 A2430040 		.word	1073759138
 371              		.cfi_endproc
 372              	.LFE5:
 373              		.size	ClockSetup, .-ClockSetup
 374              		.section	.text.SetAnalogRoutingPumps,"ax",%progbits
 375              		.align	2
 376              		.global	SetAnalogRoutingPumps
 377              		.thumb
 378              		.thumb_func
 379              		.type	SetAnalogRoutingPumps, %function
 380              	SetAnalogRoutingPumps:
 381              	.LFB7:
 285:Generated_Source\PSoC5/cyfitter_cfg.c **** }
 286:Generated_Source\PSoC5/cyfitter_cfg.c **** 
 287:Generated_Source\PSoC5/cyfitter_cfg.c **** 
 288:Generated_Source\PSoC5/cyfitter_cfg.c **** /*******************************************************************************
 289:Generated_Source\PSoC5/cyfitter_cfg.c **** * Function Name: SetAnalogRoutingPumps
 290:Generated_Source\PSoC5/cyfitter_cfg.c **** ********************************************************************************
 291:Generated_Source\PSoC5/cyfitter_cfg.c **** *
 292:Generated_Source\PSoC5/cyfitter_cfg.c **** * Summary:
 293:Generated_Source\PSoC5/cyfitter_cfg.c **** * Enables or disables the analog pumps feeding analog routing switches.
 294:Generated_Source\PSoC5/cyfitter_cfg.c **** * Intended to be called at startup, based on the Vdda system configuration;
 295:Generated_Source\PSoC5/cyfitter_cfg.c **** * may be called during operation when the user informs us that the Vdda voltage
 296:Generated_Source\PSoC5/cyfitter_cfg.c **** * crossed the pump threshold.
 297:Generated_Source\PSoC5/cyfitter_cfg.c **** *
 298:Generated_Source\PSoC5/cyfitter_cfg.c **** * Parameters:
 299:Generated_Source\PSoC5/cyfitter_cfg.c **** *  enabled - 1 to enable the pumps, 0 to disable the pumps
 300:Generated_Source\PSoC5/cyfitter_cfg.c **** *
 301:Generated_Source\PSoC5/cyfitter_cfg.c **** * Return:
 302:Generated_Source\PSoC5/cyfitter_cfg.c **** *  void
 303:Generated_Source\PSoC5/cyfitter_cfg.c **** *
 304:Generated_Source\PSoC5/cyfitter_cfg.c **** *******************************************************************************/
 305:Generated_Source\PSoC5/cyfitter_cfg.c **** void SetAnalogRoutingPumps(uint8 enabled)
 306:Generated_Source\PSoC5/cyfitter_cfg.c **** {
 382              		.loc 1 306 0
 383              		.cfi_startproc
 384              		@ args = 0, pretend = 0, frame = 0
 385              		@ frame_needed = 0, uses_anonymous_args = 0
 386              		@ link register save eliminated.
 387              	.LVL29:
 307:Generated_Source\PSoC5/cyfitter_cfg.c **** 	uint8 regValue = CY_GET_XTND_REG8((void CYFAR *)CYREG_PUMP_CR0);
 388              		.loc 1 307 0
 389 0000 024A     		ldr	r2, .L27
 390 0002 1378     		ldrb	r3, [r2]	@ zero_extendqisi2
 391 0004 DBB2     		uxtb	r3, r3
 392              	.LVL30:
 308:Generated_Source\PSoC5/cyfitter_cfg.c **** 	if (enabled != 0u)
 309:Generated_Source\PSoC5/cyfitter_cfg.c **** 	{
 310:Generated_Source\PSoC5/cyfitter_cfg.c **** 		regValue |= 0x00u;
 311:Generated_Source\PSoC5/cyfitter_cfg.c **** 	}
ARM GAS  C:\Users\Dell\AppData\Local\Temp\ccSPIrXH.s 			page 14


 312:Generated_Source\PSoC5/cyfitter_cfg.c **** 	else
 313:Generated_Source\PSoC5/cyfitter_cfg.c **** 	{
 314:Generated_Source\PSoC5/cyfitter_cfg.c **** 		regValue &= (uint8)~0x00u;
 315:Generated_Source\PSoC5/cyfitter_cfg.c **** 	}
 316:Generated_Source\PSoC5/cyfitter_cfg.c **** 	CY_SET_XTND_REG8((void CYFAR *)CYREG_PUMP_CR0, regValue);
 393              		.loc 1 316 0
 394 0006 1370     		strb	r3, [r2]
 395 0008 7047     		bx	lr
 396              	.L28:
 397 000a 00BF     		.align	2
 398              	.L27:
 399 000c 76580040 		.word	1073764470
 400              		.cfi_endproc
 401              	.LFE7:
 402              		.size	SetAnalogRoutingPumps, .-SetAnalogRoutingPumps
 403              		.section	.text.cyfitter_cfg,"ax",%progbits
 404              		.align	2
 405              		.global	cyfitter_cfg
 406              		.thumb
 407              		.thumb_func
 408              		.type	cyfitter_cfg, %function
 409              	cyfitter_cfg:
 410              	.LFB8:
 317:Generated_Source\PSoC5/cyfitter_cfg.c **** }
 318:Generated_Source\PSoC5/cyfitter_cfg.c **** 
 319:Generated_Source\PSoC5/cyfitter_cfg.c **** 
 320:Generated_Source\PSoC5/cyfitter_cfg.c **** 
 321:Generated_Source\PSoC5/cyfitter_cfg.c **** 
 322:Generated_Source\PSoC5/cyfitter_cfg.c **** /*******************************************************************************
 323:Generated_Source\PSoC5/cyfitter_cfg.c **** * Function Name: cyfitter_cfg
 324:Generated_Source\PSoC5/cyfitter_cfg.c **** ********************************************************************************
 325:Generated_Source\PSoC5/cyfitter_cfg.c **** * Summary:
 326:Generated_Source\PSoC5/cyfitter_cfg.c **** *  This function is called by the start-up code for the selected device. It
 327:Generated_Source\PSoC5/cyfitter_cfg.c **** *  performs all of the necessary device configuration based on the design
 328:Generated_Source\PSoC5/cyfitter_cfg.c **** *  settings.  This includes settings from the Design Wide Resources (DWR) such
 329:Generated_Source\PSoC5/cyfitter_cfg.c **** *  as Clocks and Pins as well as any component configuration that is necessary.
 330:Generated_Source\PSoC5/cyfitter_cfg.c **** *
 331:Generated_Source\PSoC5/cyfitter_cfg.c **** * Parameters:
 332:Generated_Source\PSoC5/cyfitter_cfg.c **** *   void
 333:Generated_Source\PSoC5/cyfitter_cfg.c **** *
 334:Generated_Source\PSoC5/cyfitter_cfg.c **** * Return:
 335:Generated_Source\PSoC5/cyfitter_cfg.c **** *   void
 336:Generated_Source\PSoC5/cyfitter_cfg.c **** *
 337:Generated_Source\PSoC5/cyfitter_cfg.c **** *******************************************************************************/
 338:Generated_Source\PSoC5/cyfitter_cfg.c **** 
 339:Generated_Source\PSoC5/cyfitter_cfg.c **** void cyfitter_cfg(void)
 340:Generated_Source\PSoC5/cyfitter_cfg.c **** {
 411              		.loc 1 340 0
 412              		.cfi_startproc
 413              		@ args = 0, pretend = 0, frame = 0
 414              		@ frame_needed = 0, uses_anonymous_args = 0
 415 0000 38B5     		push	{r3, r4, r5, lr}
 416              		.cfi_def_cfa_offset 16
 417              		.cfi_offset 3, -16
 418              		.cfi_offset 4, -12
 419              		.cfi_offset 5, -8
 420              		.cfi_offset 14, -4
ARM GAS  C:\Users\Dell\AppData\Local\Temp\ccSPIrXH.s 			page 15


 341:Generated_Source\PSoC5/cyfitter_cfg.c **** 	/* IOPINS0_0 Address: CYREG_PRT0_DM0 Size (bytes): 8 */
 342:Generated_Source\PSoC5/cyfitter_cfg.c **** 	static const uint8 CYCODE BS_IOPINS0_0_VAL[] = {
 343:Generated_Source\PSoC5/cyfitter_cfg.c **** 		0x80u, 0x01u, 0x01u, 0x00u, 0x00u, 0x00u, 0x00u, 0x00u};
 344:Generated_Source\PSoC5/cyfitter_cfg.c **** 
 345:Generated_Source\PSoC5/cyfitter_cfg.c **** 	/* IOPINS0_7 Address: CYREG_PRT12_DR Size (bytes): 10 */
 346:Generated_Source\PSoC5/cyfitter_cfg.c **** 	static const uint8 CYCODE BS_IOPINS0_7_VAL[] = {
 347:Generated_Source\PSoC5/cyfitter_cfg.c **** 		0x83u, 0x00u, 0x40u, 0x80u, 0x83u, 0x00u, 0x83u, 0x00u, 0x00u, 0x00u};
 348:Generated_Source\PSoC5/cyfitter_cfg.c **** 
 349:Generated_Source\PSoC5/cyfitter_cfg.c **** 	/* IOPINS0_1 Address: CYREG_PRT1_DM0 Size (bytes): 8 */
 350:Generated_Source\PSoC5/cyfitter_cfg.c **** 	static const uint8 CYCODE BS_IOPINS0_1_VAL[] = {
 351:Generated_Source\PSoC5/cyfitter_cfg.c **** 		0x00u, 0x0Bu, 0x0Bu, 0x00u, 0x00u, 0x00u, 0x00u, 0x00u};
 352:Generated_Source\PSoC5/cyfitter_cfg.c **** 
 353:Generated_Source\PSoC5/cyfitter_cfg.c **** 	/* IOPINS0_2 Address: CYREG_PRT2_DM0 Size (bytes): 8 */
 354:Generated_Source\PSoC5/cyfitter_cfg.c **** 	static const uint8 CYCODE BS_IOPINS0_2_VAL[] = {
 355:Generated_Source\PSoC5/cyfitter_cfg.c **** 		0x00u, 0xF0u, 0xF0u, 0x00u, 0x00u, 0x00u, 0x00u, 0x00u};
 356:Generated_Source\PSoC5/cyfitter_cfg.c **** 
 357:Generated_Source\PSoC5/cyfitter_cfg.c **** #ifdef CYGlobalIntDisable
 358:Generated_Source\PSoC5/cyfitter_cfg.c **** 	/* Disable interrupts by default. Let user enable if/when they want. */
 359:Generated_Source\PSoC5/cyfitter_cfg.c **** 	CYGlobalIntDisable
 421              		.loc 1 359 0
 422              		.syntax unified
 423              	@ 359 "Generated_Source\PSoC5\cyfitter_cfg.c" 1
 424 0002 72B6     		CPSID   i
 425              	@ 0 "" 2
 360:Generated_Source\PSoC5/cyfitter_cfg.c **** #endif
 361:Generated_Source\PSoC5/cyfitter_cfg.c **** 
 362:Generated_Source\PSoC5/cyfitter_cfg.c **** 	/* Enable/Disable Debug functionality based on settings from System DWR */
 363:Generated_Source\PSoC5/cyfitter_cfg.c **** 	CY_SET_XTND_REG8((void CYFAR *)CYREG_MLOGIC_DEBUG, (CY_GET_XTND_REG8((void CYFAR *)CYREG_MLOGIC_DE
 426              		.loc 1 363 0
 427              		.thumb
 428              		.syntax unified
 429 0004 384A     		ldr	r2, .L35
 430 0006 1378     		ldrb	r3, [r2]	@ zero_extendqisi2
 431 0008 43F00403 		orr	r3, r3, #4
 432 000c 1370     		strb	r3, [r2]
 433              	.LVL31:
 434              	.LBB3:
 364:Generated_Source\PSoC5/cyfitter_cfg.c **** 
 365:Generated_Source\PSoC5/cyfitter_cfg.c **** 	{
 366:Generated_Source\PSoC5/cyfitter_cfg.c **** 		static const uint32 CYCODE cy_cfg_addr_table[] = {
 367:Generated_Source\PSoC5/cyfitter_cfg.c **** 			0x40004F02u, /* Base address: 0x40004F00 Count: 2 */
 368:Generated_Source\PSoC5/cyfitter_cfg.c **** 			0x40006402u, /* Base address: 0x40006400 Count: 2 */
 369:Generated_Source\PSoC5/cyfitter_cfg.c **** 			0x40006502u, /* Base address: 0x40006500 Count: 2 */
 370:Generated_Source\PSoC5/cyfitter_cfg.c **** 			0x4001024Du, /* Base address: 0x40010200 Count: 77 */
 371:Generated_Source\PSoC5/cyfitter_cfg.c **** 			0x40010328u, /* Base address: 0x40010300 Count: 40 */
 372:Generated_Source\PSoC5/cyfitter_cfg.c **** 			0x40010501u, /* Base address: 0x40010500 Count: 1 */
 373:Generated_Source\PSoC5/cyfitter_cfg.c **** 			0x40010702u, /* Base address: 0x40010700 Count: 2 */
 374:Generated_Source\PSoC5/cyfitter_cfg.c **** 			0x40010853u, /* Base address: 0x40010800 Count: 83 */
 375:Generated_Source\PSoC5/cyfitter_cfg.c **** 			0x40010936u, /* Base address: 0x40010900 Count: 54 */
 376:Generated_Source\PSoC5/cyfitter_cfg.c **** 			0x40011404u, /* Base address: 0x40011400 Count: 4 */
 377:Generated_Source\PSoC5/cyfitter_cfg.c **** 			0x40011508u, /* Base address: 0x40011500 Count: 8 */
 378:Generated_Source\PSoC5/cyfitter_cfg.c **** 			0x40011703u, /* Base address: 0x40011700 Count: 3 */
 379:Generated_Source\PSoC5/cyfitter_cfg.c **** 			0x4001184Cu, /* Base address: 0x40011800 Count: 76 */
 380:Generated_Source\PSoC5/cyfitter_cfg.c **** 			0x40011945u, /* Base address: 0x40011900 Count: 69 */
 381:Generated_Source\PSoC5/cyfitter_cfg.c **** 			0x40011A48u, /* Base address: 0x40011A00 Count: 72 */
 382:Generated_Source\PSoC5/cyfitter_cfg.c **** 			0x40011B4Bu, /* Base address: 0x40011B00 Count: 75 */
 383:Generated_Source\PSoC5/cyfitter_cfg.c **** 			0x40014003u, /* Base address: 0x40014000 Count: 3 */
ARM GAS  C:\Users\Dell\AppData\Local\Temp\ccSPIrXH.s 			page 16


 384:Generated_Source\PSoC5/cyfitter_cfg.c **** 			0x40014105u, /* Base address: 0x40014100 Count: 5 */
 385:Generated_Source\PSoC5/cyfitter_cfg.c **** 			0x40014205u, /* Base address: 0x40014200 Count: 5 */
 386:Generated_Source\PSoC5/cyfitter_cfg.c **** 			0x40014304u, /* Base address: 0x40014300 Count: 4 */
 387:Generated_Source\PSoC5/cyfitter_cfg.c **** 			0x40014806u, /* Base address: 0x40014800 Count: 6 */
 388:Generated_Source\PSoC5/cyfitter_cfg.c **** 			0x40014911u, /* Base address: 0x40014900 Count: 17 */
 389:Generated_Source\PSoC5/cyfitter_cfg.c **** 			0x40014C09u, /* Base address: 0x40014C00 Count: 9 */
 390:Generated_Source\PSoC5/cyfitter_cfg.c **** 			0x40014D0Cu, /* Base address: 0x40014D00 Count: 12 */
 391:Generated_Source\PSoC5/cyfitter_cfg.c **** 			0x40015005u, /* Base address: 0x40015000 Count: 5 */
 392:Generated_Source\PSoC5/cyfitter_cfg.c **** 			0x40015102u, /* Base address: 0x40015100 Count: 2 */
 393:Generated_Source\PSoC5/cyfitter_cfg.c **** 		};
 394:Generated_Source\PSoC5/cyfitter_cfg.c **** 
 395:Generated_Source\PSoC5/cyfitter_cfg.c **** 		static const cy_cfg_addrvalue_t CYCODE cy_cfg_data_table[] = {
 396:Generated_Source\PSoC5/cyfitter_cfg.c **** 			{0x01u, 0x20u},
 397:Generated_Source\PSoC5/cyfitter_cfg.c **** 			{0x0Au, 0x36u},
 398:Generated_Source\PSoC5/cyfitter_cfg.c **** 			{0x83u, 0x67u},
 399:Generated_Source\PSoC5/cyfitter_cfg.c **** 			{0x89u, 0x38u},
 400:Generated_Source\PSoC5/cyfitter_cfg.c **** 			{0x88u, 0x0Fu},
 401:Generated_Source\PSoC5/cyfitter_cfg.c **** 			{0x8Au, 0x72u},
 402:Generated_Source\PSoC5/cyfitter_cfg.c **** 			{0x05u, 0x01u},
 403:Generated_Source\PSoC5/cyfitter_cfg.c **** 			{0x0Fu, 0x01u},
 404:Generated_Source\PSoC5/cyfitter_cfg.c **** 			{0x1Bu, 0x02u},
 405:Generated_Source\PSoC5/cyfitter_cfg.c **** 			{0x1Fu, 0x02u},
 406:Generated_Source\PSoC5/cyfitter_cfg.c **** 			{0x22u, 0x02u},
 407:Generated_Source\PSoC5/cyfitter_cfg.c **** 			{0x26u, 0x01u},
 408:Generated_Source\PSoC5/cyfitter_cfg.c **** 			{0x29u, 0x02u},
 409:Generated_Source\PSoC5/cyfitter_cfg.c **** 			{0x32u, 0x01u},
 410:Generated_Source\PSoC5/cyfitter_cfg.c **** 			{0x33u, 0x02u},
 411:Generated_Source\PSoC5/cyfitter_cfg.c **** 			{0x34u, 0x02u},
 412:Generated_Source\PSoC5/cyfitter_cfg.c **** 			{0x35u, 0x01u},
 413:Generated_Source\PSoC5/cyfitter_cfg.c **** 			{0x3Fu, 0x14u},
 414:Generated_Source\PSoC5/cyfitter_cfg.c **** 			{0x40u, 0x24u},
 415:Generated_Source\PSoC5/cyfitter_cfg.c **** 			{0x41u, 0x03u},
 416:Generated_Source\PSoC5/cyfitter_cfg.c **** 			{0x49u, 0xFFu},
 417:Generated_Source\PSoC5/cyfitter_cfg.c **** 			{0x4Au, 0xFFu},
 418:Generated_Source\PSoC5/cyfitter_cfg.c **** 			{0x4Bu, 0xFFu},
 419:Generated_Source\PSoC5/cyfitter_cfg.c **** 			{0x4Du, 0xA0u},
 420:Generated_Source\PSoC5/cyfitter_cfg.c **** 			{0x4Fu, 0x01u},
 421:Generated_Source\PSoC5/cyfitter_cfg.c **** 			{0x50u, 0x18u},
 422:Generated_Source\PSoC5/cyfitter_cfg.c **** 			{0x52u, 0x80u},
 423:Generated_Source\PSoC5/cyfitter_cfg.c **** 			{0x58u, 0x04u},
 424:Generated_Source\PSoC5/cyfitter_cfg.c **** 			{0x59u, 0x04u},
 425:Generated_Source\PSoC5/cyfitter_cfg.c **** 			{0x5Au, 0x04u},
 426:Generated_Source\PSoC5/cyfitter_cfg.c **** 			{0x5Bu, 0x04u},
 427:Generated_Source\PSoC5/cyfitter_cfg.c **** 			{0x5Cu, 0x01u},
 428:Generated_Source\PSoC5/cyfitter_cfg.c **** 			{0x5Du, 0x11u},
 429:Generated_Source\PSoC5/cyfitter_cfg.c **** 			{0x5Fu, 0x01u},
 430:Generated_Source\PSoC5/cyfitter_cfg.c **** 			{0x60u, 0x40u},
 431:Generated_Source\PSoC5/cyfitter_cfg.c **** 			{0x62u, 0x80u},
 432:Generated_Source\PSoC5/cyfitter_cfg.c **** 			{0x64u, 0x40u},
 433:Generated_Source\PSoC5/cyfitter_cfg.c **** 			{0x65u, 0x40u},
 434:Generated_Source\PSoC5/cyfitter_cfg.c **** 			{0x66u, 0x80u},
 435:Generated_Source\PSoC5/cyfitter_cfg.c **** 			{0x68u, 0x40u},
 436:Generated_Source\PSoC5/cyfitter_cfg.c **** 			{0x6Au, 0x50u},
 437:Generated_Source\PSoC5/cyfitter_cfg.c **** 			{0x6Bu, 0xA8u},
 438:Generated_Source\PSoC5/cyfitter_cfg.c **** 			{0x6Cu, 0x40u},
 439:Generated_Source\PSoC5/cyfitter_cfg.c **** 			{0x6Du, 0x20u},
 440:Generated_Source\PSoC5/cyfitter_cfg.c **** 			{0x6Eu, 0x50u},
ARM GAS  C:\Users\Dell\AppData\Local\Temp\ccSPIrXH.s 			page 17


 441:Generated_Source\PSoC5/cyfitter_cfg.c **** 			{0x6Fu, 0xA8u},
 442:Generated_Source\PSoC5/cyfitter_cfg.c **** 			{0x87u, 0x03u},
 443:Generated_Source\PSoC5/cyfitter_cfg.c **** 			{0x91u, 0x02u},
 444:Generated_Source\PSoC5/cyfitter_cfg.c **** 			{0xB1u, 0x01u},
 445:Generated_Source\PSoC5/cyfitter_cfg.c **** 			{0xB7u, 0x02u},
 446:Generated_Source\PSoC5/cyfitter_cfg.c **** 			{0xBFu, 0x40u},
 447:Generated_Source\PSoC5/cyfitter_cfg.c **** 			{0xC0u, 0x65u},
 448:Generated_Source\PSoC5/cyfitter_cfg.c **** 			{0xC1u, 0x03u},
 449:Generated_Source\PSoC5/cyfitter_cfg.c **** 			{0xC5u, 0x25u},
 450:Generated_Source\PSoC5/cyfitter_cfg.c **** 			{0xC6u, 0xC0u},
 451:Generated_Source\PSoC5/cyfitter_cfg.c **** 			{0xC7u, 0x0Eu},
 452:Generated_Source\PSoC5/cyfitter_cfg.c **** 			{0xC8u, 0x1Fu},
 453:Generated_Source\PSoC5/cyfitter_cfg.c **** 			{0xC9u, 0xFFu},
 454:Generated_Source\PSoC5/cyfitter_cfg.c **** 			{0xCAu, 0xFFu},
 455:Generated_Source\PSoC5/cyfitter_cfg.c **** 			{0xCBu, 0xFFu},
 456:Generated_Source\PSoC5/cyfitter_cfg.c **** 			{0xCDu, 0xAFu},
 457:Generated_Source\PSoC5/cyfitter_cfg.c **** 			{0xCEu, 0x07u},
 458:Generated_Source\PSoC5/cyfitter_cfg.c **** 			{0xCFu, 0x01u},
 459:Generated_Source\PSoC5/cyfitter_cfg.c **** 			{0xD0u, 0x18u},
 460:Generated_Source\PSoC5/cyfitter_cfg.c **** 			{0xD4u, 0x07u},
 461:Generated_Source\PSoC5/cyfitter_cfg.c **** 			{0xD9u, 0x04u},
 462:Generated_Source\PSoC5/cyfitter_cfg.c **** 			{0xDAu, 0x04u},
 463:Generated_Source\PSoC5/cyfitter_cfg.c **** 			{0xDBu, 0x04u},
 464:Generated_Source\PSoC5/cyfitter_cfg.c **** 			{0xDCu, 0x10u},
 465:Generated_Source\PSoC5/cyfitter_cfg.c **** 			{0xDDu, 0x11u},
 466:Generated_Source\PSoC5/cyfitter_cfg.c **** 			{0xDFu, 0x01u},
 467:Generated_Source\PSoC5/cyfitter_cfg.c **** 			{0xE0u, 0x40u},
 468:Generated_Source\PSoC5/cyfitter_cfg.c **** 			{0xE2u, 0x80u},
 469:Generated_Source\PSoC5/cyfitter_cfg.c **** 			{0xE4u, 0x40u},
 470:Generated_Source\PSoC5/cyfitter_cfg.c **** 			{0xE5u, 0x40u},
 471:Generated_Source\PSoC5/cyfitter_cfg.c **** 			{0xE6u, 0x80u},
 472:Generated_Source\PSoC5/cyfitter_cfg.c **** 			{0xE8u, 0x40u},
 473:Generated_Source\PSoC5/cyfitter_cfg.c **** 			{0xEAu, 0x50u},
 474:Generated_Source\PSoC5/cyfitter_cfg.c **** 			{0xEBu, 0xA8u},
 475:Generated_Source\PSoC5/cyfitter_cfg.c **** 			{0xECu, 0x40u},
 476:Generated_Source\PSoC5/cyfitter_cfg.c **** 			{0xEDu, 0x20u},
 477:Generated_Source\PSoC5/cyfitter_cfg.c **** 			{0xEEu, 0x50u},
 478:Generated_Source\PSoC5/cyfitter_cfg.c **** 			{0xEFu, 0xA8u},
 479:Generated_Source\PSoC5/cyfitter_cfg.c **** 			{0x14u, 0x20u},
 480:Generated_Source\PSoC5/cyfitter_cfg.c **** 			{0x16u, 0x40u},
 481:Generated_Source\PSoC5/cyfitter_cfg.c **** 			{0x1Cu, 0x04u},
 482:Generated_Source\PSoC5/cyfitter_cfg.c **** 			{0x1Eu, 0x10u},
 483:Generated_Source\PSoC5/cyfitter_cfg.c **** 			{0x21u, 0x02u},
 484:Generated_Source\PSoC5/cyfitter_cfg.c **** 			{0x22u, 0x40u},
 485:Generated_Source\PSoC5/cyfitter_cfg.c **** 			{0x26u, 0x04u},
 486:Generated_Source\PSoC5/cyfitter_cfg.c **** 			{0x27u, 0x24u},
 487:Generated_Source\PSoC5/cyfitter_cfg.c **** 			{0x2Eu, 0x10u},
 488:Generated_Source\PSoC5/cyfitter_cfg.c **** 			{0x31u, 0x02u},
 489:Generated_Source\PSoC5/cyfitter_cfg.c **** 			{0x34u, 0x20u},
 490:Generated_Source\PSoC5/cyfitter_cfg.c **** 			{0x37u, 0x40u},
 491:Generated_Source\PSoC5/cyfitter_cfg.c **** 			{0x3Bu, 0x08u},
 492:Generated_Source\PSoC5/cyfitter_cfg.c **** 			{0x3Cu, 0x04u},
 493:Generated_Source\PSoC5/cyfitter_cfg.c **** 			{0x3Fu, 0x40u},
 494:Generated_Source\PSoC5/cyfitter_cfg.c **** 			{0x42u, 0x20u},
 495:Generated_Source\PSoC5/cyfitter_cfg.c **** 			{0x46u, 0x60u},
 496:Generated_Source\PSoC5/cyfitter_cfg.c **** 			{0x47u, 0x28u},
 497:Generated_Source\PSoC5/cyfitter_cfg.c **** 			{0x4Au, 0x44u},
ARM GAS  C:\Users\Dell\AppData\Local\Temp\ccSPIrXH.s 			page 18


 498:Generated_Source\PSoC5/cyfitter_cfg.c **** 			{0x4Bu, 0xC8u},
 499:Generated_Source\PSoC5/cyfitter_cfg.c **** 			{0x51u, 0x08u},
 500:Generated_Source\PSoC5/cyfitter_cfg.c **** 			{0x52u, 0x50u},
 501:Generated_Source\PSoC5/cyfitter_cfg.c **** 			{0x53u, 0x40u},
 502:Generated_Source\PSoC5/cyfitter_cfg.c **** 			{0x59u, 0x20u},
 503:Generated_Source\PSoC5/cyfitter_cfg.c **** 			{0x5Au, 0x80u},
 504:Generated_Source\PSoC5/cyfitter_cfg.c **** 			{0x5Bu, 0x04u},
 505:Generated_Source\PSoC5/cyfitter_cfg.c **** 			{0x61u, 0x08u},
 506:Generated_Source\PSoC5/cyfitter_cfg.c **** 			{0x62u, 0x10u},
 507:Generated_Source\PSoC5/cyfitter_cfg.c **** 			{0x77u, 0x40u},
 508:Generated_Source\PSoC5/cyfitter_cfg.c **** 			{0x84u, 0x20u},
 509:Generated_Source\PSoC5/cyfitter_cfg.c **** 			{0x85u, 0x20u},
 510:Generated_Source\PSoC5/cyfitter_cfg.c **** 			{0x86u, 0x40u},
 511:Generated_Source\PSoC5/cyfitter_cfg.c **** 			{0xC4u, 0x30u},
 512:Generated_Source\PSoC5/cyfitter_cfg.c **** 			{0xCAu, 0x20u},
 513:Generated_Source\PSoC5/cyfitter_cfg.c **** 			{0xCCu, 0x31u},
 514:Generated_Source\PSoC5/cyfitter_cfg.c **** 			{0xCEu, 0x52u},
 515:Generated_Source\PSoC5/cyfitter_cfg.c **** 			{0xD0u, 0xE2u},
 516:Generated_Source\PSoC5/cyfitter_cfg.c **** 			{0xD2u, 0x0Cu},
 517:Generated_Source\PSoC5/cyfitter_cfg.c **** 			{0xD6u, 0x0Eu},
 518:Generated_Source\PSoC5/cyfitter_cfg.c **** 			{0xD8u, 0x06u},
 519:Generated_Source\PSoC5/cyfitter_cfg.c **** 			{0x9Fu, 0x08u},
 520:Generated_Source\PSoC5/cyfitter_cfg.c **** 			{0x9Fu, 0x08u},
 521:Generated_Source\PSoC5/cyfitter_cfg.c **** 			{0xE6u, 0x02u},
 522:Generated_Source\PSoC5/cyfitter_cfg.c **** 			{0x01u, 0x14u},
 523:Generated_Source\PSoC5/cyfitter_cfg.c **** 			{0x02u, 0x05u},
 524:Generated_Source\PSoC5/cyfitter_cfg.c **** 			{0x05u, 0x2Cu},
 525:Generated_Source\PSoC5/cyfitter_cfg.c **** 			{0x06u, 0x08u},
 526:Generated_Source\PSoC5/cyfitter_cfg.c **** 			{0x07u, 0x11u},
 527:Generated_Source\PSoC5/cyfitter_cfg.c **** 			{0x10u, 0x03u},
 528:Generated_Source\PSoC5/cyfitter_cfg.c **** 			{0x11u, 0x40u},
 529:Generated_Source\PSoC5/cyfitter_cfg.c **** 			{0x12u, 0x0Cu},
 530:Generated_Source\PSoC5/cyfitter_cfg.c **** 			{0x14u, 0x03u},
 531:Generated_Source\PSoC5/cyfitter_cfg.c **** 			{0x16u, 0x04u},
 532:Generated_Source\PSoC5/cyfitter_cfg.c **** 			{0x17u, 0x03u},
 533:Generated_Source\PSoC5/cyfitter_cfg.c **** 			{0x19u, 0x09u},
 534:Generated_Source\PSoC5/cyfitter_cfg.c **** 			{0x1Bu, 0x10u},
 535:Generated_Source\PSoC5/cyfitter_cfg.c **** 			{0x1Cu, 0x0Au},
 536:Generated_Source\PSoC5/cyfitter_cfg.c **** 			{0x1Eu, 0x04u},
 537:Generated_Source\PSoC5/cyfitter_cfg.c **** 			{0x21u, 0x1Cu},
 538:Generated_Source\PSoC5/cyfitter_cfg.c **** 			{0x23u, 0x22u},
 539:Generated_Source\PSoC5/cyfitter_cfg.c **** 			{0x28u, 0x03u},
 540:Generated_Source\PSoC5/cyfitter_cfg.c **** 			{0x29u, 0x10u},
 541:Generated_Source\PSoC5/cyfitter_cfg.c **** 			{0x2Au, 0x04u},
 542:Generated_Source\PSoC5/cyfitter_cfg.c **** 			{0x2Du, 0x30u},
 543:Generated_Source\PSoC5/cyfitter_cfg.c **** 			{0x2Fu, 0x0Cu},
 544:Generated_Source\PSoC5/cyfitter_cfg.c **** 			{0x30u, 0x0Fu},
 545:Generated_Source\PSoC5/cyfitter_cfg.c **** 			{0x33u, 0x60u},
 546:Generated_Source\PSoC5/cyfitter_cfg.c **** 			{0x35u, 0x1Fu},
 547:Generated_Source\PSoC5/cyfitter_cfg.c **** 			{0x39u, 0x08u},
 548:Generated_Source\PSoC5/cyfitter_cfg.c **** 			{0x3Au, 0x02u},
 549:Generated_Source\PSoC5/cyfitter_cfg.c **** 			{0x40u, 0x45u},
 550:Generated_Source\PSoC5/cyfitter_cfg.c **** 			{0x41u, 0x02u},
 551:Generated_Source\PSoC5/cyfitter_cfg.c **** 			{0x45u, 0x0Eu},
 552:Generated_Source\PSoC5/cyfitter_cfg.c **** 			{0x46u, 0xC0u},
 553:Generated_Source\PSoC5/cyfitter_cfg.c **** 			{0x47u, 0xB0u},
 554:Generated_Source\PSoC5/cyfitter_cfg.c **** 			{0x48u, 0x29u},
ARM GAS  C:\Users\Dell\AppData\Local\Temp\ccSPIrXH.s 			page 19


 555:Generated_Source\PSoC5/cyfitter_cfg.c **** 			{0x49u, 0xFFu},
 556:Generated_Source\PSoC5/cyfitter_cfg.c **** 			{0x4Au, 0xFFu},
 557:Generated_Source\PSoC5/cyfitter_cfg.c **** 			{0x4Bu, 0xFFu},
 558:Generated_Source\PSoC5/cyfitter_cfg.c **** 			{0x4Eu, 0xF0u},
 559:Generated_Source\PSoC5/cyfitter_cfg.c **** 			{0x4Fu, 0x44u},
 560:Generated_Source\PSoC5/cyfitter_cfg.c **** 			{0x50u, 0x0Cu},
 561:Generated_Source\PSoC5/cyfitter_cfg.c **** 			{0x58u, 0x04u},
 562:Generated_Source\PSoC5/cyfitter_cfg.c **** 			{0x59u, 0x04u},
 563:Generated_Source\PSoC5/cyfitter_cfg.c **** 			{0x5Au, 0x04u},
 564:Generated_Source\PSoC5/cyfitter_cfg.c **** 			{0x5Fu, 0x01u},
 565:Generated_Source\PSoC5/cyfitter_cfg.c **** 			{0x66u, 0xC0u},
 566:Generated_Source\PSoC5/cyfitter_cfg.c **** 			{0x6Au, 0x40u},
 567:Generated_Source\PSoC5/cyfitter_cfg.c **** 			{0x6Bu, 0x02u},
 568:Generated_Source\PSoC5/cyfitter_cfg.c **** 			{0x81u, 0x06u},
 569:Generated_Source\PSoC5/cyfitter_cfg.c **** 			{0x83u, 0x01u},
 570:Generated_Source\PSoC5/cyfitter_cfg.c **** 			{0x85u, 0x02u},
 571:Generated_Source\PSoC5/cyfitter_cfg.c **** 			{0x86u, 0x01u},
 572:Generated_Source\PSoC5/cyfitter_cfg.c **** 			{0x88u, 0x09u},
 573:Generated_Source\PSoC5/cyfitter_cfg.c **** 			{0x89u, 0x06u},
 574:Generated_Source\PSoC5/cyfitter_cfg.c **** 			{0x8Au, 0x06u},
 575:Generated_Source\PSoC5/cyfitter_cfg.c **** 			{0x8Bu, 0x01u},
 576:Generated_Source\PSoC5/cyfitter_cfg.c **** 			{0x8Cu, 0x06u},
 577:Generated_Source\PSoC5/cyfitter_cfg.c **** 			{0x8Du, 0x04u},
 578:Generated_Source\PSoC5/cyfitter_cfg.c **** 			{0x8Eu, 0x09u},
 579:Generated_Source\PSoC5/cyfitter_cfg.c **** 			{0x94u, 0x06u},
 580:Generated_Source\PSoC5/cyfitter_cfg.c **** 			{0x95u, 0x06u},
 581:Generated_Source\PSoC5/cyfitter_cfg.c **** 			{0x98u, 0x02u},
 582:Generated_Source\PSoC5/cyfitter_cfg.c **** 			{0x9Bu, 0x08u},
 583:Generated_Source\PSoC5/cyfitter_cfg.c **** 			{0x9Cu, 0x0Fu},
 584:Generated_Source\PSoC5/cyfitter_cfg.c **** 			{0x9Fu, 0x08u},
 585:Generated_Source\PSoC5/cyfitter_cfg.c **** 			{0xA0u, 0x04u},
 586:Generated_Source\PSoC5/cyfitter_cfg.c **** 			{0xA1u, 0x07u},
 587:Generated_Source\PSoC5/cyfitter_cfg.c **** 			{0xA4u, 0x07u},
 588:Generated_Source\PSoC5/cyfitter_cfg.c **** 			{0xA6u, 0x08u},
 589:Generated_Source\PSoC5/cyfitter_cfg.c **** 			{0xA7u, 0x01u},
 590:Generated_Source\PSoC5/cyfitter_cfg.c **** 			{0xA9u, 0x01u},
 591:Generated_Source\PSoC5/cyfitter_cfg.c **** 			{0xABu, 0x06u},
 592:Generated_Source\PSoC5/cyfitter_cfg.c **** 			{0xB0u, 0x08u},
 593:Generated_Source\PSoC5/cyfitter_cfg.c **** 			{0xB1u, 0x07u},
 594:Generated_Source\PSoC5/cyfitter_cfg.c **** 			{0xB4u, 0x07u},
 595:Generated_Source\PSoC5/cyfitter_cfg.c **** 			{0xB5u, 0x08u},
 596:Generated_Source\PSoC5/cyfitter_cfg.c **** 			{0xB8u, 0x02u},
 597:Generated_Source\PSoC5/cyfitter_cfg.c **** 			{0xBBu, 0x02u},
 598:Generated_Source\PSoC5/cyfitter_cfg.c **** 			{0xBFu, 0x10u},
 599:Generated_Source\PSoC5/cyfitter_cfg.c **** 			{0xD4u, 0x18u},
 600:Generated_Source\PSoC5/cyfitter_cfg.c **** 			{0xD6u, 0x04u},
 601:Generated_Source\PSoC5/cyfitter_cfg.c **** 			{0xD8u, 0x04u},
 602:Generated_Source\PSoC5/cyfitter_cfg.c **** 			{0xD9u, 0x04u},
 603:Generated_Source\PSoC5/cyfitter_cfg.c **** 			{0xDBu, 0x04u},
 604:Generated_Source\PSoC5/cyfitter_cfg.c **** 			{0xDFu, 0x01u},
 605:Generated_Source\PSoC5/cyfitter_cfg.c **** 			{0x00u, 0x80u},
 606:Generated_Source\PSoC5/cyfitter_cfg.c **** 			{0x01u, 0x28u},
 607:Generated_Source\PSoC5/cyfitter_cfg.c **** 			{0x04u, 0x02u},
 608:Generated_Source\PSoC5/cyfitter_cfg.c **** 			{0x07u, 0x10u},
 609:Generated_Source\PSoC5/cyfitter_cfg.c **** 			{0x08u, 0x80u},
 610:Generated_Source\PSoC5/cyfitter_cfg.c **** 			{0x09u, 0x08u},
 611:Generated_Source\PSoC5/cyfitter_cfg.c **** 			{0x0Bu, 0x04u},
ARM GAS  C:\Users\Dell\AppData\Local\Temp\ccSPIrXH.s 			page 20


 612:Generated_Source\PSoC5/cyfitter_cfg.c **** 			{0x0Du, 0x02u},
 613:Generated_Source\PSoC5/cyfitter_cfg.c **** 			{0x0Eu, 0x01u},
 614:Generated_Source\PSoC5/cyfitter_cfg.c **** 			{0x0Fu, 0x20u},
 615:Generated_Source\PSoC5/cyfitter_cfg.c **** 			{0x12u, 0x50u},
 616:Generated_Source\PSoC5/cyfitter_cfg.c **** 			{0x13u, 0x01u},
 617:Generated_Source\PSoC5/cyfitter_cfg.c **** 			{0x17u, 0x20u},
 618:Generated_Source\PSoC5/cyfitter_cfg.c **** 			{0x1Au, 0x84u},
 619:Generated_Source\PSoC5/cyfitter_cfg.c **** 			{0x1Du, 0x02u},
 620:Generated_Source\PSoC5/cyfitter_cfg.c **** 			{0x1Fu, 0x01u},
 621:Generated_Source\PSoC5/cyfitter_cfg.c **** 			{0x20u, 0x84u},
 622:Generated_Source\PSoC5/cyfitter_cfg.c **** 			{0x21u, 0x01u},
 623:Generated_Source\PSoC5/cyfitter_cfg.c **** 			{0x27u, 0x14u},
 624:Generated_Source\PSoC5/cyfitter_cfg.c **** 			{0x28u, 0x80u},
 625:Generated_Source\PSoC5/cyfitter_cfg.c **** 			{0x29u, 0x28u},
 626:Generated_Source\PSoC5/cyfitter_cfg.c **** 			{0x2Eu, 0x01u},
 627:Generated_Source\PSoC5/cyfitter_cfg.c **** 			{0x2Fu, 0x49u},
 628:Generated_Source\PSoC5/cyfitter_cfg.c **** 			{0x31u, 0x08u},
 629:Generated_Source\PSoC5/cyfitter_cfg.c **** 			{0x32u, 0x60u},
 630:Generated_Source\PSoC5/cyfitter_cfg.c **** 			{0x36u, 0x02u},
 631:Generated_Source\PSoC5/cyfitter_cfg.c **** 			{0x37u, 0x14u},
 632:Generated_Source\PSoC5/cyfitter_cfg.c **** 			{0x39u, 0x02u},
 633:Generated_Source\PSoC5/cyfitter_cfg.c **** 			{0x3Au, 0x50u},
 634:Generated_Source\PSoC5/cyfitter_cfg.c **** 			{0x3Bu, 0x14u},
 635:Generated_Source\PSoC5/cyfitter_cfg.c **** 			{0x3Eu, 0x08u},
 636:Generated_Source\PSoC5/cyfitter_cfg.c **** 			{0x3Fu, 0x02u},
 637:Generated_Source\PSoC5/cyfitter_cfg.c **** 			{0x45u, 0x12u},
 638:Generated_Source\PSoC5/cyfitter_cfg.c **** 			{0x46u, 0x08u},
 639:Generated_Source\PSoC5/cyfitter_cfg.c **** 			{0x47u, 0x20u},
 640:Generated_Source\PSoC5/cyfitter_cfg.c **** 			{0x4Cu, 0x01u},
 641:Generated_Source\PSoC5/cyfitter_cfg.c **** 			{0x4Du, 0x04u},
 642:Generated_Source\PSoC5/cyfitter_cfg.c **** 			{0x4Eu, 0x02u},
 643:Generated_Source\PSoC5/cyfitter_cfg.c **** 			{0x57u, 0x11u},
 644:Generated_Source\PSoC5/cyfitter_cfg.c **** 			{0x59u, 0x01u},
 645:Generated_Source\PSoC5/cyfitter_cfg.c **** 			{0x60u, 0x04u},
 646:Generated_Source\PSoC5/cyfitter_cfg.c **** 			{0x62u, 0x80u},
 647:Generated_Source\PSoC5/cyfitter_cfg.c **** 			{0x63u, 0x40u},
 648:Generated_Source\PSoC5/cyfitter_cfg.c **** 			{0x87u, 0x40u},
 649:Generated_Source\PSoC5/cyfitter_cfg.c **** 			{0xC0u, 0x37u},
 650:Generated_Source\PSoC5/cyfitter_cfg.c **** 			{0xC2u, 0xB7u},
 651:Generated_Source\PSoC5/cyfitter_cfg.c **** 			{0xC4u, 0x4Cu},
 652:Generated_Source\PSoC5/cyfitter_cfg.c **** 			{0xCAu, 0xB7u},
 653:Generated_Source\PSoC5/cyfitter_cfg.c **** 			{0xCCu, 0xEEu},
 654:Generated_Source\PSoC5/cyfitter_cfg.c **** 			{0xCEu, 0xCFu},
 655:Generated_Source\PSoC5/cyfitter_cfg.c **** 			{0xD0u, 0xA0u},
 656:Generated_Source\PSoC5/cyfitter_cfg.c **** 			{0xD2u, 0x10u},
 657:Generated_Source\PSoC5/cyfitter_cfg.c **** 			{0xD6u, 0x01u},
 658:Generated_Source\PSoC5/cyfitter_cfg.c **** 			{0xD8u, 0x0Du},
 659:Generated_Source\PSoC5/cyfitter_cfg.c **** 			{0x39u, 0x20u},
 660:Generated_Source\PSoC5/cyfitter_cfg.c **** 			{0x3Fu, 0x10u},
 661:Generated_Source\PSoC5/cyfitter_cfg.c **** 			{0x59u, 0x04u},
 662:Generated_Source\PSoC5/cyfitter_cfg.c **** 			{0x5Fu, 0x01u},
 663:Generated_Source\PSoC5/cyfitter_cfg.c **** 			{0x22u, 0x20u},
 664:Generated_Source\PSoC5/cyfitter_cfg.c **** 			{0x23u, 0x08u},
 665:Generated_Source\PSoC5/cyfitter_cfg.c **** 			{0x8Au, 0x20u},
 666:Generated_Source\PSoC5/cyfitter_cfg.c **** 			{0x9Fu, 0x08u},
 667:Generated_Source\PSoC5/cyfitter_cfg.c **** 			{0xE0u, 0x08u},
 668:Generated_Source\PSoC5/cyfitter_cfg.c **** 			{0xE2u, 0x20u},
ARM GAS  C:\Users\Dell\AppData\Local\Temp\ccSPIrXH.s 			page 21


 669:Generated_Source\PSoC5/cyfitter_cfg.c **** 			{0xE4u, 0x01u},
 670:Generated_Source\PSoC5/cyfitter_cfg.c **** 			{0xEAu, 0x01u},
 671:Generated_Source\PSoC5/cyfitter_cfg.c **** 			{0x9Fu, 0x08u},
 672:Generated_Source\PSoC5/cyfitter_cfg.c **** 			{0xE2u, 0x02u},
 673:Generated_Source\PSoC5/cyfitter_cfg.c **** 			{0xE6u, 0x20u},
 674:Generated_Source\PSoC5/cyfitter_cfg.c **** 			{0x06u, 0x03u},
 675:Generated_Source\PSoC5/cyfitter_cfg.c **** 			{0x0Au, 0x02u},
 676:Generated_Source\PSoC5/cyfitter_cfg.c **** 			{0x0Bu, 0x02u},
 677:Generated_Source\PSoC5/cyfitter_cfg.c **** 			{0x0Cu, 0x06u},
 678:Generated_Source\PSoC5/cyfitter_cfg.c **** 			{0x0Eu, 0x01u},
 679:Generated_Source\PSoC5/cyfitter_cfg.c **** 			{0x13u, 0x02u},
 680:Generated_Source\PSoC5/cyfitter_cfg.c **** 			{0x1Eu, 0x01u},
 681:Generated_Source\PSoC5/cyfitter_cfg.c **** 			{0x23u, 0x02u},
 682:Generated_Source\PSoC5/cyfitter_cfg.c **** 			{0x25u, 0x01u},
 683:Generated_Source\PSoC5/cyfitter_cfg.c **** 			{0x29u, 0x02u},
 684:Generated_Source\PSoC5/cyfitter_cfg.c **** 			{0x2Au, 0x06u},
 685:Generated_Source\PSoC5/cyfitter_cfg.c **** 			{0x2Du, 0x02u},
 686:Generated_Source\PSoC5/cyfitter_cfg.c **** 			{0x2Eu, 0x05u},
 687:Generated_Source\PSoC5/cyfitter_cfg.c **** 			{0x32u, 0x07u},
 688:Generated_Source\PSoC5/cyfitter_cfg.c **** 			{0x35u, 0x01u},
 689:Generated_Source\PSoC5/cyfitter_cfg.c **** 			{0x37u, 0x02u},
 690:Generated_Source\PSoC5/cyfitter_cfg.c **** 			{0x3Au, 0x08u},
 691:Generated_Source\PSoC5/cyfitter_cfg.c **** 			{0x3Fu, 0x50u},
 692:Generated_Source\PSoC5/cyfitter_cfg.c **** 			{0x54u, 0x01u},
 693:Generated_Source\PSoC5/cyfitter_cfg.c **** 			{0x58u, 0x04u},
 694:Generated_Source\PSoC5/cyfitter_cfg.c **** 			{0x59u, 0x04u},
 695:Generated_Source\PSoC5/cyfitter_cfg.c **** 			{0x5Bu, 0x04u},
 696:Generated_Source\PSoC5/cyfitter_cfg.c **** 			{0x5Fu, 0x01u},
 697:Generated_Source\PSoC5/cyfitter_cfg.c **** 			{0x84u, 0x04u},
 698:Generated_Source\PSoC5/cyfitter_cfg.c **** 			{0x85u, 0x14u},
 699:Generated_Source\PSoC5/cyfitter_cfg.c **** 			{0x87u, 0x89u},
 700:Generated_Source\PSoC5/cyfitter_cfg.c **** 			{0x88u, 0x02u},
 701:Generated_Source\PSoC5/cyfitter_cfg.c **** 			{0x89u, 0x1Fu},
 702:Generated_Source\PSoC5/cyfitter_cfg.c **** 			{0x8Cu, 0x02u},
 703:Generated_Source\PSoC5/cyfitter_cfg.c **** 			{0x8Du, 0x01u},
 704:Generated_Source\PSoC5/cyfitter_cfg.c **** 			{0x8Fu, 0x46u},
 705:Generated_Source\PSoC5/cyfitter_cfg.c **** 			{0x90u, 0x04u},
 706:Generated_Source\PSoC5/cyfitter_cfg.c **** 			{0x94u, 0x02u},
 707:Generated_Source\PSoC5/cyfitter_cfg.c **** 			{0x95u, 0x20u},
 708:Generated_Source\PSoC5/cyfitter_cfg.c **** 			{0x99u, 0x1Fu},
 709:Generated_Source\PSoC5/cyfitter_cfg.c **** 			{0x9Au, 0x01u},
 710:Generated_Source\PSoC5/cyfitter_cfg.c **** 			{0x9Cu, 0x02u},
 711:Generated_Source\PSoC5/cyfitter_cfg.c **** 			{0xA2u, 0x01u},
 712:Generated_Source\PSoC5/cyfitter_cfg.c **** 			{0xA4u, 0x04u},
 713:Generated_Source\PSoC5/cyfitter_cfg.c **** 			{0xA5u, 0x0Au},
 714:Generated_Source\PSoC5/cyfitter_cfg.c **** 			{0xA7u, 0x91u},
 715:Generated_Source\PSoC5/cyfitter_cfg.c **** 			{0xB0u, 0x02u},
 716:Generated_Source\PSoC5/cyfitter_cfg.c **** 			{0xB1u, 0x07u},
 717:Generated_Source\PSoC5/cyfitter_cfg.c **** 			{0xB2u, 0x04u},
 718:Generated_Source\PSoC5/cyfitter_cfg.c **** 			{0xB3u, 0x18u},
 719:Generated_Source\PSoC5/cyfitter_cfg.c **** 			{0xB4u, 0x01u},
 720:Generated_Source\PSoC5/cyfitter_cfg.c **** 			{0xB5u, 0x20u},
 721:Generated_Source\PSoC5/cyfitter_cfg.c **** 			{0xB7u, 0xC0u},
 722:Generated_Source\PSoC5/cyfitter_cfg.c **** 			{0xBEu, 0x11u},
 723:Generated_Source\PSoC5/cyfitter_cfg.c **** 			{0xBFu, 0x50u},
 724:Generated_Source\PSoC5/cyfitter_cfg.c **** 			{0xC0u, 0x63u},
 725:Generated_Source\PSoC5/cyfitter_cfg.c **** 			{0xC1u, 0x04u},
ARM GAS  C:\Users\Dell\AppData\Local\Temp\ccSPIrXH.s 			page 22


 726:Generated_Source\PSoC5/cyfitter_cfg.c **** 			{0xC2u, 0x02u},
 727:Generated_Source\PSoC5/cyfitter_cfg.c **** 			{0xC4u, 0x01u},
 728:Generated_Source\PSoC5/cyfitter_cfg.c **** 			{0xC5u, 0xCEu},
 729:Generated_Source\PSoC5/cyfitter_cfg.c **** 			{0xC8u, 0x03u},
 730:Generated_Source\PSoC5/cyfitter_cfg.c **** 			{0xC9u, 0xFFu},
 731:Generated_Source\PSoC5/cyfitter_cfg.c **** 			{0xCAu, 0xFFu},
 732:Generated_Source\PSoC5/cyfitter_cfg.c **** 			{0xCBu, 0xFFu},
 733:Generated_Source\PSoC5/cyfitter_cfg.c **** 			{0xCCu, 0x62u},
 734:Generated_Source\PSoC5/cyfitter_cfg.c **** 			{0xCDu, 0xA0u},
 735:Generated_Source\PSoC5/cyfitter_cfg.c **** 			{0xCEu, 0xF0u},
 736:Generated_Source\PSoC5/cyfitter_cfg.c **** 			{0xCFu, 0x41u},
 737:Generated_Source\PSoC5/cyfitter_cfg.c **** 			{0xD0u, 0x0Cu},
 738:Generated_Source\PSoC5/cyfitter_cfg.c **** 			{0xD8u, 0x04u},
 739:Generated_Source\PSoC5/cyfitter_cfg.c **** 			{0xD9u, 0x04u},
 740:Generated_Source\PSoC5/cyfitter_cfg.c **** 			{0xDAu, 0x04u},
 741:Generated_Source\PSoC5/cyfitter_cfg.c **** 			{0xDFu, 0x01u},
 742:Generated_Source\PSoC5/cyfitter_cfg.c **** 			{0xE6u, 0x40u},
 743:Generated_Source\PSoC5/cyfitter_cfg.c **** 			{0xE7u, 0x02u},
 744:Generated_Source\PSoC5/cyfitter_cfg.c **** 			{0xE9u, 0x10u},
 745:Generated_Source\PSoC5/cyfitter_cfg.c **** 			{0xEAu, 0x30u},
 746:Generated_Source\PSoC5/cyfitter_cfg.c **** 			{0xEBu, 0x10u},
 747:Generated_Source\PSoC5/cyfitter_cfg.c **** 			{0xEDu, 0x10u},
 748:Generated_Source\PSoC5/cyfitter_cfg.c **** 			{0xEEu, 0x10u},
 749:Generated_Source\PSoC5/cyfitter_cfg.c **** 			{0xEFu, 0x12u},
 750:Generated_Source\PSoC5/cyfitter_cfg.c **** 			{0x00u, 0xA0u},
 751:Generated_Source\PSoC5/cyfitter_cfg.c **** 			{0x01u, 0x20u},
 752:Generated_Source\PSoC5/cyfitter_cfg.c **** 			{0x02u, 0x10u},
 753:Generated_Source\PSoC5/cyfitter_cfg.c **** 			{0x03u, 0x02u},
 754:Generated_Source\PSoC5/cyfitter_cfg.c **** 			{0x06u, 0x26u},
 755:Generated_Source\PSoC5/cyfitter_cfg.c **** 			{0x08u, 0x80u},
 756:Generated_Source\PSoC5/cyfitter_cfg.c **** 			{0x0Au, 0x65u},
 757:Generated_Source\PSoC5/cyfitter_cfg.c **** 			{0x0Bu, 0x10u},
 758:Generated_Source\PSoC5/cyfitter_cfg.c **** 			{0x0Fu, 0x02u},
 759:Generated_Source\PSoC5/cyfitter_cfg.c **** 			{0x10u, 0xA0u},
 760:Generated_Source\PSoC5/cyfitter_cfg.c **** 			{0x15u, 0x40u},
 761:Generated_Source\PSoC5/cyfitter_cfg.c **** 			{0x17u, 0x10u},
 762:Generated_Source\PSoC5/cyfitter_cfg.c **** 			{0x18u, 0x10u},
 763:Generated_Source\PSoC5/cyfitter_cfg.c **** 			{0x19u, 0x0Au},
 764:Generated_Source\PSoC5/cyfitter_cfg.c **** 			{0x1Au, 0x08u},
 765:Generated_Source\PSoC5/cyfitter_cfg.c **** 			{0x1Fu, 0x04u},
 766:Generated_Source\PSoC5/cyfitter_cfg.c **** 			{0x20u, 0x49u},
 767:Generated_Source\PSoC5/cyfitter_cfg.c **** 			{0x21u, 0x04u},
 768:Generated_Source\PSoC5/cyfitter_cfg.c **** 			{0x26u, 0x40u},
 769:Generated_Source\PSoC5/cyfitter_cfg.c **** 			{0x27u, 0x08u},
 770:Generated_Source\PSoC5/cyfitter_cfg.c **** 			{0x28u, 0x20u},
 771:Generated_Source\PSoC5/cyfitter_cfg.c **** 			{0x2Du, 0x44u},
 772:Generated_Source\PSoC5/cyfitter_cfg.c **** 			{0x2Eu, 0x22u},
 773:Generated_Source\PSoC5/cyfitter_cfg.c **** 			{0x2Fu, 0x45u},
 774:Generated_Source\PSoC5/cyfitter_cfg.c **** 			{0x30u, 0x20u},
 775:Generated_Source\PSoC5/cyfitter_cfg.c **** 			{0x33u, 0x04u},
 776:Generated_Source\PSoC5/cyfitter_cfg.c **** 			{0x36u, 0x02u},
 777:Generated_Source\PSoC5/cyfitter_cfg.c **** 			{0x38u, 0x44u},
 778:Generated_Source\PSoC5/cyfitter_cfg.c **** 			{0x39u, 0x28u},
 779:Generated_Source\PSoC5/cyfitter_cfg.c **** 			{0x3Au, 0x10u},
 780:Generated_Source\PSoC5/cyfitter_cfg.c **** 			{0x3Du, 0x10u},
 781:Generated_Source\PSoC5/cyfitter_cfg.c **** 			{0x3Fu, 0x20u},
 782:Generated_Source\PSoC5/cyfitter_cfg.c **** 			{0x40u, 0x91u},
ARM GAS  C:\Users\Dell\AppData\Local\Temp\ccSPIrXH.s 			page 23


 783:Generated_Source\PSoC5/cyfitter_cfg.c **** 			{0x42u, 0x04u},
 784:Generated_Source\PSoC5/cyfitter_cfg.c **** 			{0x48u, 0x80u},
 785:Generated_Source\PSoC5/cyfitter_cfg.c **** 			{0x49u, 0x20u},
 786:Generated_Source\PSoC5/cyfitter_cfg.c **** 			{0x4Au, 0x20u},
 787:Generated_Source\PSoC5/cyfitter_cfg.c **** 			{0x5Cu, 0x02u},
 788:Generated_Source\PSoC5/cyfitter_cfg.c **** 			{0x5Du, 0x10u},
 789:Generated_Source\PSoC5/cyfitter_cfg.c **** 			{0x5Eu, 0x80u},
 790:Generated_Source\PSoC5/cyfitter_cfg.c **** 			{0x5Fu, 0x08u},
 791:Generated_Source\PSoC5/cyfitter_cfg.c **** 			{0x7Du, 0x20u},
 792:Generated_Source\PSoC5/cyfitter_cfg.c **** 			{0x7Fu, 0x04u},
 793:Generated_Source\PSoC5/cyfitter_cfg.c **** 			{0x84u, 0x04u},
 794:Generated_Source\PSoC5/cyfitter_cfg.c **** 			{0x8Au, 0x84u},
 795:Generated_Source\PSoC5/cyfitter_cfg.c **** 			{0x91u, 0x04u},
 796:Generated_Source\PSoC5/cyfitter_cfg.c **** 			{0x92u, 0x04u},
 797:Generated_Source\PSoC5/cyfitter_cfg.c **** 			{0x93u, 0x02u},
 798:Generated_Source\PSoC5/cyfitter_cfg.c **** 			{0x97u, 0x95u},
 799:Generated_Source\PSoC5/cyfitter_cfg.c **** 			{0x9Bu, 0x14u},
 800:Generated_Source\PSoC5/cyfitter_cfg.c **** 			{0x9Cu, 0x80u},
 801:Generated_Source\PSoC5/cyfitter_cfg.c **** 			{0x9Du, 0x29u},
 802:Generated_Source\PSoC5/cyfitter_cfg.c **** 			{0xA0u, 0x40u},
 803:Generated_Source\PSoC5/cyfitter_cfg.c **** 			{0xA3u, 0x10u},
 804:Generated_Source\PSoC5/cyfitter_cfg.c **** 			{0xA5u, 0x18u},
 805:Generated_Source\PSoC5/cyfitter_cfg.c **** 			{0xA6u, 0xA2u},
 806:Generated_Source\PSoC5/cyfitter_cfg.c **** 			{0xA7u, 0x08u},
 807:Generated_Source\PSoC5/cyfitter_cfg.c **** 			{0xC0u, 0xE7u},
 808:Generated_Source\PSoC5/cyfitter_cfg.c **** 			{0xC2u, 0x8Fu},
 809:Generated_Source\PSoC5/cyfitter_cfg.c **** 			{0xC4u, 0xCCu},
 810:Generated_Source\PSoC5/cyfitter_cfg.c **** 			{0xCAu, 0xF2u},
 811:Generated_Source\PSoC5/cyfitter_cfg.c **** 			{0xCCu, 0x86u},
 812:Generated_Source\PSoC5/cyfitter_cfg.c **** 			{0xCEu, 0x2Eu},
 813:Generated_Source\PSoC5/cyfitter_cfg.c **** 			{0xD0u, 0x0Fu},
 814:Generated_Source\PSoC5/cyfitter_cfg.c **** 			{0xD2u, 0x04u},
 815:Generated_Source\PSoC5/cyfitter_cfg.c **** 			{0xD6u, 0xF0u},
 816:Generated_Source\PSoC5/cyfitter_cfg.c **** 			{0xE2u, 0x02u},
 817:Generated_Source\PSoC5/cyfitter_cfg.c **** 			{0xE4u, 0x02u},
 818:Generated_Source\PSoC5/cyfitter_cfg.c **** 			{0xE6u, 0x20u},
 819:Generated_Source\PSoC5/cyfitter_cfg.c **** 			{0x01u, 0x08u},
 820:Generated_Source\PSoC5/cyfitter_cfg.c **** 			{0x04u, 0x02u},
 821:Generated_Source\PSoC5/cyfitter_cfg.c **** 			{0x05u, 0x04u},
 822:Generated_Source\PSoC5/cyfitter_cfg.c **** 			{0x0Au, 0x03u},
 823:Generated_Source\PSoC5/cyfitter_cfg.c **** 			{0x0Bu, 0x63u},
 824:Generated_Source\PSoC5/cyfitter_cfg.c **** 			{0x0Du, 0x03u},
 825:Generated_Source\PSoC5/cyfitter_cfg.c **** 			{0x0Eu, 0x03u},
 826:Generated_Source\PSoC5/cyfitter_cfg.c **** 			{0x11u, 0xEFu},
 827:Generated_Source\PSoC5/cyfitter_cfg.c **** 			{0x15u, 0x0Cu},
 828:Generated_Source\PSoC5/cyfitter_cfg.c **** 			{0x16u, 0x03u},
 829:Generated_Source\PSoC5/cyfitter_cfg.c **** 			{0x19u, 0x8Cu},
 830:Generated_Source\PSoC5/cyfitter_cfg.c **** 			{0x1Bu, 0x43u},
 831:Generated_Source\PSoC5/cyfitter_cfg.c **** 			{0x1Cu, 0x03u},
 832:Generated_Source\PSoC5/cyfitter_cfg.c **** 			{0x1Fu, 0x80u},
 833:Generated_Source\PSoC5/cyfitter_cfg.c **** 			{0x20u, 0x03u},
 834:Generated_Source\PSoC5/cyfitter_cfg.c **** 			{0x21u, 0x81u},
 835:Generated_Source\PSoC5/cyfitter_cfg.c **** 			{0x23u, 0x10u},
 836:Generated_Source\PSoC5/cyfitter_cfg.c **** 			{0x25u, 0x02u},
 837:Generated_Source\PSoC5/cyfitter_cfg.c **** 			{0x28u, 0x03u},
 838:Generated_Source\PSoC5/cyfitter_cfg.c **** 			{0x29u, 0xE3u},
 839:Generated_Source\PSoC5/cyfitter_cfg.c **** 			{0x2Bu, 0x0Cu},
ARM GAS  C:\Users\Dell\AppData\Local\Temp\ccSPIrXH.s 			page 24


 840:Generated_Source\PSoC5/cyfitter_cfg.c **** 			{0x2Cu, 0x01u},
 841:Generated_Source\PSoC5/cyfitter_cfg.c **** 			{0x2Du, 0x8Fu},
 842:Generated_Source\PSoC5/cyfitter_cfg.c **** 			{0x2Fu, 0x20u},
 843:Generated_Source\PSoC5/cyfitter_cfg.c **** 			{0x30u, 0x03u},
 844:Generated_Source\PSoC5/cyfitter_cfg.c **** 			{0x33u, 0x0Fu},
 845:Generated_Source\PSoC5/cyfitter_cfg.c **** 			{0x35u, 0xECu},
 846:Generated_Source\PSoC5/cyfitter_cfg.c **** 			{0x37u, 0x10u},
 847:Generated_Source\PSoC5/cyfitter_cfg.c **** 			{0x3Au, 0x80u},
 848:Generated_Source\PSoC5/cyfitter_cfg.c **** 			{0x3Bu, 0x28u},
 849:Generated_Source\PSoC5/cyfitter_cfg.c **** 			{0x56u, 0x02u},
 850:Generated_Source\PSoC5/cyfitter_cfg.c **** 			{0x57u, 0x13u},
 851:Generated_Source\PSoC5/cyfitter_cfg.c **** 			{0x58u, 0x04u},
 852:Generated_Source\PSoC5/cyfitter_cfg.c **** 			{0x59u, 0x04u},
 853:Generated_Source\PSoC5/cyfitter_cfg.c **** 			{0x5Bu, 0x04u},
 854:Generated_Source\PSoC5/cyfitter_cfg.c **** 			{0x5Fu, 0x01u},
 855:Generated_Source\PSoC5/cyfitter_cfg.c **** 			{0x83u, 0x01u},
 856:Generated_Source\PSoC5/cyfitter_cfg.c **** 			{0x86u, 0x0Cu},
 857:Generated_Source\PSoC5/cyfitter_cfg.c **** 			{0x9Cu, 0x0Cu},
 858:Generated_Source\PSoC5/cyfitter_cfg.c **** 			{0x9Eu, 0x03u},
 859:Generated_Source\PSoC5/cyfitter_cfg.c **** 			{0xA1u, 0x02u},
 860:Generated_Source\PSoC5/cyfitter_cfg.c **** 			{0xA2u, 0x03u},
 861:Generated_Source\PSoC5/cyfitter_cfg.c **** 			{0xA4u, 0x01u},
 862:Generated_Source\PSoC5/cyfitter_cfg.c **** 			{0xA6u, 0x0Eu},
 863:Generated_Source\PSoC5/cyfitter_cfg.c **** 			{0xA9u, 0x03u},
 864:Generated_Source\PSoC5/cyfitter_cfg.c **** 			{0xAAu, 0x08u},
 865:Generated_Source\PSoC5/cyfitter_cfg.c **** 			{0xACu, 0x01u},
 866:Generated_Source\PSoC5/cyfitter_cfg.c **** 			{0xADu, 0x03u},
 867:Generated_Source\PSoC5/cyfitter_cfg.c **** 			{0xAEu, 0x06u},
 868:Generated_Source\PSoC5/cyfitter_cfg.c **** 			{0xB1u, 0x03u},
 869:Generated_Source\PSoC5/cyfitter_cfg.c **** 			{0xB6u, 0x0Fu},
 870:Generated_Source\PSoC5/cyfitter_cfg.c **** 			{0xB9u, 0x02u},
 871:Generated_Source\PSoC5/cyfitter_cfg.c **** 			{0xBAu, 0x80u},
 872:Generated_Source\PSoC5/cyfitter_cfg.c **** 			{0xBFu, 0x01u},
 873:Generated_Source\PSoC5/cyfitter_cfg.c **** 			{0xC0u, 0x01u},
 874:Generated_Source\PSoC5/cyfitter_cfg.c **** 			{0xC7u, 0x04u},
 875:Generated_Source\PSoC5/cyfitter_cfg.c **** 			{0xC9u, 0xFFu},
 876:Generated_Source\PSoC5/cyfitter_cfg.c **** 			{0xCAu, 0x07u},
 877:Generated_Source\PSoC5/cyfitter_cfg.c **** 			{0xCBu, 0xFFu},
 878:Generated_Source\PSoC5/cyfitter_cfg.c **** 			{0xCCu, 0x40u},
 879:Generated_Source\PSoC5/cyfitter_cfg.c **** 			{0xCDu, 0x20u},
 880:Generated_Source\PSoC5/cyfitter_cfg.c **** 			{0xCEu, 0xF0u},
 881:Generated_Source\PSoC5/cyfitter_cfg.c **** 			{0xCFu, 0x05u},
 882:Generated_Source\PSoC5/cyfitter_cfg.c **** 			{0xD0u, 0x08u},
 883:Generated_Source\PSoC5/cyfitter_cfg.c **** 			{0xD8u, 0x04u},
 884:Generated_Source\PSoC5/cyfitter_cfg.c **** 			{0xD9u, 0x04u},
 885:Generated_Source\PSoC5/cyfitter_cfg.c **** 			{0xDAu, 0x04u},
 886:Generated_Source\PSoC5/cyfitter_cfg.c **** 			{0xDFu, 0x01u},
 887:Generated_Source\PSoC5/cyfitter_cfg.c **** 			{0xE0u, 0x40u},
 888:Generated_Source\PSoC5/cyfitter_cfg.c **** 			{0xE1u, 0xA8u},
 889:Generated_Source\PSoC5/cyfitter_cfg.c **** 			{0xE2u, 0x40u},
 890:Generated_Source\PSoC5/cyfitter_cfg.c **** 			{0xE3u, 0x20u},
 891:Generated_Source\PSoC5/cyfitter_cfg.c **** 			{0x00u, 0x14u},
 892:Generated_Source\PSoC5/cyfitter_cfg.c **** 			{0x01u, 0x08u},
 893:Generated_Source\PSoC5/cyfitter_cfg.c **** 			{0x03u, 0x02u},
 894:Generated_Source\PSoC5/cyfitter_cfg.c **** 			{0x07u, 0x10u},
 895:Generated_Source\PSoC5/cyfitter_cfg.c **** 			{0x0Au, 0x21u},
 896:Generated_Source\PSoC5/cyfitter_cfg.c **** 			{0x0Eu, 0x02u},
ARM GAS  C:\Users\Dell\AppData\Local\Temp\ccSPIrXH.s 			page 25


 897:Generated_Source\PSoC5/cyfitter_cfg.c **** 			{0x11u, 0x40u},
 898:Generated_Source\PSoC5/cyfitter_cfg.c **** 			{0x12u, 0x48u},
 899:Generated_Source\PSoC5/cyfitter_cfg.c **** 			{0x14u, 0x01u},
 900:Generated_Source\PSoC5/cyfitter_cfg.c **** 			{0x15u, 0x01u},
 901:Generated_Source\PSoC5/cyfitter_cfg.c **** 			{0x16u, 0x24u},
 902:Generated_Source\PSoC5/cyfitter_cfg.c **** 			{0x19u, 0x01u},
 903:Generated_Source\PSoC5/cyfitter_cfg.c **** 			{0x1Au, 0x03u},
 904:Generated_Source\PSoC5/cyfitter_cfg.c **** 			{0x1Eu, 0x02u},
 905:Generated_Source\PSoC5/cyfitter_cfg.c **** 			{0x1Fu, 0x40u},
 906:Generated_Source\PSoC5/cyfitter_cfg.c **** 			{0x20u, 0x20u},
 907:Generated_Source\PSoC5/cyfitter_cfg.c **** 			{0x21u, 0x80u},
 908:Generated_Source\PSoC5/cyfitter_cfg.c **** 			{0x22u, 0x18u},
 909:Generated_Source\PSoC5/cyfitter_cfg.c **** 			{0x27u, 0x40u},
 910:Generated_Source\PSoC5/cyfitter_cfg.c **** 			{0x29u, 0x28u},
 911:Generated_Source\PSoC5/cyfitter_cfg.c **** 			{0x2Au, 0x02u},
 912:Generated_Source\PSoC5/cyfitter_cfg.c **** 			{0x2Bu, 0x02u},
 913:Generated_Source\PSoC5/cyfitter_cfg.c **** 			{0x2Cu, 0x01u},
 914:Generated_Source\PSoC5/cyfitter_cfg.c **** 			{0x2Eu, 0x20u},
 915:Generated_Source\PSoC5/cyfitter_cfg.c **** 			{0x2Fu, 0x45u},
 916:Generated_Source\PSoC5/cyfitter_cfg.c **** 			{0x31u, 0x88u},
 917:Generated_Source\PSoC5/cyfitter_cfg.c **** 			{0x32u, 0x11u},
 918:Generated_Source\PSoC5/cyfitter_cfg.c **** 			{0x38u, 0x50u},
 919:Generated_Source\PSoC5/cyfitter_cfg.c **** 			{0x3Au, 0x40u},
 920:Generated_Source\PSoC5/cyfitter_cfg.c **** 			{0x3Bu, 0x05u},
 921:Generated_Source\PSoC5/cyfitter_cfg.c **** 			{0x3Fu, 0x02u},
 922:Generated_Source\PSoC5/cyfitter_cfg.c **** 			{0x47u, 0x40u},
 923:Generated_Source\PSoC5/cyfitter_cfg.c **** 			{0x4Du, 0x01u},
 924:Generated_Source\PSoC5/cyfitter_cfg.c **** 			{0x4Fu, 0x02u},
 925:Generated_Source\PSoC5/cyfitter_cfg.c **** 			{0x56u, 0x04u},
 926:Generated_Source\PSoC5/cyfitter_cfg.c **** 			{0x57u, 0x08u},
 927:Generated_Source\PSoC5/cyfitter_cfg.c **** 			{0x59u, 0x02u},
 928:Generated_Source\PSoC5/cyfitter_cfg.c **** 			{0x68u, 0x20u},
 929:Generated_Source\PSoC5/cyfitter_cfg.c **** 			{0x69u, 0x20u},
 930:Generated_Source\PSoC5/cyfitter_cfg.c **** 			{0x6Au, 0x40u},
 931:Generated_Source\PSoC5/cyfitter_cfg.c **** 			{0x71u, 0x08u},
 932:Generated_Source\PSoC5/cyfitter_cfg.c **** 			{0x73u, 0x05u},
 933:Generated_Source\PSoC5/cyfitter_cfg.c **** 			{0x7Au, 0x02u},
 934:Generated_Source\PSoC5/cyfitter_cfg.c **** 			{0x7Bu, 0x01u},
 935:Generated_Source\PSoC5/cyfitter_cfg.c **** 			{0x8Cu, 0x20u},
 936:Generated_Source\PSoC5/cyfitter_cfg.c **** 			{0x8Du, 0x40u},
 937:Generated_Source\PSoC5/cyfitter_cfg.c **** 			{0x8Eu, 0x02u},
 938:Generated_Source\PSoC5/cyfitter_cfg.c **** 			{0x90u, 0x54u},
 939:Generated_Source\PSoC5/cyfitter_cfg.c **** 			{0x93u, 0x0Au},
 940:Generated_Source\PSoC5/cyfitter_cfg.c **** 			{0x95u, 0x20u},
 941:Generated_Source\PSoC5/cyfitter_cfg.c **** 			{0x96u, 0x61u},
 942:Generated_Source\PSoC5/cyfitter_cfg.c **** 			{0x97u, 0x85u},
 943:Generated_Source\PSoC5/cyfitter_cfg.c **** 			{0x99u, 0x22u},
 944:Generated_Source\PSoC5/cyfitter_cfg.c **** 			{0x9Bu, 0x10u},
 945:Generated_Source\PSoC5/cyfitter_cfg.c **** 			{0x9Cu, 0x20u},
 946:Generated_Source\PSoC5/cyfitter_cfg.c **** 			{0x9Du, 0x01u},
 947:Generated_Source\PSoC5/cyfitter_cfg.c **** 			{0x9Eu, 0x04u},
 948:Generated_Source\PSoC5/cyfitter_cfg.c **** 			{0xA3u, 0x02u},
 949:Generated_Source\PSoC5/cyfitter_cfg.c **** 			{0xA4u, 0x30u},
 950:Generated_Source\PSoC5/cyfitter_cfg.c **** 			{0xA5u, 0x08u},
 951:Generated_Source\PSoC5/cyfitter_cfg.c **** 			{0xA6u, 0x02u},
 952:Generated_Source\PSoC5/cyfitter_cfg.c **** 			{0xA7u, 0x09u},
 953:Generated_Source\PSoC5/cyfitter_cfg.c **** 			{0xACu, 0x02u},
ARM GAS  C:\Users\Dell\AppData\Local\Temp\ccSPIrXH.s 			page 26


 954:Generated_Source\PSoC5/cyfitter_cfg.c **** 			{0xADu, 0x04u},
 955:Generated_Source\PSoC5/cyfitter_cfg.c **** 			{0xC0u, 0x27u},
 956:Generated_Source\PSoC5/cyfitter_cfg.c **** 			{0xC2u, 0x85u},
 957:Generated_Source\PSoC5/cyfitter_cfg.c **** 			{0xC4u, 0xFBu},
 958:Generated_Source\PSoC5/cyfitter_cfg.c **** 			{0xCAu, 0xBFu},
 959:Generated_Source\PSoC5/cyfitter_cfg.c **** 			{0xCCu, 0x0Fu},
 960:Generated_Source\PSoC5/cyfitter_cfg.c **** 			{0xCEu, 0x8Fu},
 961:Generated_Source\PSoC5/cyfitter_cfg.c **** 			{0xD0u, 0x10u},
 962:Generated_Source\PSoC5/cyfitter_cfg.c **** 			{0xD6u, 0x01u},
 963:Generated_Source\PSoC5/cyfitter_cfg.c **** 			{0xE0u, 0x08u},
 964:Generated_Source\PSoC5/cyfitter_cfg.c **** 			{0xE4u, 0x01u},
 965:Generated_Source\PSoC5/cyfitter_cfg.c **** 			{0xEAu, 0x01u},
 966:Generated_Source\PSoC5/cyfitter_cfg.c **** 			{0x32u, 0x20u},
 967:Generated_Source\PSoC5/cyfitter_cfg.c **** 			{0x36u, 0x80u},
 968:Generated_Source\PSoC5/cyfitter_cfg.c **** 			{0xCCu, 0x30u},
 969:Generated_Source\PSoC5/cyfitter_cfg.c **** 			{0x0Cu, 0x40u},
 970:Generated_Source\PSoC5/cyfitter_cfg.c **** 			{0x84u, 0x40u},
 971:Generated_Source\PSoC5/cyfitter_cfg.c **** 			{0xA6u, 0xA0u},
 972:Generated_Source\PSoC5/cyfitter_cfg.c **** 			{0xC2u, 0x80u},
 973:Generated_Source\PSoC5/cyfitter_cfg.c **** 			{0xE4u, 0x10u},
 974:Generated_Source\PSoC5/cyfitter_cfg.c **** 			{0x12u, 0x80u},
 975:Generated_Source\PSoC5/cyfitter_cfg.c **** 			{0x3Eu, 0x10u},
 976:Generated_Source\PSoC5/cyfitter_cfg.c **** 			{0xA6u, 0xA0u},
 977:Generated_Source\PSoC5/cyfitter_cfg.c **** 			{0xC4u, 0x10u},
 978:Generated_Source\PSoC5/cyfitter_cfg.c **** 			{0xCEu, 0x20u},
 979:Generated_Source\PSoC5/cyfitter_cfg.c **** 			{0x86u, 0x20u},
 980:Generated_Source\PSoC5/cyfitter_cfg.c **** 			{0x96u, 0x10u},
 981:Generated_Source\PSoC5/cyfitter_cfg.c **** 			{0xA6u, 0x20u},
 982:Generated_Source\PSoC5/cyfitter_cfg.c **** 			{0xE6u, 0x40u},
 983:Generated_Source\PSoC5/cyfitter_cfg.c **** 			{0x67u, 0x20u},
 984:Generated_Source\PSoC5/cyfitter_cfg.c **** 			{0x84u, 0x08u},
 985:Generated_Source\PSoC5/cyfitter_cfg.c **** 			{0x8Au, 0x02u},
 986:Generated_Source\PSoC5/cyfitter_cfg.c **** 			{0x96u, 0x10u},
 987:Generated_Source\PSoC5/cyfitter_cfg.c **** 			{0xD8u, 0x80u},
 988:Generated_Source\PSoC5/cyfitter_cfg.c **** 			{0xE2u, 0x40u},
 989:Generated_Source\PSoC5/cyfitter_cfg.c **** 			{0x12u, 0x20u},
 990:Generated_Source\PSoC5/cyfitter_cfg.c **** 			{0x16u, 0x40u},
 991:Generated_Source\PSoC5/cyfitter_cfg.c **** 			{0x70u, 0x08u},
 992:Generated_Source\PSoC5/cyfitter_cfg.c **** 			{0x7Eu, 0x02u},
 993:Generated_Source\PSoC5/cyfitter_cfg.c **** 			{0x82u, 0x20u},
 994:Generated_Source\PSoC5/cyfitter_cfg.c **** 			{0x86u, 0x40u},
 995:Generated_Source\PSoC5/cyfitter_cfg.c **** 			{0x8Bu, 0x10u},
 996:Generated_Source\PSoC5/cyfitter_cfg.c **** 			{0x97u, 0x20u},
 997:Generated_Source\PSoC5/cyfitter_cfg.c **** 			{0xA0u, 0x08u},
 998:Generated_Source\PSoC5/cyfitter_cfg.c **** 			{0xA2u, 0x02u},
 999:Generated_Source\PSoC5/cyfitter_cfg.c **** 			{0xAAu, 0x10u},
1000:Generated_Source\PSoC5/cyfitter_cfg.c **** 			{0xC4u, 0x30u},
1001:Generated_Source\PSoC5/cyfitter_cfg.c **** 			{0xDCu, 0x80u},
1002:Generated_Source\PSoC5/cyfitter_cfg.c **** 			{0xDEu, 0x20u},
1003:Generated_Source\PSoC5/cyfitter_cfg.c **** 			{0xE0u, 0x10u},
1004:Generated_Source\PSoC5/cyfitter_cfg.c **** 			{0xE4u, 0x80u},
1005:Generated_Source\PSoC5/cyfitter_cfg.c **** 			{0xEAu, 0x80u},
1006:Generated_Source\PSoC5/cyfitter_cfg.c **** 			{0x13u, 0x24u},
1007:Generated_Source\PSoC5/cyfitter_cfg.c **** 			{0x16u, 0x80u},
1008:Generated_Source\PSoC5/cyfitter_cfg.c **** 			{0x7Bu, 0x10u},
1009:Generated_Source\PSoC5/cyfitter_cfg.c **** 			{0x7Fu, 0x40u},
1010:Generated_Source\PSoC5/cyfitter_cfg.c **** 			{0x87u, 0x44u},
ARM GAS  C:\Users\Dell\AppData\Local\Temp\ccSPIrXH.s 			page 27


1011:Generated_Source\PSoC5/cyfitter_cfg.c **** 			{0x8Au, 0x80u},
1012:Generated_Source\PSoC5/cyfitter_cfg.c **** 			{0xC4u, 0x0Eu},
1013:Generated_Source\PSoC5/cyfitter_cfg.c **** 			{0xDEu, 0x03u},
1014:Generated_Source\PSoC5/cyfitter_cfg.c **** 			{0xE6u, 0x04u},
1015:Generated_Source\PSoC5/cyfitter_cfg.c **** 			{0x12u, 0x80u},
1016:Generated_Source\PSoC5/cyfitter_cfg.c **** 			{0x73u, 0x40u},
1017:Generated_Source\PSoC5/cyfitter_cfg.c **** 			{0x83u, 0x10u},
1018:Generated_Source\PSoC5/cyfitter_cfg.c **** 			{0x87u, 0x40u},
1019:Generated_Source\PSoC5/cyfitter_cfg.c **** 			{0x8Eu, 0x80u},
1020:Generated_Source\PSoC5/cyfitter_cfg.c **** 			{0x93u, 0x40u},
1021:Generated_Source\PSoC5/cyfitter_cfg.c **** 			{0x97u, 0x80u},
1022:Generated_Source\PSoC5/cyfitter_cfg.c **** 			{0xA7u, 0x10u},
1023:Generated_Source\PSoC5/cyfitter_cfg.c **** 			{0xABu, 0x20u},
1024:Generated_Source\PSoC5/cyfitter_cfg.c **** 			{0xC4u, 0x08u},
1025:Generated_Source\PSoC5/cyfitter_cfg.c **** 			{0xDCu, 0x01u},
1026:Generated_Source\PSoC5/cyfitter_cfg.c **** 			{0xE2u, 0x02u},
1027:Generated_Source\PSoC5/cyfitter_cfg.c **** 			{0x00u, 0x03u},
1028:Generated_Source\PSoC5/cyfitter_cfg.c **** 			{0x08u, 0x02u},
1029:Generated_Source\PSoC5/cyfitter_cfg.c **** 			{0x0Cu, 0x01u},
1030:Generated_Source\PSoC5/cyfitter_cfg.c **** 			{0x10u, 0x01u},
1031:Generated_Source\PSoC5/cyfitter_cfg.c **** 			{0x1Cu, 0x01u},
1032:Generated_Source\PSoC5/cyfitter_cfg.c **** 			{0x00u, 0x0Fu},
1033:Generated_Source\PSoC5/cyfitter_cfg.c **** 			{0x03u, 0xC0u},
1034:Generated_Source\PSoC5/cyfitter_cfg.c **** 		};
1035:Generated_Source\PSoC5/cyfitter_cfg.c **** 
1036:Generated_Source\PSoC5/cyfitter_cfg.c **** 
1037:Generated_Source\PSoC5/cyfitter_cfg.c **** 
1038:Generated_Source\PSoC5/cyfitter_cfg.c **** 		CYPACKED typedef struct {
1039:Generated_Source\PSoC5/cyfitter_cfg.c **** 			void CYFAR *address;
1040:Generated_Source\PSoC5/cyfitter_cfg.c **** 			uint16 size;
1041:Generated_Source\PSoC5/cyfitter_cfg.c **** 		} CYPACKED_ATTR cfg_memset_t;
1042:Generated_Source\PSoC5/cyfitter_cfg.c **** 
1043:Generated_Source\PSoC5/cyfitter_cfg.c **** 
1044:Generated_Source\PSoC5/cyfitter_cfg.c **** 		CYPACKED typedef struct {
1045:Generated_Source\PSoC5/cyfitter_cfg.c **** 			void CYFAR *dest;
1046:Generated_Source\PSoC5/cyfitter_cfg.c **** 			const void CYCODE *src;
1047:Generated_Source\PSoC5/cyfitter_cfg.c **** 			uint16 size;
1048:Generated_Source\PSoC5/cyfitter_cfg.c **** 		} CYPACKED_ATTR cfg_memcpy_t;
1049:Generated_Source\PSoC5/cyfitter_cfg.c **** 
1050:Generated_Source\PSoC5/cyfitter_cfg.c **** 		static const cfg_memset_t CYCODE cfg_memset_list[] = {
1051:Generated_Source\PSoC5/cyfitter_cfg.c **** 			/* address, size */
1052:Generated_Source\PSoC5/cyfitter_cfg.c **** 			{(void CYFAR *)(CYREG_I2C_XCFG), 25u},
1053:Generated_Source\PSoC5/cyfitter_cfg.c **** 			{(void CYFAR *)(CYREG_TMR0_CFG0), 12u},
1054:Generated_Source\PSoC5/cyfitter_cfg.c **** 			{(void CYFAR *)(CYREG_PRT3_DR), 64u},
1055:Generated_Source\PSoC5/cyfitter_cfg.c **** 			{(void CYFAR *)(CYREG_PRT15_DR), 16u},
1056:Generated_Source\PSoC5/cyfitter_cfg.c **** 			{(void CYFAR *)(CYDEV_UCFG_B0_P0_U0_BASE), 4096u},
1057:Generated_Source\PSoC5/cyfitter_cfg.c **** 			{(void CYFAR *)(CYDEV_UCFG_B1_P2_U0_BASE), 2048u},
1058:Generated_Source\PSoC5/cyfitter_cfg.c **** 			{(void CYFAR *)(CYDEV_UCFG_DSI0_BASE), 2560u},
1059:Generated_Source\PSoC5/cyfitter_cfg.c **** 			{(void CYFAR *)(CYDEV_UCFG_DSI12_BASE), 512u},
1060:Generated_Source\PSoC5/cyfitter_cfg.c **** 			{(void CYFAR *)(CYREG_BCTL0_MDCLK_EN), 32u},
1061:Generated_Source\PSoC5/cyfitter_cfg.c **** 		};
1062:Generated_Source\PSoC5/cyfitter_cfg.c **** 
1063:Generated_Source\PSoC5/cyfitter_cfg.c **** 		/* IOPORT_7 Address: CYDEV_PRTDSI_PRT12_BASE Size (bytes): 6 */
1064:Generated_Source\PSoC5/cyfitter_cfg.c **** 		static const uint8 CYCODE BS_IOPORT_7_VAL[] = {
1065:Generated_Source\PSoC5/cyfitter_cfg.c **** 			0x02u, 0x80u, 0x00u, 0x00u, 0x43u, 0x00u};
1066:Generated_Source\PSoC5/cyfitter_cfg.c **** 
1067:Generated_Source\PSoC5/cyfitter_cfg.c **** 		static const cfg_memcpy_t CYCODE cfg_memcpy_list [] = {
ARM GAS  C:\Users\Dell\AppData\Local\Temp\ccSPIrXH.s 			page 28


1068:Generated_Source\PSoC5/cyfitter_cfg.c **** 			/* dest, src, size */
1069:Generated_Source\PSoC5/cyfitter_cfg.c **** 			{(void CYFAR *)(CYDEV_PRTDSI_PRT12_BASE), BS_IOPORT_7_VAL, 6u},
1070:Generated_Source\PSoC5/cyfitter_cfg.c **** 		};
1071:Generated_Source\PSoC5/cyfitter_cfg.c **** 
1072:Generated_Source\PSoC5/cyfitter_cfg.c **** 		uint8 CYDATA i;
1073:Generated_Source\PSoC5/cyfitter_cfg.c **** 
1074:Generated_Source\PSoC5/cyfitter_cfg.c **** 		/* Zero out critical memory blocks before beginning configuration */
1075:Generated_Source\PSoC5/cyfitter_cfg.c **** 		for (i = 0u; i < (sizeof(cfg_memset_list)/sizeof(cfg_memset_list[0])); i++)
 435              		.loc 1 1075 0
 436 000e 0024     		movs	r4, #0
 437 0010 0CE0     		b	.L30
 438              	.LVL32:
 439              	.L31:
 440              	.LBB4:
1076:Generated_Source\PSoC5/cyfitter_cfg.c **** 		{
1077:Generated_Source\PSoC5/cyfitter_cfg.c **** 			const cfg_memset_t CYCODE * CYDATA ms = &cfg_memset_list[i];
1078:Generated_Source\PSoC5/cyfitter_cfg.c **** 			CYMEMZERO(ms->address, (size_t)(uint32)(ms->size));
 441              		.loc 1 1078 0 discriminator 3
 442 0012 364D     		ldr	r5, .L35+4
 443 0014 6300     		lsls	r3, r4, #1
 444 0016 1919     		adds	r1, r3, r4
 445 0018 4A00     		lsls	r2, r1, #1
 446 001a 1146     		mov	r1, r2
 447 001c 2A44     		add	r2, r2, r5
 448 001e 0846     		mov	r0, r1
 449 0020 9188     		ldrh	r1, [r2, #4]
 450 0022 2858     		ldr	r0, [r5, r0]	@ unaligned
 451 0024 FFF7FEFF 		bl	CYMEMZERO
 452              	.LVL33:
 453              	.LBE4:
1075:Generated_Source\PSoC5/cyfitter_cfg.c **** 		{
 454              		.loc 1 1075 0 discriminator 3
 455 0028 0134     		adds	r4, r4, #1
 456              	.LVL34:
 457 002a E4B2     		uxtb	r4, r4
 458              	.LVL35:
 459              	.L30:
1075:Generated_Source\PSoC5/cyfitter_cfg.c **** 		{
 460              		.loc 1 1075 0 is_stmt 0 discriminator 1
 461 002c 082C     		cmp	r4, #8
 462 002e F0D9     		bls	.L31
 463 0030 0024     		movs	r4, #0
 464              	.LVL36:
 465 0032 0BE0     		b	.L32
 466              	.LVL37:
 467              	.L33:
 468              	.LBB5:
1079:Generated_Source\PSoC5/cyfitter_cfg.c **** 		}
1080:Generated_Source\PSoC5/cyfitter_cfg.c **** 
1081:Generated_Source\PSoC5/cyfitter_cfg.c **** 		/* Copy device configuration data into registers */
1082:Generated_Source\PSoC5/cyfitter_cfg.c **** 		for (i = 0u; i < (sizeof(cfg_memcpy_list)/sizeof(cfg_memcpy_list[0])); i++)
1083:Generated_Source\PSoC5/cyfitter_cfg.c **** 		{
1084:Generated_Source\PSoC5/cyfitter_cfg.c **** 			const cfg_memcpy_t CYCODE * CYDATA mc = &cfg_memcpy_list[i];
1085:Generated_Source\PSoC5/cyfitter_cfg.c **** 			void * CYDATA destPtr = mc->dest;
 469              		.loc 1 1085 0 is_stmt 1 discriminator 3
 470 0034 2D49     		ldr	r1, .L35+4
 471 0036 A300     		lsls	r3, r4, #2
ARM GAS  C:\Users\Dell\AppData\Local\Temp\ccSPIrXH.s 			page 29


 472 0038 1819     		adds	r0, r3, r4
 473 003a 4200     		lsls	r2, r0, #1
 474 003c 8818     		adds	r0, r1, r2
 475              	.LVL38:
1086:Generated_Source\PSoC5/cyfitter_cfg.c **** 			const void CYCODE * CYDATA srcPtr = mc->src;
1087:Generated_Source\PSoC5/cyfitter_cfg.c **** 			uint16 CYDATA numBytes = mc->size;
1088:Generated_Source\PSoC5/cyfitter_cfg.c **** 			CYCONFIGCPYCODE(destPtr, srcPtr, numBytes);
 476              		.loc 1 1088 0 discriminator 3
 477 003e 0622     		movs	r2, #6
 478 0040 C16B     		ldr	r1, [r0, #60]	@ unaligned
 479              	.LVL39:
 480 0042 806B     		ldr	r0, [r0, #56]	@ unaligned
 481              	.LVL40:
 482 0044 FFF7FEFF 		bl	CYCONFIGCPYCODE
 483              	.LVL41:
 484              	.LBE5:
1082:Generated_Source\PSoC5/cyfitter_cfg.c **** 		{
 485              		.loc 1 1082 0 discriminator 3
 486 0048 0134     		adds	r4, r4, #1
 487              	.LVL42:
 488 004a E4B2     		uxtb	r4, r4
 489              	.LVL43:
 490              	.L32:
1082:Generated_Source\PSoC5/cyfitter_cfg.c **** 		{
 491              		.loc 1 1082 0 is_stmt 0 discriminator 1
 492 004c 002C     		cmp	r4, #0
 493 004e F1D0     		beq	.L33
1089:Generated_Source\PSoC5/cyfitter_cfg.c **** 		}
1090:Generated_Source\PSoC5/cyfitter_cfg.c **** 
1091:Generated_Source\PSoC5/cyfitter_cfg.c **** 		cfg_write_bytes32(cy_cfg_addr_table, cy_cfg_data_table);
 494              		.loc 1 1091 0 is_stmt 1
 495 0050 264C     		ldr	r4, .L35+4
 496              	.LVL44:
 497 0052 04F14401 		add	r1, r4, #68
 498 0056 04F5A860 		add	r0, r4, #1344
 499 005a FFF7FEFF 		bl	cfg_write_bytes32
 500              	.LVL45:
1092:Generated_Source\PSoC5/cyfitter_cfg.c **** 
1093:Generated_Source\PSoC5/cyfitter_cfg.c **** 		/* Enable digital routing */
1094:Generated_Source\PSoC5/cyfitter_cfg.c **** 		CY_SET_XTND_REG8((void CYFAR *)CYREG_BCTL0_BANK_CTL, CY_GET_XTND_REG8((void CYFAR *)CYREG_BCTL0_B
 501              		.loc 1 1094 0
 502 005e 244A     		ldr	r2, .L35+8
 503 0060 1378     		ldrb	r3, [r2]	@ zero_extendqisi2
 504 0062 43F00203 		orr	r3, r3, #2
 505 0066 1370     		strb	r3, [r2]
1095:Generated_Source\PSoC5/cyfitter_cfg.c **** 		CY_SET_XTND_REG8((void CYFAR *)CYREG_BCTL1_BANK_CTL, CY_GET_XTND_REG8((void CYFAR *)CYREG_BCTL1_B
 506              		.loc 1 1095 0
 507 0068 1032     		adds	r2, r2, #16
 508 006a 1378     		ldrb	r3, [r2]	@ zero_extendqisi2
 509 006c 43F00203 		orr	r3, r3, #2
 510 0070 1370     		strb	r3, [r2]
1096:Generated_Source\PSoC5/cyfitter_cfg.c **** 
1097:Generated_Source\PSoC5/cyfitter_cfg.c **** 		/* Enable UDB array */
1098:Generated_Source\PSoC5/cyfitter_cfg.c **** 		CY_SET_XTND_REG8((void CYFAR *)CYREG_PM_ACT_CFG0, CY_GET_XTND_REG8((void CYFAR *)CYREG_PM_ACT_CFG
 511              		.loc 1 1098 0
 512 0072 204D     		ldr	r5, .L35+12
 513 0074 2B78     		ldrb	r3, [r5]	@ zero_extendqisi2
ARM GAS  C:\Users\Dell\AppData\Local\Temp\ccSPIrXH.s 			page 30


 514 0076 43F04003 		orr	r3, r3, #64
 515 007a 2B70     		strb	r3, [r5]
1099:Generated_Source\PSoC5/cyfitter_cfg.c **** 		CY_SET_XTND_REG8((void CYFAR *)CYREG_PM_AVAIL_CR2, CY_GET_XTND_REG8((void CYFAR *)CYREG_PM_AVAIL_
 516              		.loc 1 1099 0
 517 007c A2F58632 		sub	r2, r2, #68608
 518 0080 513A     		subs	r2, r2, #81
 519 0082 1378     		ldrb	r3, [r2]	@ zero_extendqisi2
 520 0084 43F01003 		orr	r3, r3, #16
 521 0088 1370     		strb	r3, [r2]
 522              	.LBE3:
1100:Generated_Source\PSoC5/cyfitter_cfg.c **** 	}
1101:Generated_Source\PSoC5/cyfitter_cfg.c **** 
1102:Generated_Source\PSoC5/cyfitter_cfg.c **** 
1103:Generated_Source\PSoC5/cyfitter_cfg.c **** 	/* Perform second pass device configuration. These items must be configured in specific order afte
1104:Generated_Source\PSoC5/cyfitter_cfg.c **** 	CYCONFIGCPYCODE((void CYFAR *)(CYREG_PRT0_DM0), (const void CYCODE *)(BS_IOPINS0_0_VAL), 8u);
 523              		.loc 1 1104 0
 524 008a 0822     		movs	r2, #8
 525 008c 04F5B561 		add	r1, r4, #1448
 526 0090 1948     		ldr	r0, .L35+16
 527 0092 FFF7FEFF 		bl	CYCONFIGCPYCODE
 528              	.LVL46:
1105:Generated_Source\PSoC5/cyfitter_cfg.c **** 	CYCONFIGCPYCODE((void CYFAR *)(CYREG_PRT12_DR), (const void CYCODE *)(BS_IOPINS0_7_VAL), 10u);
 529              		.loc 1 1105 0
 530 0096 0A22     		movs	r2, #10
 531 0098 04F5B661 		add	r1, r4, #1456
 532 009c 1748     		ldr	r0, .L35+20
 533 009e FFF7FEFF 		bl	CYCONFIGCPYCODE
 534              	.LVL47:
1106:Generated_Source\PSoC5/cyfitter_cfg.c **** 	CYCONFIGCPYCODE((void CYFAR *)(CYREG_PRT1_DM0), (const void CYCODE *)(BS_IOPINS0_1_VAL), 8u);
 535              		.loc 1 1106 0
 536 00a2 0822     		movs	r2, #8
 537 00a4 04F2BC51 		addw	r1, r4, #1468
 538 00a8 1548     		ldr	r0, .L35+24
 539 00aa FFF7FEFF 		bl	CYCONFIGCPYCODE
 540              	.LVL48:
1107:Generated_Source\PSoC5/cyfitter_cfg.c **** 	CYCONFIGCPYCODE((void CYFAR *)(CYREG_PRT2_DM0), (const void CYCODE *)(BS_IOPINS0_2_VAL), 8u);
 541              		.loc 1 1107 0
 542 00ae 0822     		movs	r2, #8
 543 00b0 04F2C451 		addw	r1, r4, #1476
 544 00b4 1348     		ldr	r0, .L35+28
 545 00b6 FFF7FEFF 		bl	CYCONFIGCPYCODE
 546              	.LVL49:
1108:Generated_Source\PSoC5/cyfitter_cfg.c **** 	/* Switch Boost to the precision bandgap reference from its internal reference */
1109:Generated_Source\PSoC5/cyfitter_cfg.c **** 	CY_SET_REG8((void CYXDATA *)CYREG_BOOST_CR2, (CY_GET_REG8((void CYXDATA *)CYREG_BOOST_CR2) | 0x08u
 547              		.loc 1 1109 0
 548 00ba 134A     		ldr	r2, .L35+32
 549 00bc 1378     		ldrb	r3, [r2]	@ zero_extendqisi2
 550 00be 43F00803 		orr	r3, r3, #8
 551 00c2 1370     		strb	r3, [r2]
1110:Generated_Source\PSoC5/cyfitter_cfg.c **** 
1111:Generated_Source\PSoC5/cyfitter_cfg.c **** 	/* Set Flash Cycles based on max possible frequency in case a glitch occurs during ClockSetup(). *
1112:Generated_Source\PSoC5/cyfitter_cfg.c **** 	CY_SET_XTND_REG8((void CYFAR *)(CYREG_CACHE_CC_CTL), (((CYDEV_INSTRUCT_CACHE_ENABLED) != 0) ? 0x61
 552              		.loc 1 1112 0
 553 00c4 114C     		ldr	r4, .L35+36
 554 00c6 6123     		movs	r3, #97
 555 00c8 2370     		strb	r3, [r4]
1113:Generated_Source\PSoC5/cyfitter_cfg.c **** 	/* Setup clocks based on selections from Clock DWR */
ARM GAS  C:\Users\Dell\AppData\Local\Temp\ccSPIrXH.s 			page 31


1114:Generated_Source\PSoC5/cyfitter_cfg.c **** 	ClockSetup();
 556              		.loc 1 1114 0
 557 00ca FFF7FEFF 		bl	ClockSetup
 558              	.LVL50:
1115:Generated_Source\PSoC5/cyfitter_cfg.c **** 	/* Set Flash Cycles based on newly configured 24.00MHz Bus Clock. */
1116:Generated_Source\PSoC5/cyfitter_cfg.c **** 	CY_SET_XTND_REG8((void CYFAR *)(CYREG_CACHE_CC_CTL), (((CYDEV_INSTRUCT_CACHE_ENABLED) != 0) ? 0x81
 559              		.loc 1 1116 0
 560 00ce 8123     		movs	r3, #129
 561 00d0 2370     		strb	r3, [r4]
1117:Generated_Source\PSoC5/cyfitter_cfg.c **** 	CY_SET_XTND_REG8((void CYFAR *)(CYREG_PANTHER_WAITPIPE), 0x01u);
 562              		.loc 1 1117 0
 563 00d2 0122     		movs	r2, #1
 564 00d4 0E4B     		ldr	r3, .L35+40
 565 00d6 1A70     		strb	r2, [r3]
1118:Generated_Source\PSoC5/cyfitter_cfg.c **** 
1119:Generated_Source\PSoC5/cyfitter_cfg.c **** 	/* Perform basic analog initialization to defaults */
1120:Generated_Source\PSoC5/cyfitter_cfg.c **** 	AnalogSetDefault();
 566              		.loc 1 1120 0
 567 00d8 FFF7FEFF 		bl	AnalogSetDefault
 568              	.LVL51:
1121:Generated_Source\PSoC5/cyfitter_cfg.c **** 
1122:Generated_Source\PSoC5/cyfitter_cfg.c **** 	/* Configure alternate active mode */
1123:Generated_Source\PSoC5/cyfitter_cfg.c **** 	CYCONFIGCPY((void CYFAR *)CYDEV_PM_STBY_BASE, (const void CYFAR *)CYDEV_PM_ACT_BASE, 14u);
 569              		.loc 1 1123 0
 570 00dc 0E22     		movs	r2, #14
 571 00de 2946     		mov	r1, r5
 572 00e0 0C48     		ldr	r0, .L35+44
 573 00e2 FFF7FEFF 		bl	CYCONFIGCPY
 574              	.LVL52:
 575 00e6 38BD     		pop	{r3, r4, r5, pc}
 576              	.L36:
 577              		.align	2
 578              	.L35:
 579 00e8 E8460040 		.word	1073759976
 580 00ec 00000000 		.word	.LANCHOR0
 581 00f0 03500140 		.word	1073827843
 582 00f4 A0430040 		.word	1073759136
 583 00f8 02510040 		.word	1073762562
 584 00fc C0510040 		.word	1073762752
 585 0100 12510040 		.word	1073762578
 586 0104 22510040 		.word	1073762594
 587 0108 22430040 		.word	1073759010
 588 010c 00480040 		.word	1073760256
 589 0110 04000840 		.word	1074266116
 590 0114 B0430040 		.word	1073759152
 591              		.cfi_endproc
 592              	.LFE8:
 593              		.size	cyfitter_cfg, .-cyfitter_cfg
 594              		.section	.rodata
 595              		.align	2
 596              		.set	.LANCHOR0,. + 0
 597              		.type	cfg_memset_list.5024, %object
 598              		.size	cfg_memset_list.5024, 54
 599              	cfg_memset_list.5024:
 600 0000 C8490040 		.word	1073760712
 601 0004 1900     		.short	25
 602 0006 004F0040 		.4byte	1073762048
ARM GAS  C:\Users\Dell\AppData\Local\Temp\ccSPIrXH.s 			page 32


 603 000a 0C00     		.short	12
 604 000c 30510040 		.word	1073762608
 605 0010 4000     		.short	64
 606 0012 F0510040 		.4byte	1073762800
 607 0016 1000     		.short	16
 608 0018 00000140 		.word	1073807360
 609 001c 0010     		.short	4096
 610 001e 00140140 		.4byte	1073812480
 611 0022 0008     		.short	2048
 612 0024 00400140 		.word	1073823744
 613 0028 000A     		.short	2560
 614 002a 004C0140 		.4byte	1073826816
 615 002e 0002     		.short	512
 616 0030 00500140 		.word	1073827840
 617 0034 2000     		.short	32
 618 0036 0000     		.space	2
 619              		.type	cfg_memcpy_list.5026, %object
 620              		.size	cfg_memcpy_list.5026, 10
 621              	cfg_memcpy_list.5026:
 622 0038 60520040 		.word	1073762912
 623 003c CC050000 		.word	BS_IOPORT_7_VAL.5025
 624 0040 0600     		.short	6
 625 0042 0000     		.space	2
 626              		.type	cy_cfg_data_table.5014, %object
 627              		.size	cy_cfg_data_table.5014, 1276
 628              	cy_cfg_data_table.5014:
 629 0044 01       		.byte	1
 630 0045 20       		.byte	32
 631 0046 0A       		.byte	10
 632 0047 36       		.byte	54
 633 0048 83       		.byte	-125
 634 0049 67       		.byte	103
 635 004a 89       		.byte	-119
 636 004b 38       		.byte	56
 637 004c 88       		.byte	-120
 638 004d 0F       		.byte	15
 639 004e 8A       		.byte	-118
 640 004f 72       		.byte	114
 641 0050 05       		.byte	5
 642 0051 01       		.byte	1
 643 0052 0F       		.byte	15
 644 0053 01       		.byte	1
 645 0054 1B       		.byte	27
 646 0055 02       		.byte	2
 647 0056 1F       		.byte	31
 648 0057 02       		.byte	2
 649 0058 22       		.byte	34
 650 0059 02       		.byte	2
 651 005a 26       		.byte	38
 652 005b 01       		.byte	1
 653 005c 29       		.byte	41
 654 005d 02       		.byte	2
 655 005e 32       		.byte	50
 656 005f 01       		.byte	1
 657 0060 33       		.byte	51
 658 0061 02       		.byte	2
 659 0062 34       		.byte	52
ARM GAS  C:\Users\Dell\AppData\Local\Temp\ccSPIrXH.s 			page 33


 660 0063 02       		.byte	2
 661 0064 35       		.byte	53
 662 0065 01       		.byte	1
 663 0066 3F       		.byte	63
 664 0067 14       		.byte	20
 665 0068 40       		.byte	64
 666 0069 24       		.byte	36
 667 006a 41       		.byte	65
 668 006b 03       		.byte	3
 669 006c 49       		.byte	73
 670 006d FF       		.byte	-1
 671 006e 4A       		.byte	74
 672 006f FF       		.byte	-1
 673 0070 4B       		.byte	75
 674 0071 FF       		.byte	-1
 675 0072 4D       		.byte	77
 676 0073 A0       		.byte	-96
 677 0074 4F       		.byte	79
 678 0075 01       		.byte	1
 679 0076 50       		.byte	80
 680 0077 18       		.byte	24
 681 0078 52       		.byte	82
 682 0079 80       		.byte	-128
 683 007a 58       		.byte	88
 684 007b 04       		.byte	4
 685 007c 59       		.byte	89
 686 007d 04       		.byte	4
 687 007e 5A       		.byte	90
 688 007f 04       		.byte	4
 689 0080 5B       		.byte	91
 690 0081 04       		.byte	4
 691 0082 5C       		.byte	92
 692 0083 01       		.byte	1
 693 0084 5D       		.byte	93
 694 0085 11       		.byte	17
 695 0086 5F       		.byte	95
 696 0087 01       		.byte	1
 697 0088 60       		.byte	96
 698 0089 40       		.byte	64
 699 008a 62       		.byte	98
 700 008b 80       		.byte	-128
 701 008c 64       		.byte	100
 702 008d 40       		.byte	64
 703 008e 65       		.byte	101
 704 008f 40       		.byte	64
 705 0090 66       		.byte	102
 706 0091 80       		.byte	-128
 707 0092 68       		.byte	104
 708 0093 40       		.byte	64
 709 0094 6A       		.byte	106
 710 0095 50       		.byte	80
 711 0096 6B       		.byte	107
 712 0097 A8       		.byte	-88
 713 0098 6C       		.byte	108
 714 0099 40       		.byte	64
 715 009a 6D       		.byte	109
 716 009b 20       		.byte	32
ARM GAS  C:\Users\Dell\AppData\Local\Temp\ccSPIrXH.s 			page 34


 717 009c 6E       		.byte	110
 718 009d 50       		.byte	80
 719 009e 6F       		.byte	111
 720 009f A8       		.byte	-88
 721 00a0 87       		.byte	-121
 722 00a1 03       		.byte	3
 723 00a2 91       		.byte	-111
 724 00a3 02       		.byte	2
 725 00a4 B1       		.byte	-79
 726 00a5 01       		.byte	1
 727 00a6 B7       		.byte	-73
 728 00a7 02       		.byte	2
 729 00a8 BF       		.byte	-65
 730 00a9 40       		.byte	64
 731 00aa C0       		.byte	-64
 732 00ab 65       		.byte	101
 733 00ac C1       		.byte	-63
 734 00ad 03       		.byte	3
 735 00ae C5       		.byte	-59
 736 00af 25       		.byte	37
 737 00b0 C6       		.byte	-58
 738 00b1 C0       		.byte	-64
 739 00b2 C7       		.byte	-57
 740 00b3 0E       		.byte	14
 741 00b4 C8       		.byte	-56
 742 00b5 1F       		.byte	31
 743 00b6 C9       		.byte	-55
 744 00b7 FF       		.byte	-1
 745 00b8 CA       		.byte	-54
 746 00b9 FF       		.byte	-1
 747 00ba CB       		.byte	-53
 748 00bb FF       		.byte	-1
 749 00bc CD       		.byte	-51
 750 00bd AF       		.byte	-81
 751 00be CE       		.byte	-50
 752 00bf 07       		.byte	7
 753 00c0 CF       		.byte	-49
 754 00c1 01       		.byte	1
 755 00c2 D0       		.byte	-48
 756 00c3 18       		.byte	24
 757 00c4 D4       		.byte	-44
 758 00c5 07       		.byte	7
 759 00c6 D9       		.byte	-39
 760 00c7 04       		.byte	4
 761 00c8 DA       		.byte	-38
 762 00c9 04       		.byte	4
 763 00ca DB       		.byte	-37
 764 00cb 04       		.byte	4
 765 00cc DC       		.byte	-36
 766 00cd 10       		.byte	16
 767 00ce DD       		.byte	-35
 768 00cf 11       		.byte	17
 769 00d0 DF       		.byte	-33
 770 00d1 01       		.byte	1
 771 00d2 E0       		.byte	-32
 772 00d3 40       		.byte	64
 773 00d4 E2       		.byte	-30
ARM GAS  C:\Users\Dell\AppData\Local\Temp\ccSPIrXH.s 			page 35


 774 00d5 80       		.byte	-128
 775 00d6 E4       		.byte	-28
 776 00d7 40       		.byte	64
 777 00d8 E5       		.byte	-27
 778 00d9 40       		.byte	64
 779 00da E6       		.byte	-26
 780 00db 80       		.byte	-128
 781 00dc E8       		.byte	-24
 782 00dd 40       		.byte	64
 783 00de EA       		.byte	-22
 784 00df 50       		.byte	80
 785 00e0 EB       		.byte	-21
 786 00e1 A8       		.byte	-88
 787 00e2 EC       		.byte	-20
 788 00e3 40       		.byte	64
 789 00e4 ED       		.byte	-19
 790 00e5 20       		.byte	32
 791 00e6 EE       		.byte	-18
 792 00e7 50       		.byte	80
 793 00e8 EF       		.byte	-17
 794 00e9 A8       		.byte	-88
 795 00ea 14       		.byte	20
 796 00eb 20       		.byte	32
 797 00ec 16       		.byte	22
 798 00ed 40       		.byte	64
 799 00ee 1C       		.byte	28
 800 00ef 04       		.byte	4
 801 00f0 1E       		.byte	30
 802 00f1 10       		.byte	16
 803 00f2 21       		.byte	33
 804 00f3 02       		.byte	2
 805 00f4 22       		.byte	34
 806 00f5 40       		.byte	64
 807 00f6 26       		.byte	38
 808 00f7 04       		.byte	4
 809 00f8 27       		.byte	39
 810 00f9 24       		.byte	36
 811 00fa 2E       		.byte	46
 812 00fb 10       		.byte	16
 813 00fc 31       		.byte	49
 814 00fd 02       		.byte	2
 815 00fe 34       		.byte	52
 816 00ff 20       		.byte	32
 817 0100 37       		.byte	55
 818 0101 40       		.byte	64
 819 0102 3B       		.byte	59
 820 0103 08       		.byte	8
 821 0104 3C       		.byte	60
 822 0105 04       		.byte	4
 823 0106 3F       		.byte	63
 824 0107 40       		.byte	64
 825 0108 42       		.byte	66
 826 0109 20       		.byte	32
 827 010a 46       		.byte	70
 828 010b 60       		.byte	96
 829 010c 47       		.byte	71
 830 010d 28       		.byte	40
ARM GAS  C:\Users\Dell\AppData\Local\Temp\ccSPIrXH.s 			page 36


 831 010e 4A       		.byte	74
 832 010f 44       		.byte	68
 833 0110 4B       		.byte	75
 834 0111 C8       		.byte	-56
 835 0112 51       		.byte	81
 836 0113 08       		.byte	8
 837 0114 52       		.byte	82
 838 0115 50       		.byte	80
 839 0116 53       		.byte	83
 840 0117 40       		.byte	64
 841 0118 59       		.byte	89
 842 0119 20       		.byte	32
 843 011a 5A       		.byte	90
 844 011b 80       		.byte	-128
 845 011c 5B       		.byte	91
 846 011d 04       		.byte	4
 847 011e 61       		.byte	97
 848 011f 08       		.byte	8
 849 0120 62       		.byte	98
 850 0121 10       		.byte	16
 851 0122 77       		.byte	119
 852 0123 40       		.byte	64
 853 0124 84       		.byte	-124
 854 0125 20       		.byte	32
 855 0126 85       		.byte	-123
 856 0127 20       		.byte	32
 857 0128 86       		.byte	-122
 858 0129 40       		.byte	64
 859 012a C4       		.byte	-60
 860 012b 30       		.byte	48
 861 012c CA       		.byte	-54
 862 012d 20       		.byte	32
 863 012e CC       		.byte	-52
 864 012f 31       		.byte	49
 865 0130 CE       		.byte	-50
 866 0131 52       		.byte	82
 867 0132 D0       		.byte	-48
 868 0133 E2       		.byte	-30
 869 0134 D2       		.byte	-46
 870 0135 0C       		.byte	12
 871 0136 D6       		.byte	-42
 872 0137 0E       		.byte	14
 873 0138 D8       		.byte	-40
 874 0139 06       		.byte	6
 875 013a 9F       		.byte	-97
 876 013b 08       		.byte	8
 877 013c 9F       		.byte	-97
 878 013d 08       		.byte	8
 879 013e E6       		.byte	-26
 880 013f 02       		.byte	2
 881 0140 01       		.byte	1
 882 0141 14       		.byte	20
 883 0142 02       		.byte	2
 884 0143 05       		.byte	5
 885 0144 05       		.byte	5
 886 0145 2C       		.byte	44
 887 0146 06       		.byte	6
ARM GAS  C:\Users\Dell\AppData\Local\Temp\ccSPIrXH.s 			page 37


 888 0147 08       		.byte	8
 889 0148 07       		.byte	7
 890 0149 11       		.byte	17
 891 014a 10       		.byte	16
 892 014b 03       		.byte	3
 893 014c 11       		.byte	17
 894 014d 40       		.byte	64
 895 014e 12       		.byte	18
 896 014f 0C       		.byte	12
 897 0150 14       		.byte	20
 898 0151 03       		.byte	3
 899 0152 16       		.byte	22
 900 0153 04       		.byte	4
 901 0154 17       		.byte	23
 902 0155 03       		.byte	3
 903 0156 19       		.byte	25
 904 0157 09       		.byte	9
 905 0158 1B       		.byte	27
 906 0159 10       		.byte	16
 907 015a 1C       		.byte	28
 908 015b 0A       		.byte	10
 909 015c 1E       		.byte	30
 910 015d 04       		.byte	4
 911 015e 21       		.byte	33
 912 015f 1C       		.byte	28
 913 0160 23       		.byte	35
 914 0161 22       		.byte	34
 915 0162 28       		.byte	40
 916 0163 03       		.byte	3
 917 0164 29       		.byte	41
 918 0165 10       		.byte	16
 919 0166 2A       		.byte	42
 920 0167 04       		.byte	4
 921 0168 2D       		.byte	45
 922 0169 30       		.byte	48
 923 016a 2F       		.byte	47
 924 016b 0C       		.byte	12
 925 016c 30       		.byte	48
 926 016d 0F       		.byte	15
 927 016e 33       		.byte	51
 928 016f 60       		.byte	96
 929 0170 35       		.byte	53
 930 0171 1F       		.byte	31
 931 0172 39       		.byte	57
 932 0173 08       		.byte	8
 933 0174 3A       		.byte	58
 934 0175 02       		.byte	2
 935 0176 40       		.byte	64
 936 0177 45       		.byte	69
 937 0178 41       		.byte	65
 938 0179 02       		.byte	2
 939 017a 45       		.byte	69
 940 017b 0E       		.byte	14
 941 017c 46       		.byte	70
 942 017d C0       		.byte	-64
 943 017e 47       		.byte	71
 944 017f B0       		.byte	-80
ARM GAS  C:\Users\Dell\AppData\Local\Temp\ccSPIrXH.s 			page 38


 945 0180 48       		.byte	72
 946 0181 29       		.byte	41
 947 0182 49       		.byte	73
 948 0183 FF       		.byte	-1
 949 0184 4A       		.byte	74
 950 0185 FF       		.byte	-1
 951 0186 4B       		.byte	75
 952 0187 FF       		.byte	-1
 953 0188 4E       		.byte	78
 954 0189 F0       		.byte	-16
 955 018a 4F       		.byte	79
 956 018b 44       		.byte	68
 957 018c 50       		.byte	80
 958 018d 0C       		.byte	12
 959 018e 58       		.byte	88
 960 018f 04       		.byte	4
 961 0190 59       		.byte	89
 962 0191 04       		.byte	4
 963 0192 5A       		.byte	90
 964 0193 04       		.byte	4
 965 0194 5F       		.byte	95
 966 0195 01       		.byte	1
 967 0196 66       		.byte	102
 968 0197 C0       		.byte	-64
 969 0198 6A       		.byte	106
 970 0199 40       		.byte	64
 971 019a 6B       		.byte	107
 972 019b 02       		.byte	2
 973 019c 81       		.byte	-127
 974 019d 06       		.byte	6
 975 019e 83       		.byte	-125
 976 019f 01       		.byte	1
 977 01a0 85       		.byte	-123
 978 01a1 02       		.byte	2
 979 01a2 86       		.byte	-122
 980 01a3 01       		.byte	1
 981 01a4 88       		.byte	-120
 982 01a5 09       		.byte	9
 983 01a6 89       		.byte	-119
 984 01a7 06       		.byte	6
 985 01a8 8A       		.byte	-118
 986 01a9 06       		.byte	6
 987 01aa 8B       		.byte	-117
 988 01ab 01       		.byte	1
 989 01ac 8C       		.byte	-116
 990 01ad 06       		.byte	6
 991 01ae 8D       		.byte	-115
 992 01af 04       		.byte	4
 993 01b0 8E       		.byte	-114
 994 01b1 09       		.byte	9
 995 01b2 94       		.byte	-108
 996 01b3 06       		.byte	6
 997 01b4 95       		.byte	-107
 998 01b5 06       		.byte	6
 999 01b6 98       		.byte	-104
 1000 01b7 02       		.byte	2
 1001 01b8 9B       		.byte	-101
ARM GAS  C:\Users\Dell\AppData\Local\Temp\ccSPIrXH.s 			page 39


 1002 01b9 08       		.byte	8
 1003 01ba 9C       		.byte	-100
 1004 01bb 0F       		.byte	15
 1005 01bc 9F       		.byte	-97
 1006 01bd 08       		.byte	8
 1007 01be A0       		.byte	-96
 1008 01bf 04       		.byte	4
 1009 01c0 A1       		.byte	-95
 1010 01c1 07       		.byte	7
 1011 01c2 A4       		.byte	-92
 1012 01c3 07       		.byte	7
 1013 01c4 A6       		.byte	-90
 1014 01c5 08       		.byte	8
 1015 01c6 A7       		.byte	-89
 1016 01c7 01       		.byte	1
 1017 01c8 A9       		.byte	-87
 1018 01c9 01       		.byte	1
 1019 01ca AB       		.byte	-85
 1020 01cb 06       		.byte	6
 1021 01cc B0       		.byte	-80
 1022 01cd 08       		.byte	8
 1023 01ce B1       		.byte	-79
 1024 01cf 07       		.byte	7
 1025 01d0 B4       		.byte	-76
 1026 01d1 07       		.byte	7
 1027 01d2 B5       		.byte	-75
 1028 01d3 08       		.byte	8
 1029 01d4 B8       		.byte	-72
 1030 01d5 02       		.byte	2
 1031 01d6 BB       		.byte	-69
 1032 01d7 02       		.byte	2
 1033 01d8 BF       		.byte	-65
 1034 01d9 10       		.byte	16
 1035 01da D4       		.byte	-44
 1036 01db 18       		.byte	24
 1037 01dc D6       		.byte	-42
 1038 01dd 04       		.byte	4
 1039 01de D8       		.byte	-40
 1040 01df 04       		.byte	4
 1041 01e0 D9       		.byte	-39
 1042 01e1 04       		.byte	4
 1043 01e2 DB       		.byte	-37
 1044 01e3 04       		.byte	4
 1045 01e4 DF       		.byte	-33
 1046 01e5 01       		.byte	1
 1047 01e6 00       		.byte	0
 1048 01e7 80       		.byte	-128
 1049 01e8 01       		.byte	1
 1050 01e9 28       		.byte	40
 1051 01ea 04       		.byte	4
 1052 01eb 02       		.byte	2
 1053 01ec 07       		.byte	7
 1054 01ed 10       		.byte	16
 1055 01ee 08       		.byte	8
 1056 01ef 80       		.byte	-128
 1057 01f0 09       		.byte	9
 1058 01f1 08       		.byte	8
ARM GAS  C:\Users\Dell\AppData\Local\Temp\ccSPIrXH.s 			page 40


 1059 01f2 0B       		.byte	11
 1060 01f3 04       		.byte	4
 1061 01f4 0D       		.byte	13
 1062 01f5 02       		.byte	2
 1063 01f6 0E       		.byte	14
 1064 01f7 01       		.byte	1
 1065 01f8 0F       		.byte	15
 1066 01f9 20       		.byte	32
 1067 01fa 12       		.byte	18
 1068 01fb 50       		.byte	80
 1069 01fc 13       		.byte	19
 1070 01fd 01       		.byte	1
 1071 01fe 17       		.byte	23
 1072 01ff 20       		.byte	32
 1073 0200 1A       		.byte	26
 1074 0201 84       		.byte	-124
 1075 0202 1D       		.byte	29
 1076 0203 02       		.byte	2
 1077 0204 1F       		.byte	31
 1078 0205 01       		.byte	1
 1079 0206 20       		.byte	32
 1080 0207 84       		.byte	-124
 1081 0208 21       		.byte	33
 1082 0209 01       		.byte	1
 1083 020a 27       		.byte	39
 1084 020b 14       		.byte	20
 1085 020c 28       		.byte	40
 1086 020d 80       		.byte	-128
 1087 020e 29       		.byte	41
 1088 020f 28       		.byte	40
 1089 0210 2E       		.byte	46
 1090 0211 01       		.byte	1
 1091 0212 2F       		.byte	47
 1092 0213 49       		.byte	73
 1093 0214 31       		.byte	49
 1094 0215 08       		.byte	8
 1095 0216 32       		.byte	50
 1096 0217 60       		.byte	96
 1097 0218 36       		.byte	54
 1098 0219 02       		.byte	2
 1099 021a 37       		.byte	55
 1100 021b 14       		.byte	20
 1101 021c 39       		.byte	57
 1102 021d 02       		.byte	2
 1103 021e 3A       		.byte	58
 1104 021f 50       		.byte	80
 1105 0220 3B       		.byte	59
 1106 0221 14       		.byte	20
 1107 0222 3E       		.byte	62
 1108 0223 08       		.byte	8
 1109 0224 3F       		.byte	63
 1110 0225 02       		.byte	2
 1111 0226 45       		.byte	69
 1112 0227 12       		.byte	18
 1113 0228 46       		.byte	70
 1114 0229 08       		.byte	8
 1115 022a 47       		.byte	71
ARM GAS  C:\Users\Dell\AppData\Local\Temp\ccSPIrXH.s 			page 41


 1116 022b 20       		.byte	32
 1117 022c 4C       		.byte	76
 1118 022d 01       		.byte	1
 1119 022e 4D       		.byte	77
 1120 022f 04       		.byte	4
 1121 0230 4E       		.byte	78
 1122 0231 02       		.byte	2
 1123 0232 57       		.byte	87
 1124 0233 11       		.byte	17
 1125 0234 59       		.byte	89
 1126 0235 01       		.byte	1
 1127 0236 60       		.byte	96
 1128 0237 04       		.byte	4
 1129 0238 62       		.byte	98
 1130 0239 80       		.byte	-128
 1131 023a 63       		.byte	99
 1132 023b 40       		.byte	64
 1133 023c 87       		.byte	-121
 1134 023d 40       		.byte	64
 1135 023e C0       		.byte	-64
 1136 023f 37       		.byte	55
 1137 0240 C2       		.byte	-62
 1138 0241 B7       		.byte	-73
 1139 0242 C4       		.byte	-60
 1140 0243 4C       		.byte	76
 1141 0244 CA       		.byte	-54
 1142 0245 B7       		.byte	-73
 1143 0246 CC       		.byte	-52
 1144 0247 EE       		.byte	-18
 1145 0248 CE       		.byte	-50
 1146 0249 CF       		.byte	-49
 1147 024a D0       		.byte	-48
 1148 024b A0       		.byte	-96
 1149 024c D2       		.byte	-46
 1150 024d 10       		.byte	16
 1151 024e D6       		.byte	-42
 1152 024f 01       		.byte	1
 1153 0250 D8       		.byte	-40
 1154 0251 0D       		.byte	13
 1155 0252 39       		.byte	57
 1156 0253 20       		.byte	32
 1157 0254 3F       		.byte	63
 1158 0255 10       		.byte	16
 1159 0256 59       		.byte	89
 1160 0257 04       		.byte	4
 1161 0258 5F       		.byte	95
 1162 0259 01       		.byte	1
 1163 025a 22       		.byte	34
 1164 025b 20       		.byte	32
 1165 025c 23       		.byte	35
 1166 025d 08       		.byte	8
 1167 025e 8A       		.byte	-118
 1168 025f 20       		.byte	32
 1169 0260 9F       		.byte	-97
 1170 0261 08       		.byte	8
 1171 0262 E0       		.byte	-32
 1172 0263 08       		.byte	8
ARM GAS  C:\Users\Dell\AppData\Local\Temp\ccSPIrXH.s 			page 42


 1173 0264 E2       		.byte	-30
 1174 0265 20       		.byte	32
 1175 0266 E4       		.byte	-28
 1176 0267 01       		.byte	1
 1177 0268 EA       		.byte	-22
 1178 0269 01       		.byte	1
 1179 026a 9F       		.byte	-97
 1180 026b 08       		.byte	8
 1181 026c E2       		.byte	-30
 1182 026d 02       		.byte	2
 1183 026e E6       		.byte	-26
 1184 026f 20       		.byte	32
 1185 0270 06       		.byte	6
 1186 0271 03       		.byte	3
 1187 0272 0A       		.byte	10
 1188 0273 02       		.byte	2
 1189 0274 0B       		.byte	11
 1190 0275 02       		.byte	2
 1191 0276 0C       		.byte	12
 1192 0277 06       		.byte	6
 1193 0278 0E       		.byte	14
 1194 0279 01       		.byte	1
 1195 027a 13       		.byte	19
 1196 027b 02       		.byte	2
 1197 027c 1E       		.byte	30
 1198 027d 01       		.byte	1
 1199 027e 23       		.byte	35
 1200 027f 02       		.byte	2
 1201 0280 25       		.byte	37
 1202 0281 01       		.byte	1
 1203 0282 29       		.byte	41
 1204 0283 02       		.byte	2
 1205 0284 2A       		.byte	42
 1206 0285 06       		.byte	6
 1207 0286 2D       		.byte	45
 1208 0287 02       		.byte	2
 1209 0288 2E       		.byte	46
 1210 0289 05       		.byte	5
 1211 028a 32       		.byte	50
 1212 028b 07       		.byte	7
 1213 028c 35       		.byte	53
 1214 028d 01       		.byte	1
 1215 028e 37       		.byte	55
 1216 028f 02       		.byte	2
 1217 0290 3A       		.byte	58
 1218 0291 08       		.byte	8
 1219 0292 3F       		.byte	63
 1220 0293 50       		.byte	80
 1221 0294 54       		.byte	84
 1222 0295 01       		.byte	1
 1223 0296 58       		.byte	88
 1224 0297 04       		.byte	4
 1225 0298 59       		.byte	89
 1226 0299 04       		.byte	4
 1227 029a 5B       		.byte	91
 1228 029b 04       		.byte	4
 1229 029c 5F       		.byte	95
ARM GAS  C:\Users\Dell\AppData\Local\Temp\ccSPIrXH.s 			page 43


 1230 029d 01       		.byte	1
 1231 029e 84       		.byte	-124
 1232 029f 04       		.byte	4
 1233 02a0 85       		.byte	-123
 1234 02a1 14       		.byte	20
 1235 02a2 87       		.byte	-121
 1236 02a3 89       		.byte	-119
 1237 02a4 88       		.byte	-120
 1238 02a5 02       		.byte	2
 1239 02a6 89       		.byte	-119
 1240 02a7 1F       		.byte	31
 1241 02a8 8C       		.byte	-116
 1242 02a9 02       		.byte	2
 1243 02aa 8D       		.byte	-115
 1244 02ab 01       		.byte	1
 1245 02ac 8F       		.byte	-113
 1246 02ad 46       		.byte	70
 1247 02ae 90       		.byte	-112
 1248 02af 04       		.byte	4
 1249 02b0 94       		.byte	-108
 1250 02b1 02       		.byte	2
 1251 02b2 95       		.byte	-107
 1252 02b3 20       		.byte	32
 1253 02b4 99       		.byte	-103
 1254 02b5 1F       		.byte	31
 1255 02b6 9A       		.byte	-102
 1256 02b7 01       		.byte	1
 1257 02b8 9C       		.byte	-100
 1258 02b9 02       		.byte	2
 1259 02ba A2       		.byte	-94
 1260 02bb 01       		.byte	1
 1261 02bc A4       		.byte	-92
 1262 02bd 04       		.byte	4
 1263 02be A5       		.byte	-91
 1264 02bf 0A       		.byte	10
 1265 02c0 A7       		.byte	-89
 1266 02c1 91       		.byte	-111
 1267 02c2 B0       		.byte	-80
 1268 02c3 02       		.byte	2
 1269 02c4 B1       		.byte	-79
 1270 02c5 07       		.byte	7
 1271 02c6 B2       		.byte	-78
 1272 02c7 04       		.byte	4
 1273 02c8 B3       		.byte	-77
 1274 02c9 18       		.byte	24
 1275 02ca B4       		.byte	-76
 1276 02cb 01       		.byte	1
 1277 02cc B5       		.byte	-75
 1278 02cd 20       		.byte	32
 1279 02ce B7       		.byte	-73
 1280 02cf C0       		.byte	-64
 1281 02d0 BE       		.byte	-66
 1282 02d1 11       		.byte	17
 1283 02d2 BF       		.byte	-65
 1284 02d3 50       		.byte	80
 1285 02d4 C0       		.byte	-64
 1286 02d5 63       		.byte	99
ARM GAS  C:\Users\Dell\AppData\Local\Temp\ccSPIrXH.s 			page 44


 1287 02d6 C1       		.byte	-63
 1288 02d7 04       		.byte	4
 1289 02d8 C2       		.byte	-62
 1290 02d9 02       		.byte	2
 1291 02da C4       		.byte	-60
 1292 02db 01       		.byte	1
 1293 02dc C5       		.byte	-59
 1294 02dd CE       		.byte	-50
 1295 02de C8       		.byte	-56
 1296 02df 03       		.byte	3
 1297 02e0 C9       		.byte	-55
 1298 02e1 FF       		.byte	-1
 1299 02e2 CA       		.byte	-54
 1300 02e3 FF       		.byte	-1
 1301 02e4 CB       		.byte	-53
 1302 02e5 FF       		.byte	-1
 1303 02e6 CC       		.byte	-52
 1304 02e7 62       		.byte	98
 1305 02e8 CD       		.byte	-51
 1306 02e9 A0       		.byte	-96
 1307 02ea CE       		.byte	-50
 1308 02eb F0       		.byte	-16
 1309 02ec CF       		.byte	-49
 1310 02ed 41       		.byte	65
 1311 02ee D0       		.byte	-48
 1312 02ef 0C       		.byte	12
 1313 02f0 D8       		.byte	-40
 1314 02f1 04       		.byte	4
 1315 02f2 D9       		.byte	-39
 1316 02f3 04       		.byte	4
 1317 02f4 DA       		.byte	-38
 1318 02f5 04       		.byte	4
 1319 02f6 DF       		.byte	-33
 1320 02f7 01       		.byte	1
 1321 02f8 E6       		.byte	-26
 1322 02f9 40       		.byte	64
 1323 02fa E7       		.byte	-25
 1324 02fb 02       		.byte	2
 1325 02fc E9       		.byte	-23
 1326 02fd 10       		.byte	16
 1327 02fe EA       		.byte	-22
 1328 02ff 30       		.byte	48
 1329 0300 EB       		.byte	-21
 1330 0301 10       		.byte	16
 1331 0302 ED       		.byte	-19
 1332 0303 10       		.byte	16
 1333 0304 EE       		.byte	-18
 1334 0305 10       		.byte	16
 1335 0306 EF       		.byte	-17
 1336 0307 12       		.byte	18
 1337 0308 00       		.byte	0
 1338 0309 A0       		.byte	-96
 1339 030a 01       		.byte	1
 1340 030b 20       		.byte	32
 1341 030c 02       		.byte	2
 1342 030d 10       		.byte	16
 1343 030e 03       		.byte	3
ARM GAS  C:\Users\Dell\AppData\Local\Temp\ccSPIrXH.s 			page 45


 1344 030f 02       		.byte	2
 1345 0310 06       		.byte	6
 1346 0311 26       		.byte	38
 1347 0312 08       		.byte	8
 1348 0313 80       		.byte	-128
 1349 0314 0A       		.byte	10
 1350 0315 65       		.byte	101
 1351 0316 0B       		.byte	11
 1352 0317 10       		.byte	16
 1353 0318 0F       		.byte	15
 1354 0319 02       		.byte	2
 1355 031a 10       		.byte	16
 1356 031b A0       		.byte	-96
 1357 031c 15       		.byte	21
 1358 031d 40       		.byte	64
 1359 031e 17       		.byte	23
 1360 031f 10       		.byte	16
 1361 0320 18       		.byte	24
 1362 0321 10       		.byte	16
 1363 0322 19       		.byte	25
 1364 0323 0A       		.byte	10
 1365 0324 1A       		.byte	26
 1366 0325 08       		.byte	8
 1367 0326 1F       		.byte	31
 1368 0327 04       		.byte	4
 1369 0328 20       		.byte	32
 1370 0329 49       		.byte	73
 1371 032a 21       		.byte	33
 1372 032b 04       		.byte	4
 1373 032c 26       		.byte	38
 1374 032d 40       		.byte	64
 1375 032e 27       		.byte	39
 1376 032f 08       		.byte	8
 1377 0330 28       		.byte	40
 1378 0331 20       		.byte	32
 1379 0332 2D       		.byte	45
 1380 0333 44       		.byte	68
 1381 0334 2E       		.byte	46
 1382 0335 22       		.byte	34
 1383 0336 2F       		.byte	47
 1384 0337 45       		.byte	69
 1385 0338 30       		.byte	48
 1386 0339 20       		.byte	32
 1387 033a 33       		.byte	51
 1388 033b 04       		.byte	4
 1389 033c 36       		.byte	54
 1390 033d 02       		.byte	2
 1391 033e 38       		.byte	56
 1392 033f 44       		.byte	68
 1393 0340 39       		.byte	57
 1394 0341 28       		.byte	40
 1395 0342 3A       		.byte	58
 1396 0343 10       		.byte	16
 1397 0344 3D       		.byte	61
 1398 0345 10       		.byte	16
 1399 0346 3F       		.byte	63
 1400 0347 20       		.byte	32
ARM GAS  C:\Users\Dell\AppData\Local\Temp\ccSPIrXH.s 			page 46


 1401 0348 40       		.byte	64
 1402 0349 91       		.byte	-111
 1403 034a 42       		.byte	66
 1404 034b 04       		.byte	4
 1405 034c 48       		.byte	72
 1406 034d 80       		.byte	-128
 1407 034e 49       		.byte	73
 1408 034f 20       		.byte	32
 1409 0350 4A       		.byte	74
 1410 0351 20       		.byte	32
 1411 0352 5C       		.byte	92
 1412 0353 02       		.byte	2
 1413 0354 5D       		.byte	93
 1414 0355 10       		.byte	16
 1415 0356 5E       		.byte	94
 1416 0357 80       		.byte	-128
 1417 0358 5F       		.byte	95
 1418 0359 08       		.byte	8
 1419 035a 7D       		.byte	125
 1420 035b 20       		.byte	32
 1421 035c 7F       		.byte	127
 1422 035d 04       		.byte	4
 1423 035e 84       		.byte	-124
 1424 035f 04       		.byte	4
 1425 0360 8A       		.byte	-118
 1426 0361 84       		.byte	-124
 1427 0362 91       		.byte	-111
 1428 0363 04       		.byte	4
 1429 0364 92       		.byte	-110
 1430 0365 04       		.byte	4
 1431 0366 93       		.byte	-109
 1432 0367 02       		.byte	2
 1433 0368 97       		.byte	-105
 1434 0369 95       		.byte	-107
 1435 036a 9B       		.byte	-101
 1436 036b 14       		.byte	20
 1437 036c 9C       		.byte	-100
 1438 036d 80       		.byte	-128
 1439 036e 9D       		.byte	-99
 1440 036f 29       		.byte	41
 1441 0370 A0       		.byte	-96
 1442 0371 40       		.byte	64
 1443 0372 A3       		.byte	-93
 1444 0373 10       		.byte	16
 1445 0374 A5       		.byte	-91
 1446 0375 18       		.byte	24
 1447 0376 A6       		.byte	-90
 1448 0377 A2       		.byte	-94
 1449 0378 A7       		.byte	-89
 1450 0379 08       		.byte	8
 1451 037a C0       		.byte	-64
 1452 037b E7       		.byte	-25
 1453 037c C2       		.byte	-62
 1454 037d 8F       		.byte	-113
 1455 037e C4       		.byte	-60
 1456 037f CC       		.byte	-52
 1457 0380 CA       		.byte	-54
ARM GAS  C:\Users\Dell\AppData\Local\Temp\ccSPIrXH.s 			page 47


 1458 0381 F2       		.byte	-14
 1459 0382 CC       		.byte	-52
 1460 0383 86       		.byte	-122
 1461 0384 CE       		.byte	-50
 1462 0385 2E       		.byte	46
 1463 0386 D0       		.byte	-48
 1464 0387 0F       		.byte	15
 1465 0388 D2       		.byte	-46
 1466 0389 04       		.byte	4
 1467 038a D6       		.byte	-42
 1468 038b F0       		.byte	-16
 1469 038c E2       		.byte	-30
 1470 038d 02       		.byte	2
 1471 038e E4       		.byte	-28
 1472 038f 02       		.byte	2
 1473 0390 E6       		.byte	-26
 1474 0391 20       		.byte	32
 1475 0392 01       		.byte	1
 1476 0393 08       		.byte	8
 1477 0394 04       		.byte	4
 1478 0395 02       		.byte	2
 1479 0396 05       		.byte	5
 1480 0397 04       		.byte	4
 1481 0398 0A       		.byte	10
 1482 0399 03       		.byte	3
 1483 039a 0B       		.byte	11
 1484 039b 63       		.byte	99
 1485 039c 0D       		.byte	13
 1486 039d 03       		.byte	3
 1487 039e 0E       		.byte	14
 1488 039f 03       		.byte	3
 1489 03a0 11       		.byte	17
 1490 03a1 EF       		.byte	-17
 1491 03a2 15       		.byte	21
 1492 03a3 0C       		.byte	12
 1493 03a4 16       		.byte	22
 1494 03a5 03       		.byte	3
 1495 03a6 19       		.byte	25
 1496 03a7 8C       		.byte	-116
 1497 03a8 1B       		.byte	27
 1498 03a9 43       		.byte	67
 1499 03aa 1C       		.byte	28
 1500 03ab 03       		.byte	3
 1501 03ac 1F       		.byte	31
 1502 03ad 80       		.byte	-128
 1503 03ae 20       		.byte	32
 1504 03af 03       		.byte	3
 1505 03b0 21       		.byte	33
 1506 03b1 81       		.byte	-127
 1507 03b2 23       		.byte	35
 1508 03b3 10       		.byte	16
 1509 03b4 25       		.byte	37
 1510 03b5 02       		.byte	2
 1511 03b6 28       		.byte	40
 1512 03b7 03       		.byte	3
 1513 03b8 29       		.byte	41
 1514 03b9 E3       		.byte	-29
ARM GAS  C:\Users\Dell\AppData\Local\Temp\ccSPIrXH.s 			page 48


 1515 03ba 2B       		.byte	43
 1516 03bb 0C       		.byte	12
 1517 03bc 2C       		.byte	44
 1518 03bd 01       		.byte	1
 1519 03be 2D       		.byte	45
 1520 03bf 8F       		.byte	-113
 1521 03c0 2F       		.byte	47
 1522 03c1 20       		.byte	32
 1523 03c2 30       		.byte	48
 1524 03c3 03       		.byte	3
 1525 03c4 33       		.byte	51
 1526 03c5 0F       		.byte	15
 1527 03c6 35       		.byte	53
 1528 03c7 EC       		.byte	-20
 1529 03c8 37       		.byte	55
 1530 03c9 10       		.byte	16
 1531 03ca 3A       		.byte	58
 1532 03cb 80       		.byte	-128
 1533 03cc 3B       		.byte	59
 1534 03cd 28       		.byte	40
 1535 03ce 56       		.byte	86
 1536 03cf 02       		.byte	2
 1537 03d0 57       		.byte	87
 1538 03d1 13       		.byte	19
 1539 03d2 58       		.byte	88
 1540 03d3 04       		.byte	4
 1541 03d4 59       		.byte	89
 1542 03d5 04       		.byte	4
 1543 03d6 5B       		.byte	91
 1544 03d7 04       		.byte	4
 1545 03d8 5F       		.byte	95
 1546 03d9 01       		.byte	1
 1547 03da 83       		.byte	-125
 1548 03db 01       		.byte	1
 1549 03dc 86       		.byte	-122
 1550 03dd 0C       		.byte	12
 1551 03de 9C       		.byte	-100
 1552 03df 0C       		.byte	12
 1553 03e0 9E       		.byte	-98
 1554 03e1 03       		.byte	3
 1555 03e2 A1       		.byte	-95
 1556 03e3 02       		.byte	2
 1557 03e4 A2       		.byte	-94
 1558 03e5 03       		.byte	3
 1559 03e6 A4       		.byte	-92
 1560 03e7 01       		.byte	1
 1561 03e8 A6       		.byte	-90
 1562 03e9 0E       		.byte	14
 1563 03ea A9       		.byte	-87
 1564 03eb 03       		.byte	3
 1565 03ec AA       		.byte	-86
 1566 03ed 08       		.byte	8
 1567 03ee AC       		.byte	-84
 1568 03ef 01       		.byte	1
 1569 03f0 AD       		.byte	-83
 1570 03f1 03       		.byte	3
 1571 03f2 AE       		.byte	-82
ARM GAS  C:\Users\Dell\AppData\Local\Temp\ccSPIrXH.s 			page 49


 1572 03f3 06       		.byte	6
 1573 03f4 B1       		.byte	-79
 1574 03f5 03       		.byte	3
 1575 03f6 B6       		.byte	-74
 1576 03f7 0F       		.byte	15
 1577 03f8 B9       		.byte	-71
 1578 03f9 02       		.byte	2
 1579 03fa BA       		.byte	-70
 1580 03fb 80       		.byte	-128
 1581 03fc BF       		.byte	-65
 1582 03fd 01       		.byte	1
 1583 03fe C0       		.byte	-64
 1584 03ff 01       		.byte	1
 1585 0400 C7       		.byte	-57
 1586 0401 04       		.byte	4
 1587 0402 C9       		.byte	-55
 1588 0403 FF       		.byte	-1
 1589 0404 CA       		.byte	-54
 1590 0405 07       		.byte	7
 1591 0406 CB       		.byte	-53
 1592 0407 FF       		.byte	-1
 1593 0408 CC       		.byte	-52
 1594 0409 40       		.byte	64
 1595 040a CD       		.byte	-51
 1596 040b 20       		.byte	32
 1597 040c CE       		.byte	-50
 1598 040d F0       		.byte	-16
 1599 040e CF       		.byte	-49
 1600 040f 05       		.byte	5
 1601 0410 D0       		.byte	-48
 1602 0411 08       		.byte	8
 1603 0412 D8       		.byte	-40
 1604 0413 04       		.byte	4
 1605 0414 D9       		.byte	-39
 1606 0415 04       		.byte	4
 1607 0416 DA       		.byte	-38
 1608 0417 04       		.byte	4
 1609 0418 DF       		.byte	-33
 1610 0419 01       		.byte	1
 1611 041a E0       		.byte	-32
 1612 041b 40       		.byte	64
 1613 041c E1       		.byte	-31
 1614 041d A8       		.byte	-88
 1615 041e E2       		.byte	-30
 1616 041f 40       		.byte	64
 1617 0420 E3       		.byte	-29
 1618 0421 20       		.byte	32
 1619 0422 00       		.byte	0
 1620 0423 14       		.byte	20
 1621 0424 01       		.byte	1
 1622 0425 08       		.byte	8
 1623 0426 03       		.byte	3
 1624 0427 02       		.byte	2
 1625 0428 07       		.byte	7
 1626 0429 10       		.byte	16
 1627 042a 0A       		.byte	10
 1628 042b 21       		.byte	33
ARM GAS  C:\Users\Dell\AppData\Local\Temp\ccSPIrXH.s 			page 50


 1629 042c 0E       		.byte	14
 1630 042d 02       		.byte	2
 1631 042e 11       		.byte	17
 1632 042f 40       		.byte	64
 1633 0430 12       		.byte	18
 1634 0431 48       		.byte	72
 1635 0432 14       		.byte	20
 1636 0433 01       		.byte	1
 1637 0434 15       		.byte	21
 1638 0435 01       		.byte	1
 1639 0436 16       		.byte	22
 1640 0437 24       		.byte	36
 1641 0438 19       		.byte	25
 1642 0439 01       		.byte	1
 1643 043a 1A       		.byte	26
 1644 043b 03       		.byte	3
 1645 043c 1E       		.byte	30
 1646 043d 02       		.byte	2
 1647 043e 1F       		.byte	31
 1648 043f 40       		.byte	64
 1649 0440 20       		.byte	32
 1650 0441 20       		.byte	32
 1651 0442 21       		.byte	33
 1652 0443 80       		.byte	-128
 1653 0444 22       		.byte	34
 1654 0445 18       		.byte	24
 1655 0446 27       		.byte	39
 1656 0447 40       		.byte	64
 1657 0448 29       		.byte	41
 1658 0449 28       		.byte	40
 1659 044a 2A       		.byte	42
 1660 044b 02       		.byte	2
 1661 044c 2B       		.byte	43
 1662 044d 02       		.byte	2
 1663 044e 2C       		.byte	44
 1664 044f 01       		.byte	1
 1665 0450 2E       		.byte	46
 1666 0451 20       		.byte	32
 1667 0452 2F       		.byte	47
 1668 0453 45       		.byte	69
 1669 0454 31       		.byte	49
 1670 0455 88       		.byte	-120
 1671 0456 32       		.byte	50
 1672 0457 11       		.byte	17
 1673 0458 38       		.byte	56
 1674 0459 50       		.byte	80
 1675 045a 3A       		.byte	58
 1676 045b 40       		.byte	64
 1677 045c 3B       		.byte	59
 1678 045d 05       		.byte	5
 1679 045e 3F       		.byte	63
 1680 045f 02       		.byte	2
 1681 0460 47       		.byte	71
 1682 0461 40       		.byte	64
 1683 0462 4D       		.byte	77
 1684 0463 01       		.byte	1
 1685 0464 4F       		.byte	79
ARM GAS  C:\Users\Dell\AppData\Local\Temp\ccSPIrXH.s 			page 51


 1686 0465 02       		.byte	2
 1687 0466 56       		.byte	86
 1688 0467 04       		.byte	4
 1689 0468 57       		.byte	87
 1690 0469 08       		.byte	8
 1691 046a 59       		.byte	89
 1692 046b 02       		.byte	2
 1693 046c 68       		.byte	104
 1694 046d 20       		.byte	32
 1695 046e 69       		.byte	105
 1696 046f 20       		.byte	32
 1697 0470 6A       		.byte	106
 1698 0471 40       		.byte	64
 1699 0472 71       		.byte	113
 1700 0473 08       		.byte	8
 1701 0474 73       		.byte	115
 1702 0475 05       		.byte	5
 1703 0476 7A       		.byte	122
 1704 0477 02       		.byte	2
 1705 0478 7B       		.byte	123
 1706 0479 01       		.byte	1
 1707 047a 8C       		.byte	-116
 1708 047b 20       		.byte	32
 1709 047c 8D       		.byte	-115
 1710 047d 40       		.byte	64
 1711 047e 8E       		.byte	-114
 1712 047f 02       		.byte	2
 1713 0480 90       		.byte	-112
 1714 0481 54       		.byte	84
 1715 0482 93       		.byte	-109
 1716 0483 0A       		.byte	10
 1717 0484 95       		.byte	-107
 1718 0485 20       		.byte	32
 1719 0486 96       		.byte	-106
 1720 0487 61       		.byte	97
 1721 0488 97       		.byte	-105
 1722 0489 85       		.byte	-123
 1723 048a 99       		.byte	-103
 1724 048b 22       		.byte	34
 1725 048c 9B       		.byte	-101
 1726 048d 10       		.byte	16
 1727 048e 9C       		.byte	-100
 1728 048f 20       		.byte	32
 1729 0490 9D       		.byte	-99
 1730 0491 01       		.byte	1
 1731 0492 9E       		.byte	-98
 1732 0493 04       		.byte	4
 1733 0494 A3       		.byte	-93
 1734 0495 02       		.byte	2
 1735 0496 A4       		.byte	-92
 1736 0497 30       		.byte	48
 1737 0498 A5       		.byte	-91
 1738 0499 08       		.byte	8
 1739 049a A6       		.byte	-90
 1740 049b 02       		.byte	2
 1741 049c A7       		.byte	-89
 1742 049d 09       		.byte	9
ARM GAS  C:\Users\Dell\AppData\Local\Temp\ccSPIrXH.s 			page 52


 1743 049e AC       		.byte	-84
 1744 049f 02       		.byte	2
 1745 04a0 AD       		.byte	-83
 1746 04a1 04       		.byte	4
 1747 04a2 C0       		.byte	-64
 1748 04a3 27       		.byte	39
 1749 04a4 C2       		.byte	-62
 1750 04a5 85       		.byte	-123
 1751 04a6 C4       		.byte	-60
 1752 04a7 FB       		.byte	-5
 1753 04a8 CA       		.byte	-54
 1754 04a9 BF       		.byte	-65
 1755 04aa CC       		.byte	-52
 1756 04ab 0F       		.byte	15
 1757 04ac CE       		.byte	-50
 1758 04ad 8F       		.byte	-113
 1759 04ae D0       		.byte	-48
 1760 04af 10       		.byte	16
 1761 04b0 D6       		.byte	-42
 1762 04b1 01       		.byte	1
 1763 04b2 E0       		.byte	-32
 1764 04b3 08       		.byte	8
 1765 04b4 E4       		.byte	-28
 1766 04b5 01       		.byte	1
 1767 04b6 EA       		.byte	-22
 1768 04b7 01       		.byte	1
 1769 04b8 32       		.byte	50
 1770 04b9 20       		.byte	32
 1771 04ba 36       		.byte	54
 1772 04bb 80       		.byte	-128
 1773 04bc CC       		.byte	-52
 1774 04bd 30       		.byte	48
 1775 04be 0C       		.byte	12
 1776 04bf 40       		.byte	64
 1777 04c0 84       		.byte	-124
 1778 04c1 40       		.byte	64
 1779 04c2 A6       		.byte	-90
 1780 04c3 A0       		.byte	-96
 1781 04c4 C2       		.byte	-62
 1782 04c5 80       		.byte	-128
 1783 04c6 E4       		.byte	-28
 1784 04c7 10       		.byte	16
 1785 04c8 12       		.byte	18
 1786 04c9 80       		.byte	-128
 1787 04ca 3E       		.byte	62
 1788 04cb 10       		.byte	16
 1789 04cc A6       		.byte	-90
 1790 04cd A0       		.byte	-96
 1791 04ce C4       		.byte	-60
 1792 04cf 10       		.byte	16
 1793 04d0 CE       		.byte	-50
 1794 04d1 20       		.byte	32
 1795 04d2 86       		.byte	-122
 1796 04d3 20       		.byte	32
 1797 04d4 96       		.byte	-106
 1798 04d5 10       		.byte	16
 1799 04d6 A6       		.byte	-90
ARM GAS  C:\Users\Dell\AppData\Local\Temp\ccSPIrXH.s 			page 53


 1800 04d7 20       		.byte	32
 1801 04d8 E6       		.byte	-26
 1802 04d9 40       		.byte	64
 1803 04da 67       		.byte	103
 1804 04db 20       		.byte	32
 1805 04dc 84       		.byte	-124
 1806 04dd 08       		.byte	8
 1807 04de 8A       		.byte	-118
 1808 04df 02       		.byte	2
 1809 04e0 96       		.byte	-106
 1810 04e1 10       		.byte	16
 1811 04e2 D8       		.byte	-40
 1812 04e3 80       		.byte	-128
 1813 04e4 E2       		.byte	-30
 1814 04e5 40       		.byte	64
 1815 04e6 12       		.byte	18
 1816 04e7 20       		.byte	32
 1817 04e8 16       		.byte	22
 1818 04e9 40       		.byte	64
 1819 04ea 70       		.byte	112
 1820 04eb 08       		.byte	8
 1821 04ec 7E       		.byte	126
 1822 04ed 02       		.byte	2
 1823 04ee 82       		.byte	-126
 1824 04ef 20       		.byte	32
 1825 04f0 86       		.byte	-122
 1826 04f1 40       		.byte	64
 1827 04f2 8B       		.byte	-117
 1828 04f3 10       		.byte	16
 1829 04f4 97       		.byte	-105
 1830 04f5 20       		.byte	32
 1831 04f6 A0       		.byte	-96
 1832 04f7 08       		.byte	8
 1833 04f8 A2       		.byte	-94
 1834 04f9 02       		.byte	2
 1835 04fa AA       		.byte	-86
 1836 04fb 10       		.byte	16
 1837 04fc C4       		.byte	-60
 1838 04fd 30       		.byte	48
 1839 04fe DC       		.byte	-36
 1840 04ff 80       		.byte	-128
 1841 0500 DE       		.byte	-34
 1842 0501 20       		.byte	32
 1843 0502 E0       		.byte	-32
 1844 0503 10       		.byte	16
 1845 0504 E4       		.byte	-28
 1846 0505 80       		.byte	-128
 1847 0506 EA       		.byte	-22
 1848 0507 80       		.byte	-128
 1849 0508 13       		.byte	19
 1850 0509 24       		.byte	36
 1851 050a 16       		.byte	22
 1852 050b 80       		.byte	-128
 1853 050c 7B       		.byte	123
 1854 050d 10       		.byte	16
 1855 050e 7F       		.byte	127
 1856 050f 40       		.byte	64
ARM GAS  C:\Users\Dell\AppData\Local\Temp\ccSPIrXH.s 			page 54


 1857 0510 87       		.byte	-121
 1858 0511 44       		.byte	68
 1859 0512 8A       		.byte	-118
 1860 0513 80       		.byte	-128
 1861 0514 C4       		.byte	-60
 1862 0515 0E       		.byte	14
 1863 0516 DE       		.byte	-34
 1864 0517 03       		.byte	3
 1865 0518 E6       		.byte	-26
 1866 0519 04       		.byte	4
 1867 051a 12       		.byte	18
 1868 051b 80       		.byte	-128
 1869 051c 73       		.byte	115
 1870 051d 40       		.byte	64
 1871 051e 83       		.byte	-125
 1872 051f 10       		.byte	16
 1873 0520 87       		.byte	-121
 1874 0521 40       		.byte	64
 1875 0522 8E       		.byte	-114
 1876 0523 80       		.byte	-128
 1877 0524 93       		.byte	-109
 1878 0525 40       		.byte	64
 1879 0526 97       		.byte	-105
 1880 0527 80       		.byte	-128
 1881 0528 A7       		.byte	-89
 1882 0529 10       		.byte	16
 1883 052a AB       		.byte	-85
 1884 052b 20       		.byte	32
 1885 052c C4       		.byte	-60
 1886 052d 08       		.byte	8
 1887 052e DC       		.byte	-36
 1888 052f 01       		.byte	1
 1889 0530 E2       		.byte	-30
 1890 0531 02       		.byte	2
 1891 0532 00       		.byte	0
 1892 0533 03       		.byte	3
 1893 0534 08       		.byte	8
 1894 0535 02       		.byte	2
 1895 0536 0C       		.byte	12
 1896 0537 01       		.byte	1
 1897 0538 10       		.byte	16
 1898 0539 01       		.byte	1
 1899 053a 1C       		.byte	28
 1900 053b 01       		.byte	1
 1901 053c 00       		.byte	0
 1902 053d 0F       		.byte	15
 1903 053e 03       		.byte	3
 1904 053f C0       		.byte	-64
 1905              		.type	cy_cfg_addr_table.5013, %object
 1906              		.size	cy_cfg_addr_table.5013, 104
 1907              	cy_cfg_addr_table.5013:
 1908 0540 024F0040 		.word	1073762050
 1909 0544 02640040 		.word	1073767426
 1910 0548 02650040 		.word	1073767682
 1911 054c 4D020140 		.word	1073807949
 1912 0550 28030140 		.word	1073808168
 1913 0554 01050140 		.word	1073808641
ARM GAS  C:\Users\Dell\AppData\Local\Temp\ccSPIrXH.s 			page 55


 1914 0558 02070140 		.word	1073809154
 1915 055c 53080140 		.word	1073809491
 1916 0560 36090140 		.word	1073809718
 1917 0564 04140140 		.word	1073812484
 1918 0568 08150140 		.word	1073812744
 1919 056c 03170140 		.word	1073813251
 1920 0570 4C180140 		.word	1073813580
 1921 0574 45190140 		.word	1073813829
 1922 0578 481A0140 		.word	1073814088
 1923 057c 4B1B0140 		.word	1073814347
 1924 0580 03400140 		.word	1073823747
 1925 0584 05410140 		.word	1073824005
 1926 0588 05420140 		.word	1073824261
 1927 058c 04430140 		.word	1073824516
 1928 0590 06480140 		.word	1073825798
 1929 0594 11490140 		.word	1073826065
 1930 0598 094C0140 		.word	1073826825
 1931 059c 0C4D0140 		.word	1073827084
 1932 05a0 05500140 		.word	1073827845
 1933 05a4 02510140 		.word	1073828098
 1934              		.type	BS_IOPINS0_0_VAL.5009, %object
 1935              		.size	BS_IOPINS0_0_VAL.5009, 8
 1936              	BS_IOPINS0_0_VAL.5009:
 1937 05a8 80       		.byte	-128
 1938 05a9 01       		.byte	1
 1939 05aa 01       		.byte	1
 1940 05ab 00       		.byte	0
 1941 05ac 00       		.byte	0
 1942 05ad 00       		.byte	0
 1943 05ae 00       		.byte	0
 1944 05af 00       		.byte	0
 1945              		.type	BS_IOPINS0_7_VAL.5010, %object
 1946              		.size	BS_IOPINS0_7_VAL.5010, 10
 1947              	BS_IOPINS0_7_VAL.5010:
 1948 05b0 83       		.byte	-125
 1949 05b1 00       		.byte	0
 1950 05b2 40       		.byte	64
 1951 05b3 80       		.byte	-128
 1952 05b4 83       		.byte	-125
 1953 05b5 00       		.byte	0
 1954 05b6 83       		.byte	-125
 1955 05b7 00       		.byte	0
 1956 05b8 00       		.byte	0
 1957 05b9 00       		.byte	0
 1958 05ba 0000     		.space	2
 1959              		.type	BS_IOPINS0_1_VAL.5011, %object
 1960              		.size	BS_IOPINS0_1_VAL.5011, 8
 1961              	BS_IOPINS0_1_VAL.5011:
 1962 05bc 00       		.byte	0
 1963 05bd 0B       		.byte	11
 1964 05be 0B       		.byte	11
 1965 05bf 00       		.byte	0
 1966 05c0 00       		.byte	0
 1967 05c1 00       		.byte	0
 1968 05c2 00       		.byte	0
 1969 05c3 00       		.byte	0
 1970              		.type	BS_IOPINS0_2_VAL.5012, %object
ARM GAS  C:\Users\Dell\AppData\Local\Temp\ccSPIrXH.s 			page 56


 1971              		.size	BS_IOPINS0_2_VAL.5012, 8
 1972              	BS_IOPINS0_2_VAL.5012:
 1973 05c4 00       		.byte	0
 1974 05c5 F0       		.byte	-16
 1975 05c6 F0       		.byte	-16
 1976 05c7 00       		.byte	0
 1977 05c8 00       		.byte	0
 1978 05c9 00       		.byte	0
 1979 05ca 00       		.byte	0
 1980 05cb 00       		.byte	0
 1981              		.type	BS_IOPORT_7_VAL.5025, %object
 1982              		.size	BS_IOPORT_7_VAL.5025, 6
 1983              	BS_IOPORT_7_VAL.5025:
 1984 05cc 02       		.byte	2
 1985 05cd 80       		.byte	-128
 1986 05ce 00       		.byte	0
 1987 05cf 00       		.byte	0
 1988 05d0 43       		.byte	67
 1989 05d1 00       		.byte	0
 1990              		.text
 1991              	.Letext0:
 1992              		.file 2 "c:\\program files (x86)\\cypress\\psoc creator\\4.4\\psoc creator\\import\\gnu\\arm\\5.4.
 1993              		.file 3 "Generated_Source\\PSoC5\\cytypes.h"
 1994              		.file 4 "Generated_Source\\PSoC5\\CyLib.h"