ARM GAS  C:\Users\Dell\AppData\Local\Temp\cc7lEuPV.s 			page 1


   1              		.syntax unified
   2              		.cpu cortex-m3
   3              		.fpu softvfp
   4              		.eabi_attribute 20, 1
   5              		.eabi_attribute 21, 1
   6              		.eabi_attribute 23, 3
   7              		.eabi_attribute 24, 1
   8              		.eabi_attribute 25, 1
   9              		.eabi_attribute 26, 1
  10              		.eabi_attribute 30, 1
  11              		.eabi_attribute 34, 1
  12              		.eabi_attribute 18, 4
  13              		.thumb
  14              		.syntax unified
  15              		.file	"I2C_LCD.c"
  16              		.text
  17              	.Ltext0:
  18              		.cfi_sections	.debug_frame
  19              		.section	.text.I2C_LCD_WrDataToBuff,"ax",%progbits
  20              		.align	2
  21              		.thumb
  22              		.thumb_func
  23              		.type	I2C_LCD_WrDataToBuff, %function
  24              	I2C_LCD_WrDataToBuff:
  25              	.LFB6:
  26              		.file 1 "Generated_Source\\PSoC5\\I2C_LCD.c"
   1:Generated_Source\PSoC5/I2C_LCD.c **** /*******************************************************************************
   2:Generated_Source\PSoC5/I2C_LCD.c **** * File Name: I2C_LCD.c
   3:Generated_Source\PSoC5/I2C_LCD.c **** * Version 1.20
   4:Generated_Source\PSoC5/I2C_LCD.c **** *
   5:Generated_Source\PSoC5/I2C_LCD.c **** * Description:
   6:Generated_Source\PSoC5/I2C_LCD.c **** *  This file provides source code for the I2C LCD component's API.
   7:Generated_Source\PSoC5/I2C_LCD.c **** *
   8:Generated_Source\PSoC5/I2C_LCD.c **** * Note:
   9:Generated_Source\PSoC5/I2C_LCD.c **** *
  10:Generated_Source\PSoC5/I2C_LCD.c **** ********************************************************************************
  11:Generated_Source\PSoC5/I2C_LCD.c **** * Copyright 2013-2014, Cypress Semiconductor Corporation.  All rights reserved.
  12:Generated_Source\PSoC5/I2C_LCD.c **** * You may use this file only in accordance with the license, terms, conditions,
  13:Generated_Source\PSoC5/I2C_LCD.c **** * disclaimers, and limitations in the end user license agreement accompanying
  14:Generated_Source\PSoC5/I2C_LCD.c **** * the software package with which this file was provided.
  15:Generated_Source\PSoC5/I2C_LCD.c **** *******************************************************************************/
  16:Generated_Source\PSoC5/I2C_LCD.c **** 
  17:Generated_Source\PSoC5/I2C_LCD.c **** #include "I2C_LCD.h"
  18:Generated_Source\PSoC5/I2C_LCD.c **** 
  19:Generated_Source\PSoC5/I2C_LCD.c **** 
  20:Generated_Source\PSoC5/I2C_LCD.c **** /* Internal function ptototypes */
  21:Generated_Source\PSoC5/I2C_LCD.c **** static void I2C_LCD_WrDataToBuff(uint8 dByte) CYREENTRANT;
  22:Generated_Source\PSoC5/I2C_LCD.c **** static void I2C_LCD_WrCntrlPatt(uint8 cmdIndex) CYREENTRANT;
  23:Generated_Source\PSoC5/I2C_LCD.c **** static void I2C_LCD_SendSequence(void) CYREENTRANT;
  24:Generated_Source\PSoC5/I2C_LCD.c **** 
  25:Generated_Source\PSoC5/I2C_LCD.c **** #if (I2C_LCD_COMMAND_FORMAT == I2C_LCD_NXP_PCF2119X)
  26:Generated_Source\PSoC5/I2C_LCD.c ****     static void I2C_LCD_SendCmd(uint8 cmd) CYREENTRANT;
  27:Generated_Source\PSoC5/I2C_LCD.c **** #endif /* I2C_LCD_COMMAND_FORMAT == I2C_LCD_NXP_PCF2119X */
  28:Generated_Source\PSoC5/I2C_LCD.c **** 
  29:Generated_Source\PSoC5/I2C_LCD.c **** uint8 I2C_LCD_initVar = 0u;
  30:Generated_Source\PSoC5/I2C_LCD.c **** 
  31:Generated_Source\PSoC5/I2C_LCD.c **** /* Buffer that holds data to be send to LCD slave */
ARM GAS  C:\Users\Dell\AppData\Local\Temp\cc7lEuPV.s 			page 2


  32:Generated_Source\PSoC5/I2C_LCD.c **** static uint8 I2C_LCD_buff[I2C_LCD_BUFF_SIZE];
  33:Generated_Source\PSoC5/I2C_LCD.c **** 
  34:Generated_Source\PSoC5/I2C_LCD.c **** /* Need to have I2C_LCD_buffIndex of different size to avoid MISRA
  35:Generated_Source\PSoC5/I2C_LCD.c **** * warning when SCB based I2C Master is used. 
  36:Generated_Source\PSoC5/I2C_LCD.c **** */
  37:Generated_Source\PSoC5/I2C_LCD.c **** #if(I2C_LCD_IS_SCB_MASTER_USED)
  38:Generated_Source\PSoC5/I2C_LCD.c ****     /* Variable used for buffer indexing */
  39:Generated_Source\PSoC5/I2C_LCD.c ****     static uint32 I2C_LCD_buffIndex = 0u;
  40:Generated_Source\PSoC5/I2C_LCD.c ****     /* Variable stores the I2C address */
  41:Generated_Source\PSoC5/I2C_LCD.c ****     static uint32 I2C_LCD_address = I2C_LCD_DEFAULT_I2C_ADDRESS;
  42:Generated_Source\PSoC5/I2C_LCD.c **** #else
  43:Generated_Source\PSoC5/I2C_LCD.c ****     /* Variable used for buffer indexing */
  44:Generated_Source\PSoC5/I2C_LCD.c ****     static uint8 I2C_LCD_buffIndex = 0u;
  45:Generated_Source\PSoC5/I2C_LCD.c ****     /* Variable stores the I2C address */
  46:Generated_Source\PSoC5/I2C_LCD.c ****     static uint8 I2C_LCD_address = I2C_LCD_DEFAULT_I2C_ADDRESS;
  47:Generated_Source\PSoC5/I2C_LCD.c **** #endif /* (I2C_LCD_IS_SCB_MASTER_USED) */
  48:Generated_Source\PSoC5/I2C_LCD.c **** 
  49:Generated_Source\PSoC5/I2C_LCD.c **** /********************
  50:Generated_Source\PSoC5/I2C_LCD.c **** * Generated Code
  51:Generated_Source\PSoC5/I2C_LCD.c **** ********************/
  52:Generated_Source\PSoC5/I2C_LCD.c **** /* Array with command patterns */
  53:Generated_Source\PSoC5/I2C_LCD.c **** static const uint8 CYCODE I2C_LCD_cmdPatt[16u][3u] =
  54:Generated_Source\PSoC5/I2C_LCD.c **** {
  55:Generated_Source\PSoC5/I2C_LCD.c ****     /* Command pattern for writing data */
  56:Generated_Source\PSoC5/I2C_LCD.c ****     {0x01u, 0x40u, 0x00u},
  57:Generated_Source\PSoC5/I2C_LCD.c ****     /* Display on, cursor off */
  58:Generated_Source\PSoC5/I2C_LCD.c ****     {0x02u, 0x00u, 0x0Cu},
  59:Generated_Source\PSoC5/I2C_LCD.c ****     /* Display and cursor off */
  60:Generated_Source\PSoC5/I2C_LCD.c ****     {0x02u, 0x00u, 0x08u},
  61:Generated_Source\PSoC5/I2C_LCD.c ****     /* Set cursor position */
  62:Generated_Source\PSoC5/I2C_LCD.c ****     {0x01u, 0x00u, 0x80u},
  63:Generated_Source\PSoC5/I2C_LCD.c ****     /* Cursor home */
  64:Generated_Source\PSoC5/I2C_LCD.c ****     {0x02u, 0x00u, 0x02u},
  65:Generated_Source\PSoC5/I2C_LCD.c ****     /* Reset cursor position */
  66:Generated_Source\PSoC5/I2C_LCD.c ****     {0x02u, 0x00u, 0x03u},
  67:Generated_Source\PSoC5/I2C_LCD.c ****     /* Move cursor left one place */
  68:Generated_Source\PSoC5/I2C_LCD.c ****     {0x02u, 0x00u, 0x10u},
  69:Generated_Source\PSoC5/I2C_LCD.c ****     /* Move cursor right one place */
  70:Generated_Source\PSoC5/I2C_LCD.c ****     {0x02u, 0x00u, 0x14u},
  71:Generated_Source\PSoC5/I2C_LCD.c ****     /* Underline cursor on */
  72:Generated_Source\PSoC5/I2C_LCD.c ****     {0x02u, 0x00u, 0x0Eu},
  73:Generated_Source\PSoC5/I2C_LCD.c ****     /* Display - on, cursor - off, set cursor wink */
  74:Generated_Source\PSoC5/I2C_LCD.c ****     {0x02u, 0x00u, 0x0Du},
  75:Generated_Source\PSoC5/I2C_LCD.c ****     /* Display - on, cursor - off, set cursor blink */
  76:Generated_Source\PSoC5/I2C_LCD.c ****     {0x02u, 0x00u, 0x0Fu},
  77:Generated_Source\PSoC5/I2C_LCD.c ****     /* Clear screen */
  78:Generated_Source\PSoC5/I2C_LCD.c ****     {0x02u, 0x00u, 0x01u},
  79:Generated_Source\PSoC5/I2C_LCD.c ****     /* Load custom character */
  80:Generated_Source\PSoC5/I2C_LCD.c ****     {0x02u, 0x00u, 0x40u},
  81:Generated_Source\PSoC5/I2C_LCD.c ****     /* Set display for 2 lines and 16 characters */
  82:Generated_Source\PSoC5/I2C_LCD.c ****     {0x02u, 0x00u, 0x24u},
  83:Generated_Source\PSoC5/I2C_LCD.c ****     /* Move cursor/shift display right (cursor position auto increment) */
  84:Generated_Source\PSoC5/I2C_LCD.c ****     {0x02u, 0x00u, 0x06u},
  85:Generated_Source\PSoC5/I2C_LCD.c ****     /* Move cursor/shift display right (cursor position auto decrement) */
  86:Generated_Source\PSoC5/I2C_LCD.c ****     {0x02u, 0x00u, 0x04u}
  87:Generated_Source\PSoC5/I2C_LCD.c **** };
  88:Generated_Source\PSoC5/I2C_LCD.c **** 
ARM GAS  C:\Users\Dell\AppData\Local\Temp\cc7lEuPV.s 			page 3


  89:Generated_Source\PSoC5/I2C_LCD.c **** /********************
  90:Generated_Source\PSoC5/I2C_LCD.c **** * Generated Code 
  91:Generated_Source\PSoC5/I2C_LCD.c **** ********************/
  92:Generated_Source\PSoC5/I2C_LCD.c **** /* Optional: Array with custom character set */
  93:Generated_Source\PSoC5/I2C_LCD.c **** uint8 const CYCODE I2C_LCD_customFonts[64u] =
  94:Generated_Source\PSoC5/I2C_LCD.c **** {
  95:Generated_Source\PSoC5/I2C_LCD.c ****     0x00u, 0x00u, 0x00u, 0x00u, 0x00u, 0x00u, 0x00u, 0x00u,
  96:Generated_Source\PSoC5/I2C_LCD.c ****     0x10u, 0x10u, 0x10u, 0x10u, 0x10u, 0x10u, 0x10u, 0x10u,
  97:Generated_Source\PSoC5/I2C_LCD.c ****     0x18u, 0x18u, 0x18u, 0x18u, 0x18u, 0x18u, 0x18u, 0x18u,
  98:Generated_Source\PSoC5/I2C_LCD.c ****     0x1Cu, 0x1Cu, 0x1Cu, 0x1Cu, 0x1Cu, 0x1Cu, 0x1Cu, 0x1Cu,
  99:Generated_Source\PSoC5/I2C_LCD.c ****     0x1Eu, 0x1Eu, 0x1Eu, 0x1Eu, 0x1Eu, 0x1Eu, 0x1Eu, 0x1Eu,
 100:Generated_Source\PSoC5/I2C_LCD.c ****     0x1Fu, 0x1Fu, 0x1Fu, 0x1Fu, 0x1Fu, 0x1Fu, 0x1Fu, 0x1Fu,
 101:Generated_Source\PSoC5/I2C_LCD.c ****     0x00u, 0x00u, 0x00u, 0x00u, 0x00u, 0x00u, 0x00u, 0x00u,
 102:Generated_Source\PSoC5/I2C_LCD.c ****     0x00u, 0x00u, 0x00u, 0x00u, 0x00u, 0x00u, 0x00u, 0x00u
 103:Generated_Source\PSoC5/I2C_LCD.c **** };
 104:Generated_Source\PSoC5/I2C_LCD.c **** 
 105:Generated_Source\PSoC5/I2C_LCD.c **** 
 106:Generated_Source\PSoC5/I2C_LCD.c **** /*******************************************************************************
 107:Generated_Source\PSoC5/I2C_LCD.c **** * Function Name: I2C_LCD_Init
 108:Generated_Source\PSoC5/I2C_LCD.c **** ********************************************************************************
 109:Generated_Source\PSoC5/I2C_LCD.c **** *
 110:Generated_Source\PSoC5/I2C_LCD.c **** * Summary:
 111:Generated_Source\PSoC5/I2C_LCD.c **** *  Performs initialization required for the component's normal work.
 112:Generated_Source\PSoC5/I2C_LCD.c **** *  I2C_LCD_Init() also loads the custom character set if it was defined in the
 113:Generated_Source\PSoC5/I2C_LCD.c **** *  Configure dialog.
 114:Generated_Source\PSoC5/I2C_LCD.c **** *
 115:Generated_Source\PSoC5/I2C_LCD.c **** * Parameters:
 116:Generated_Source\PSoC5/I2C_LCD.c **** *  None
 117:Generated_Source\PSoC5/I2C_LCD.c **** *
 118:Generated_Source\PSoC5/I2C_LCD.c **** * Return:
 119:Generated_Source\PSoC5/I2C_LCD.c **** *  None
 120:Generated_Source\PSoC5/I2C_LCD.c **** *
 121:Generated_Source\PSoC5/I2C_LCD.c **** * Reentrant:
 122:Generated_Source\PSoC5/I2C_LCD.c **** *  No
 123:Generated_Source\PSoC5/I2C_LCD.c **** *
 124:Generated_Source\PSoC5/I2C_LCD.c **** *******************************************************************************/
 125:Generated_Source\PSoC5/I2C_LCD.c **** void I2C_LCD_Init(void) 
 126:Generated_Source\PSoC5/I2C_LCD.c **** {
 127:Generated_Source\PSoC5/I2C_LCD.c ****     /* Following part of code is only applicable for NXP LCDs */
 128:Generated_Source\PSoC5/I2C_LCD.c ****     #if (I2C_LCD_COMMAND_FORMAT == I2C_LCD_NXP_PCF2119X)
 129:Generated_Source\PSoC5/I2C_LCD.c ****         /* Select Extended Instruction set, 2x16 display */
 130:Generated_Source\PSoC5/I2C_LCD.c ****         I2C_LCD_SendCmd(I2C_LCD_SET_EXTENDED_FUNC);
 131:Generated_Source\PSoC5/I2C_LCD.c ****         /* Split screen configuration  */
 132:Generated_Source\PSoC5/I2C_LCD.c ****         I2C_LCD_SendCmd(I2C_LCD_SPLIT_SCREEN);
 133:Generated_Source\PSoC5/I2C_LCD.c ****         /* LCD Module format: left to right column, and top to bottom rows  */
 134:Generated_Source\PSoC5/I2C_LCD.c ****         I2C_LCD_SendCmd(I2C_LCD_DISP_CONF);
 135:Generated_Source\PSoC5/I2C_LCD.c ****         /* Icon mode not supported. Disable all icon enable settings */
 136:Generated_Source\PSoC5/I2C_LCD.c ****         I2C_LCD_SendCmd(I2C_LCD_ICON_CTL);
 137:Generated_Source\PSoC5/I2C_LCD.c ****         /* Set LCD bias voltage to 4.38 V since LCD module datasheet recommends 4.4 V */
 138:Generated_Source\PSoC5/I2C_LCD.c ****         I2C_LCD_SendCmd(I2C_LCD_VLCD_SET);
 139:Generated_Source\PSoC5/I2C_LCD.c ****         /* Select Standard Instruction set, 2x16 display */
 140:Generated_Source\PSoC5/I2C_LCD.c ****         I2C_LCD_SendCmd(I2C_LCD_FUNCTION_SET_STANDARD);
 141:Generated_Source\PSoC5/I2C_LCD.c ****     #endif /* (I2C_LCD_COMMAND_FORMAT == I2C_LCD_NXP_PCF2119X) */
 142:Generated_Source\PSoC5/I2C_LCD.c ****     
 143:Generated_Source\PSoC5/I2C_LCD.c ****     /* Configure LCD for 2 lines and 16 characters */
 144:Generated_Source\PSoC5/I2C_LCD.c ****     I2C_LCD_WriteControl(I2C_LCD_DISPLAY_2_LINES_5x10);
 145:Generated_Source\PSoC5/I2C_LCD.c ****     /* Turn on both display and cursor */
ARM GAS  C:\Users\Dell\AppData\Local\Temp\cc7lEuPV.s 			page 4


 146:Generated_Source\PSoC5/I2C_LCD.c ****     I2C_LCD_WriteControl(I2C_LCD_DISPLAY_CURSOR_ON);
 147:Generated_Source\PSoC5/I2C_LCD.c ****     /* Turn on cursor auto incrementing */
 148:Generated_Source\PSoC5/I2C_LCD.c ****     I2C_LCD_WriteControl(I2C_LCD_CURSOR_AUTO_INCR_ON);
 149:Generated_Source\PSoC5/I2C_LCD.c ****     /* Turn off cursor underlining */
 150:Generated_Source\PSoC5/I2C_LCD.c ****     I2C_LCD_WriteControl(I2C_LCD_DISPLAY_ON_CURSOR_OFF);
 151:Generated_Source\PSoC5/I2C_LCD.c ****     /* Clear the Display */
 152:Generated_Source\PSoC5/I2C_LCD.c ****     I2C_LCD_ClearDisplay();
 153:Generated_Source\PSoC5/I2C_LCD.c ****     
 154:Generated_Source\PSoC5/I2C_LCD.c ****     /* Load custom character set */
 155:Generated_Source\PSoC5/I2C_LCD.c ****     #if(I2C_LCD_CUSTOM_CHAR_SET != I2C_LCD_NONE)
 156:Generated_Source\PSoC5/I2C_LCD.c ****         I2C_LCD_LoadCustomFonts(I2C_LCD_customFonts);
 157:Generated_Source\PSoC5/I2C_LCD.c ****     #endif /* I2C_LCD_CUSTOM_CHAR_SET != I2C_LCD_NONE */
 158:Generated_Source\PSoC5/I2C_LCD.c **** }
 159:Generated_Source\PSoC5/I2C_LCD.c **** 
 160:Generated_Source\PSoC5/I2C_LCD.c **** 
 161:Generated_Source\PSoC5/I2C_LCD.c **** /*******************************************************************************
 162:Generated_Source\PSoC5/I2C_LCD.c **** * Function Name: I2C_LCD_Enable
 163:Generated_Source\PSoC5/I2C_LCD.c **** ********************************************************************************
 164:Generated_Source\PSoC5/I2C_LCD.c **** *
 165:Generated_Source\PSoC5/I2C_LCD.c **** * Summary:
 166:Generated_Source\PSoC5/I2C_LCD.c **** *  Turns on the display.
 167:Generated_Source\PSoC5/I2C_LCD.c **** *
 168:Generated_Source\PSoC5/I2C_LCD.c **** * Parameters:
 169:Generated_Source\PSoC5/I2C_LCD.c **** *  None
 170:Generated_Source\PSoC5/I2C_LCD.c **** *
 171:Generated_Source\PSoC5/I2C_LCD.c **** * Return:
 172:Generated_Source\PSoC5/I2C_LCD.c **** *  None
 173:Generated_Source\PSoC5/I2C_LCD.c **** *
 174:Generated_Source\PSoC5/I2C_LCD.c **** * Reentrant:
 175:Generated_Source\PSoC5/I2C_LCD.c **** *  No
 176:Generated_Source\PSoC5/I2C_LCD.c **** *
 177:Generated_Source\PSoC5/I2C_LCD.c **** * Theory:
 178:Generated_Source\PSoC5/I2C_LCD.c **** *  This function has no effect when it called first time as
 179:Generated_Source\PSoC5/I2C_LCD.c **** *  I2C_LCD_Init() turns on the LCD.
 180:Generated_Source\PSoC5/I2C_LCD.c **** *
 181:Generated_Source\PSoC5/I2C_LCD.c **** *******************************************************************************/
 182:Generated_Source\PSoC5/I2C_LCD.c **** void I2C_LCD_Enable(void) 
 183:Generated_Source\PSoC5/I2C_LCD.c **** {
 184:Generated_Source\PSoC5/I2C_LCD.c ****     I2C_LCD_DisplayOn();
 185:Generated_Source\PSoC5/I2C_LCD.c **** }
 186:Generated_Source\PSoC5/I2C_LCD.c **** 
 187:Generated_Source\PSoC5/I2C_LCD.c **** 
 188:Generated_Source\PSoC5/I2C_LCD.c **** /*******************************************************************************
 189:Generated_Source\PSoC5/I2C_LCD.c **** * Function Name: I2C_LCD_Start
 190:Generated_Source\PSoC5/I2C_LCD.c **** ********************************************************************************
 191:Generated_Source\PSoC5/I2C_LCD.c **** *
 192:Generated_Source\PSoC5/I2C_LCD.c **** * Summary:
 193:Generated_Source\PSoC5/I2C_LCD.c **** *  This function initializes the LCD hardware module as follows:
 194:Generated_Source\PSoC5/I2C_LCD.c **** *       Initialize the I2C bus if it hasn't already been
 195:Generated_Source\PSoC5/I2C_LCD.c **** *       Clears the display;
 196:Generated_Source\PSoC5/I2C_LCD.c **** *       Enables auto cursor increment;
 197:Generated_Source\PSoC5/I2C_LCD.c **** *       Resets the cursor to start position;
 198:Generated_Source\PSoC5/I2C_LCD.c **** *       It also loads a custom character set to LCD if it was defined in the
 199:Generated_Source\PSoC5/I2C_LCD.c **** *  customizer's GUI.
 200:Generated_Source\PSoC5/I2C_LCD.c **** *
 201:Generated_Source\PSoC5/I2C_LCD.c **** * Parameters:
 202:Generated_Source\PSoC5/I2C_LCD.c **** *  I2C_LCD_initVar - global variable.
ARM GAS  C:\Users\Dell\AppData\Local\Temp\cc7lEuPV.s 			page 5


 203:Generated_Source\PSoC5/I2C_LCD.c **** *
 204:Generated_Source\PSoC5/I2C_LCD.c **** * Return:
 205:Generated_Source\PSoC5/I2C_LCD.c **** *  I2C_LCD_initVar - global variable.
 206:Generated_Source\PSoC5/I2C_LCD.c **** *
 207:Generated_Source\PSoC5/I2C_LCD.c **** * Reentrant:
 208:Generated_Source\PSoC5/I2C_LCD.c **** *  No
 209:Generated_Source\PSoC5/I2C_LCD.c **** *
 210:Generated_Source\PSoC5/I2C_LCD.c **** *******************************************************************************/
 211:Generated_Source\PSoC5/I2C_LCD.c **** void I2C_LCD_Start(void) 
 212:Generated_Source\PSoC5/I2C_LCD.c **** {
 213:Generated_Source\PSoC5/I2C_LCD.c ****     /* If not initialized then perform initialization */
 214:Generated_Source\PSoC5/I2C_LCD.c ****     if(I2C_LCD_initVar == 0u)
 215:Generated_Source\PSoC5/I2C_LCD.c ****     {
 216:Generated_Source\PSoC5/I2C_LCD.c ****         I2C_LCD_Init();
 217:Generated_Source\PSoC5/I2C_LCD.c ****         I2C_LCD_initVar = 1u;
 218:Generated_Source\PSoC5/I2C_LCD.c ****     }
 219:Generated_Source\PSoC5/I2C_LCD.c **** 
 220:Generated_Source\PSoC5/I2C_LCD.c ****     /* Turn on the LCD */
 221:Generated_Source\PSoC5/I2C_LCD.c ****     I2C_LCD_Enable();
 222:Generated_Source\PSoC5/I2C_LCD.c **** }
 223:Generated_Source\PSoC5/I2C_LCD.c **** 
 224:Generated_Source\PSoC5/I2C_LCD.c **** 
 225:Generated_Source\PSoC5/I2C_LCD.c **** /*******************************************************************************
 226:Generated_Source\PSoC5/I2C_LCD.c **** * Function Name: I2C_LCD_Stop
 227:Generated_Source\PSoC5/I2C_LCD.c **** ********************************************************************************
 228:Generated_Source\PSoC5/I2C_LCD.c **** *
 229:Generated_Source\PSoC5/I2C_LCD.c **** * Summary:
 230:Generated_Source\PSoC5/I2C_LCD.c **** *  Turns off the display of the LCD screen but does not stop the I2C Master
 231:Generated_Source\PSoC5/I2C_LCD.c **** *  component.
 232:Generated_Source\PSoC5/I2C_LCD.c **** *
 233:Generated_Source\PSoC5/I2C_LCD.c **** * Parameters:
 234:Generated_Source\PSoC5/I2C_LCD.c **** *  None
 235:Generated_Source\PSoC5/I2C_LCD.c **** *
 236:Generated_Source\PSoC5/I2C_LCD.c **** * Return:
 237:Generated_Source\PSoC5/I2C_LCD.c **** *  None
 238:Generated_Source\PSoC5/I2C_LCD.c **** *
 239:Generated_Source\PSoC5/I2C_LCD.c **** * Reentrant:
 240:Generated_Source\PSoC5/I2C_LCD.c **** *  No
 241:Generated_Source\PSoC5/I2C_LCD.c **** *
 242:Generated_Source\PSoC5/I2C_LCD.c **** *******************************************************************************/
 243:Generated_Source\PSoC5/I2C_LCD.c **** void I2C_LCD_Stop(void) 
 244:Generated_Source\PSoC5/I2C_LCD.c **** {
 245:Generated_Source\PSoC5/I2C_LCD.c ****     I2C_LCD_DisplayOff();
 246:Generated_Source\PSoC5/I2C_LCD.c **** }
 247:Generated_Source\PSoC5/I2C_LCD.c **** 
 248:Generated_Source\PSoC5/I2C_LCD.c **** 
 249:Generated_Source\PSoC5/I2C_LCD.c **** /*******************************************************************************
 250:Generated_Source\PSoC5/I2C_LCD.c **** *  Function Name: I2C_LCD_Position
 251:Generated_Source\PSoC5/I2C_LCD.c **** ********************************************************************************
 252:Generated_Source\PSoC5/I2C_LCD.c **** *
 253:Generated_Source\PSoC5/I2C_LCD.c **** * Summary:
 254:Generated_Source\PSoC5/I2C_LCD.c **** *  Moves the cursor to the location specified by arguments row and column.
 255:Generated_Source\PSoC5/I2C_LCD.c **** *
 256:Generated_Source\PSoC5/I2C_LCD.c **** * Parameters:
 257:Generated_Source\PSoC5/I2C_LCD.c **** *  row:     The row number at which to position the cursor. Minimum value is
 258:Generated_Source\PSoC5/I2C_LCD.c **** *           zero.
 259:Generated_Source\PSoC5/I2C_LCD.c **** *  column:  The column number at which to position the cursor. Minimum value is
ARM GAS  C:\Users\Dell\AppData\Local\Temp\cc7lEuPV.s 			page 6


 260:Generated_Source\PSoC5/I2C_LCD.c **** *           zero.
 261:Generated_Source\PSoC5/I2C_LCD.c **** *
 262:Generated_Source\PSoC5/I2C_LCD.c **** * Return:
 263:Generated_Source\PSoC5/I2C_LCD.c **** *  None
 264:Generated_Source\PSoC5/I2C_LCD.c **** *
 265:Generated_Source\PSoC5/I2C_LCD.c **** * Reentrant:
 266:Generated_Source\PSoC5/I2C_LCD.c **** *  No
 267:Generated_Source\PSoC5/I2C_LCD.c **** *
 268:Generated_Source\PSoC5/I2C_LCD.c **** *******************************************************************************/
 269:Generated_Source\PSoC5/I2C_LCD.c **** void I2C_LCD_Position(uint8 row, uint8 column) 
 270:Generated_Source\PSoC5/I2C_LCD.c **** {
 271:Generated_Source\PSoC5/I2C_LCD.c ****     /* Write command pattern for "Set cursor position" to buffer */
 272:Generated_Source\PSoC5/I2C_LCD.c ****     I2C_LCD_WrCntrlPatt(I2C_LCD_DDRAM_0_IDX);
 273:Generated_Source\PSoC5/I2C_LCD.c **** 
 274:Generated_Source\PSoC5/I2C_LCD.c ****     #if(I2C_LCD_LENGTH_2_BYTES == I2C_LCD_DDRAM_0_DATA_LEN)
 275:Generated_Source\PSoC5/I2C_LCD.c ****         /* In case when there two bytes of data for "Set cursor position" it is
 276:Generated_Source\PSoC5/I2C_LCD.c ****         * required to send both row and column. The numeration of rows and 
 277:Generated_Source\PSoC5/I2C_LCD.c ****         * columns starts from '1' so the row and column should be incremented.
 278:Generated_Source\PSoC5/I2C_LCD.c ****         */
 279:Generated_Source\PSoC5/I2C_LCD.c ****         I2C_LCD_WrDataToBuff(column + 1u);
 280:Generated_Source\PSoC5/I2C_LCD.c ****         I2C_LCD_WrDataToBuff(row + 1u);
 281:Generated_Source\PSoC5/I2C_LCD.c ****     #else
 282:Generated_Source\PSoC5/I2C_LCD.c ****         /* Position is sent as one byte so it is required to calculate the position */
 283:Generated_Source\PSoC5/I2C_LCD.c ****         switch (row)
 284:Generated_Source\PSoC5/I2C_LCD.c ****         {
 285:Generated_Source\PSoC5/I2C_LCD.c ****             case (uint8) 0u:
 286:Generated_Source\PSoC5/I2C_LCD.c ****                 /* To avoid MISRA warnig */
 287:Generated_Source\PSoC5/I2C_LCD.c ****                 #if (I2C_LCD_COMMAND_FORMAT == I2C_LCD_NXP_PCF2119X)
 288:Generated_Source\PSoC5/I2C_LCD.c ****                     I2C_LCD_WrDataToBuff(I2C_LCD_ROW_0_START + column);
 289:Generated_Source\PSoC5/I2C_LCD.c ****                 #else
 290:Generated_Source\PSoC5/I2C_LCD.c ****                     I2C_LCD_WrDataToBuff(column);
 291:Generated_Source\PSoC5/I2C_LCD.c ****                 #endif /* (I2C_LCD_COMMAND_FORMAT == I2C_LCD_NXP_PCF2119X) */
 292:Generated_Source\PSoC5/I2C_LCD.c ****                 
 293:Generated_Source\PSoC5/I2C_LCD.c ****                 break;
 294:Generated_Source\PSoC5/I2C_LCD.c ****             
 295:Generated_Source\PSoC5/I2C_LCD.c ****             case (uint8) 1u:
 296:Generated_Source\PSoC5/I2C_LCD.c ****                 I2C_LCD_WrDataToBuff(I2C_LCD_ROW_1_START + column);
 297:Generated_Source\PSoC5/I2C_LCD.c ****                 break;
 298:Generated_Source\PSoC5/I2C_LCD.c ****             
 299:Generated_Source\PSoC5/I2C_LCD.c ****             case (uint8) 2u:
 300:Generated_Source\PSoC5/I2C_LCD.c ****                 I2C_LCD_WrDataToBuff(I2C_LCD_ROW_2_START + column);
 301:Generated_Source\PSoC5/I2C_LCD.c ****                 break;
 302:Generated_Source\PSoC5/I2C_LCD.c ****             
 303:Generated_Source\PSoC5/I2C_LCD.c ****             case (uint8) 3u:
 304:Generated_Source\PSoC5/I2C_LCD.c ****                 I2C_LCD_WrDataToBuff(I2C_LCD_ROW_3_START + column);
 305:Generated_Source\PSoC5/I2C_LCD.c ****                 break;
 306:Generated_Source\PSoC5/I2C_LCD.c ****             
 307:Generated_Source\PSoC5/I2C_LCD.c ****             default:
 308:Generated_Source\PSoC5/I2C_LCD.c ****                 /* if default case is hit, invalid row argument was passed.*/
 309:Generated_Source\PSoC5/I2C_LCD.c ****                 break;
 310:Generated_Source\PSoC5/I2C_LCD.c ****         }        
 311:Generated_Source\PSoC5/I2C_LCD.c ****     #endif /* (I2C_LCD_LENGTH_2_BYTES == I2C_LCD_SET_POS_DATA_LEN) */
 312:Generated_Source\PSoC5/I2C_LCD.c **** 
 313:Generated_Source\PSoC5/I2C_LCD.c ****     /* Send data to LCD and wait when transaction complete */
 314:Generated_Source\PSoC5/I2C_LCD.c ****     I2C_LCD_SendSequence();
 315:Generated_Source\PSoC5/I2C_LCD.c **** }
 316:Generated_Source\PSoC5/I2C_LCD.c **** 
ARM GAS  C:\Users\Dell\AppData\Local\Temp\cc7lEuPV.s 			page 7


 317:Generated_Source\PSoC5/I2C_LCD.c **** 
 318:Generated_Source\PSoC5/I2C_LCD.c **** /*******************************************************************************
 319:Generated_Source\PSoC5/I2C_LCD.c **** *  Function Name: I2C_LCD_WriteData
 320:Generated_Source\PSoC5/I2C_LCD.c **** ********************************************************************************
 321:Generated_Source\PSoC5/I2C_LCD.c **** *
 322:Generated_Source\PSoC5/I2C_LCD.c **** * Summary:
 323:Generated_Source\PSoC5/I2C_LCD.c **** *  Writes data to the LCD RAM in the current position. Upon write completion,
 324:Generated_Source\PSoC5/I2C_LCD.c **** *  the position is incremented or decremented depending on the entry mode
 325:Generated_Source\PSoC5/I2C_LCD.c **** *  specified.
 326:Generated_Source\PSoC5/I2C_LCD.c **** *
 327:Generated_Source\PSoC5/I2C_LCD.c **** * Parameters:
 328:Generated_Source\PSoC5/I2C_LCD.c **** *  dByte:  The byte to be written to the LCD module.
 329:Generated_Source\PSoC5/I2C_LCD.c **** *
 330:Generated_Source\PSoC5/I2C_LCD.c **** * Return:
 331:Generated_Source\PSoC5/I2C_LCD.c **** *  None.
 332:Generated_Source\PSoC5/I2C_LCD.c **** *
 333:Generated_Source\PSoC5/I2C_LCD.c **** * Reentrant:
 334:Generated_Source\PSoC5/I2C_LCD.c **** *  No
 335:Generated_Source\PSoC5/I2C_LCD.c **** *
 336:Generated_Source\PSoC5/I2C_LCD.c **** *******************************************************************************/
 337:Generated_Source\PSoC5/I2C_LCD.c **** void I2C_LCD_WriteData(uint8 dByte) 
 338:Generated_Source\PSoC5/I2C_LCD.c **** {
 339:Generated_Source\PSoC5/I2C_LCD.c ****     /* Send required control byte value to address data register */
 340:Generated_Source\PSoC5/I2C_LCD.c ****     I2C_LCD_WrCntrlPatt(I2C_LCD_WRITE_DATA_IDX);
 341:Generated_Source\PSoC5/I2C_LCD.c **** 
 342:Generated_Source\PSoC5/I2C_LCD.c ****     /* Add byte of data to buffer */
 343:Generated_Source\PSoC5/I2C_LCD.c ****     I2C_LCD_WrDataToBuff(dByte);
 344:Generated_Source\PSoC5/I2C_LCD.c **** 
 345:Generated_Source\PSoC5/I2C_LCD.c ****     /* Send data to LCD and wait when transaction complete */
 346:Generated_Source\PSoC5/I2C_LCD.c ****     I2C_LCD_SendSequence();
 347:Generated_Source\PSoC5/I2C_LCD.c **** }
 348:Generated_Source\PSoC5/I2C_LCD.c **** 
 349:Generated_Source\PSoC5/I2C_LCD.c **** 
 350:Generated_Source\PSoC5/I2C_LCD.c **** /*******************************************************************************
 351:Generated_Source\PSoC5/I2C_LCD.c **** *  Function Name: I2C_LCD_WrDataToBuff
 352:Generated_Source\PSoC5/I2C_LCD.c **** ********************************************************************************
 353:Generated_Source\PSoC5/I2C_LCD.c **** *
 354:Generated_Source\PSoC5/I2C_LCD.c **** * Summary:
 355:Generated_Source\PSoC5/I2C_LCD.c **** *  Writes a byte of data to the display buffer.
 356:Generated_Source\PSoC5/I2C_LCD.c **** *
 357:Generated_Source\PSoC5/I2C_LCD.c **** * Parameters:
 358:Generated_Source\PSoC5/I2C_LCD.c **** *  nibble:  the byte containing nibble in least significant nibble to be written
 359:Generated_Source\PSoC5/I2C_LCD.c **** *           to the LCD module.
 360:Generated_Source\PSoC5/I2C_LCD.c **** *
 361:Generated_Source\PSoC5/I2C_LCD.c **** * Return:
 362:Generated_Source\PSoC5/I2C_LCD.c **** *  None
 363:Generated_Source\PSoC5/I2C_LCD.c **** *
 364:Generated_Source\PSoC5/I2C_LCD.c **** * Reentrant:
 365:Generated_Source\PSoC5/I2C_LCD.c **** *  No
 366:Generated_Source\PSoC5/I2C_LCD.c **** *
 367:Generated_Source\PSoC5/I2C_LCD.c **** *******************************************************************************/
 368:Generated_Source\PSoC5/I2C_LCD.c **** static void I2C_LCD_WrDataToBuff(uint8 dByte) CYREENTRANT
 369:Generated_Source\PSoC5/I2C_LCD.c **** {
  27              		.loc 1 369 0
  28              		.cfi_startproc
  29              		@ args = 0, pretend = 0, frame = 0
  30              		@ frame_needed = 0, uses_anonymous_args = 0
ARM GAS  C:\Users\Dell\AppData\Local\Temp\cc7lEuPV.s 			page 8


  31              		@ link register save eliminated.
  32              	.LVL0:
 370:Generated_Source\PSoC5/I2C_LCD.c ****     /* Put one byte of data to buffer at location of I2C_LCD_buffIndex */
 371:Generated_Source\PSoC5/I2C_LCD.c ****     I2C_LCD_buff[I2C_LCD_buffIndex] = dByte;
  33              		.loc 1 371 0
  34 0000 034A     		ldr	r2, .L2
  35 0002 1378     		ldrb	r3, [r2]	@ zero_extendqisi2
  36 0004 D118     		adds	r1, r2, r3
  37 0006 0871     		strb	r0, [r1, #4]
 372:Generated_Source\PSoC5/I2C_LCD.c ****     /* Increment I2C_LCD_buffIndex to point to next free position */
 373:Generated_Source\PSoC5/I2C_LCD.c ****     I2C_LCD_buffIndex++;
  38              		.loc 1 373 0
  39 0008 0133     		adds	r3, r3, #1
  40 000a 1370     		strb	r3, [r2]
  41 000c 7047     		bx	lr
  42              	.L3:
  43 000e 00BF     		.align	2
  44              	.L2:
  45 0010 00000000 		.word	.LANCHOR0
  46              		.cfi_endproc
  47              	.LFE6:
  48              		.size	I2C_LCD_WrDataToBuff, .-I2C_LCD_WrDataToBuff
  49              		.section	.text.I2C_LCD_WrCntrlPatt,"ax",%progbits
  50              		.align	2
  51              		.thumb
  52              		.thumb_func
  53              		.type	I2C_LCD_WrCntrlPatt, %function
  54              	I2C_LCD_WrCntrlPatt:
  55              	.LFB8:
 374:Generated_Source\PSoC5/I2C_LCD.c **** }
 375:Generated_Source\PSoC5/I2C_LCD.c **** 
 376:Generated_Source\PSoC5/I2C_LCD.c **** 
 377:Generated_Source\PSoC5/I2C_LCD.c **** /*******************************************************************************
 378:Generated_Source\PSoC5/I2C_LCD.c **** *  Function Name: I2C_LCD_WriteControl
 379:Generated_Source\PSoC5/I2C_LCD.c **** ********************************************************************************
 380:Generated_Source\PSoC5/I2C_LCD.c **** *
 381:Generated_Source\PSoC5/I2C_LCD.c **** * Summary:
 382:Generated_Source\PSoC5/I2C_LCD.c **** *  Writes a command byte to the LCD module. Different LCD models can have their
 383:Generated_Source\PSoC5/I2C_LCD.c **** *  own commands. Review the specific LCD datasheet for commands valid for that
 384:Generated_Source\PSoC5/I2C_LCD.c **** *  model.
 385:Generated_Source\PSoC5/I2C_LCD.c **** *
 386:Generated_Source\PSoC5/I2C_LCD.c **** * Parameters:
 387:Generated_Source\PSoC5/I2C_LCD.c **** *  cByte:   An 8-bit value representing the command to be loaded into the command
 388:Generated_Source\PSoC5/I2C_LCD.c **** *  register of the LCD module. Valid command parameters are specified in the
 389:Generated_Source\PSoC5/I2C_LCD.c **** *  table below:
 390:Generated_Source\PSoC5/I2C_LCD.c **** *   I2C_LCD_CLEAR_DISPLAY          Clear display.
 391:Generated_Source\PSoC5/I2C_LCD.c **** *   I2C_LCD_CURSOR_HOME            Return cursor and LCD to home
 392:Generated_Source\PSoC5/I2C_LCD.c **** *                                           position.
 393:Generated_Source\PSoC5/I2C_LCD.c **** *   I2C_LCD_SET_CURSOR_POSITION    Set position of cursor.
 394:Generated_Source\PSoC5/I2C_LCD.c **** *   I2C_LCD_DISPLAY_CURSOR_OFF     Disable display and cursor.
 395:Generated_Source\PSoC5/I2C_LCD.c **** *   I2C_LCD_DISPLAY_CURSOR_ON      Enable display and cursor.
 396:Generated_Source\PSoC5/I2C_LCD.c **** *   I2C_LCD_DISPLAY_ON_CURSOR_OFF
 397:Generated_Source\PSoC5/I2C_LCD.c **** *   I2C_LCD_DISPLAY_ON             Enable display, cursor off.
 398:Generated_Source\PSoC5/I2C_LCD.c **** *   I2C_LCD_CURSOR_BLINKING_ON     Enable display, cursor on, set
 399:Generated_Source\PSoC5/I2C_LCD.c **** *                                           cursor blink.
 400:Generated_Source\PSoC5/I2C_LCD.c **** *   I2C_LCD_CURSOR_BLINKING_OFF    Enable display, cursor on, cursor
 401:Generated_Source\PSoC5/I2C_LCD.c **** *                                           blinking off.
ARM GAS  C:\Users\Dell\AppData\Local\Temp\cc7lEuPV.s 			page 9


 402:Generated_Source\PSoC5/I2C_LCD.c **** *   I2C_LCD_SET_CGRAM_ADDR         Set position to the specific
 403:Generated_Source\PSoC5/I2C_LCD.c **** *                                           address in CGRAM (used for loading
 404:Generated_Source\PSoC5/I2C_LCD.c **** *                                           custom characters).
 405:Generated_Source\PSoC5/I2C_LCD.c **** *   I2C_LCD_CURSOR_AUTO_INCR_ON    Enable auto increment of cursor
 406:Generated_Source\PSoC5/I2C_LCD.c **** *                                           position.
 407:Generated_Source\PSoC5/I2C_LCD.c **** *   I2C_LCD_DISPLAY_2_LINES_16     Set display to be 2 lines 16
 408:Generated_Source\PSoC5/I2C_LCD.c **** *                                           characters.
 409:Generated_Source\PSoC5/I2C_LCD.c **** *
 410:Generated_Source\PSoC5/I2C_LCD.c **** * Return:
 411:Generated_Source\PSoC5/I2C_LCD.c **** *  None
 412:Generated_Source\PSoC5/I2C_LCD.c **** *
 413:Generated_Source\PSoC5/I2C_LCD.c **** * Reentrant:
 414:Generated_Source\PSoC5/I2C_LCD.c **** *  No
 415:Generated_Source\PSoC5/I2C_LCD.c **** *
 416:Generated_Source\PSoC5/I2C_LCD.c **** *******************************************************************************/
 417:Generated_Source\PSoC5/I2C_LCD.c **** void I2C_LCD_WriteControl(uint8 cByte) 
 418:Generated_Source\PSoC5/I2C_LCD.c **** {
 419:Generated_Source\PSoC5/I2C_LCD.c ****     uint8 cmdIndx = 0u;
 420:Generated_Source\PSoC5/I2C_LCD.c ****     
 421:Generated_Source\PSoC5/I2C_LCD.c ****     while(cmdIndx < I2C_LCD_NUM_COMMANDS)
 422:Generated_Source\PSoC5/I2C_LCD.c ****     {   
 423:Generated_Source\PSoC5/I2C_LCD.c ****         if (cByte == I2C_LCD_cmdPatt[cmdIndx][I2C_LCD_COMMAND_BYTE_INDEX])
 424:Generated_Source\PSoC5/I2C_LCD.c ****         {
 425:Generated_Source\PSoC5/I2C_LCD.c ****             /* Fill control pattern based on found index */
 426:Generated_Source\PSoC5/I2C_LCD.c ****             I2C_LCD_WrCntrlPatt(cmdIndx);
 427:Generated_Source\PSoC5/I2C_LCD.c **** 
 428:Generated_Source\PSoC5/I2C_LCD.c ****             /* Send data to LCD and wait when transaction complete */
 429:Generated_Source\PSoC5/I2C_LCD.c ****             I2C_LCD_SendSequence();
 430:Generated_Source\PSoC5/I2C_LCD.c **** 
 431:Generated_Source\PSoC5/I2C_LCD.c ****             /* Following commands require 1.5 ms delay to execute */
 432:Generated_Source\PSoC5/I2C_LCD.c ****             switch(cByte)
 433:Generated_Source\PSoC5/I2C_LCD.c ****             {
 434:Generated_Source\PSoC5/I2C_LCD.c ****                 case I2C_LCD_CLEAR_DISPLAY :
 435:Generated_Source\PSoC5/I2C_LCD.c ****                 case I2C_LCD_CURSOR_HOME :
 436:Generated_Source\PSoC5/I2C_LCD.c ****                 case I2C_LCD_DISPLAY_CURSOR_ON :
 437:Generated_Source\PSoC5/I2C_LCD.c ****                 case I2C_LCD_DISPLAY_CURSOR_OFF :
 438:Generated_Source\PSoC5/I2C_LCD.c ****                     CyDelayUs(I2C_LCD_CMOMMAND_DELAY);
 439:Generated_Source\PSoC5/I2C_LCD.c ****                     break;
 440:Generated_Source\PSoC5/I2C_LCD.c ****                 default:
 441:Generated_Source\PSoC5/I2C_LCD.c ****                     break;
 442:Generated_Source\PSoC5/I2C_LCD.c ****             }
 443:Generated_Source\PSoC5/I2C_LCD.c ****             /* Command index was found - break while() loop */
 444:Generated_Source\PSoC5/I2C_LCD.c ****             break;
 445:Generated_Source\PSoC5/I2C_LCD.c ****         }
 446:Generated_Source\PSoC5/I2C_LCD.c ****         /* Increment command pattern index */
 447:Generated_Source\PSoC5/I2C_LCD.c ****         cmdIndx++;
 448:Generated_Source\PSoC5/I2C_LCD.c ****     } 
 449:Generated_Source\PSoC5/I2C_LCD.c **** }
 450:Generated_Source\PSoC5/I2C_LCD.c **** 
 451:Generated_Source\PSoC5/I2C_LCD.c **** 
 452:Generated_Source\PSoC5/I2C_LCD.c **** /*******************************************************************************
 453:Generated_Source\PSoC5/I2C_LCD.c **** *  Function Name: I2C_LCD_WrCntrlPatt
 454:Generated_Source\PSoC5/I2C_LCD.c **** ********************************************************************************
 455:Generated_Source\PSoC5/I2C_LCD.c **** *
 456:Generated_Source\PSoC5/I2C_LCD.c **** * Summary:
 457:Generated_Source\PSoC5/I2C_LCD.c **** *  Writes a control pattern to the buffer that will be later send to the LCD
 458:Generated_Source\PSoC5/I2C_LCD.c **** *  module.
ARM GAS  C:\Users\Dell\AppData\Local\Temp\cc7lEuPV.s 			page 10


 459:Generated_Source\PSoC5/I2C_LCD.c **** *
 460:Generated_Source\PSoC5/I2C_LCD.c **** * Parameters:
 461:Generated_Source\PSoC5/I2C_LCD.c **** *  cmdIndex: Index of the command pattern in the look-up array.
 462:Generated_Source\PSoC5/I2C_LCD.c **** *
 463:Generated_Source\PSoC5/I2C_LCD.c **** * Return:
 464:Generated_Source\PSoC5/I2C_LCD.c **** *  None
 465:Generated_Source\PSoC5/I2C_LCD.c **** *
 466:Generated_Source\PSoC5/I2C_LCD.c **** * Reentrant:
 467:Generated_Source\PSoC5/I2C_LCD.c **** *  No
 468:Generated_Source\PSoC5/I2C_LCD.c **** *
 469:Generated_Source\PSoC5/I2C_LCD.c **** *******************************************************************************/
 470:Generated_Source\PSoC5/I2C_LCD.c **** static void I2C_LCD_WrCntrlPatt(uint8 cmdIndex) CYREENTRANT
 471:Generated_Source\PSoC5/I2C_LCD.c **** {
  56              		.loc 1 471 0
  57              		.cfi_startproc
  58              		@ args = 0, pretend = 0, frame = 0
  59              		@ frame_needed = 0, uses_anonymous_args = 0
  60              		@ link register save eliminated.
  61              	.LVL1:
  62 0000 10B4     		push	{r4}
  63              		.cfi_def_cfa_offset 4
  64              		.cfi_offset 4, -4
  65              	.LVL2:
 472:Generated_Source\PSoC5/I2C_LCD.c ****     /* Need to have index 'i' of different size to avoid MISRA
 473:Generated_Source\PSoC5/I2C_LCD.c ****     * warning when SCB based I2C Master is used. 
 474:Generated_Source\PSoC5/I2C_LCD.c ****     */
 475:Generated_Source\PSoC5/I2C_LCD.c ****     #if(I2C_LCD_IS_SCB_MASTER_USED)
 476:Generated_Source\PSoC5/I2C_LCD.c ****         uint32 i;
 477:Generated_Source\PSoC5/I2C_LCD.c ****     #else
 478:Generated_Source\PSoC5/I2C_LCD.c ****         uint8 i;
 479:Generated_Source\PSoC5/I2C_LCD.c ****     #endif /* (I2C_LCD_IS_SCB_MASTER_USED) */
 480:Generated_Source\PSoC5/I2C_LCD.c **** 
 481:Generated_Source\PSoC5/I2C_LCD.c ****     /* Fill buffer with command pattern */
 482:Generated_Source\PSoC5/I2C_LCD.c ****     for(i = 1u; i <= I2C_LCD_cmdPatt[cmdIndex][0u]; i++)
  66              		.loc 1 482 0
  67 0002 0123     		movs	r3, #1
  68 0004 0AE0     		b	.L5
  69              	.LVL3:
  70              	.L6:
 483:Generated_Source\PSoC5/I2C_LCD.c ****     {
 484:Generated_Source\PSoC5/I2C_LCD.c ****         I2C_LCD_buff[i - 1u] =  I2C_LCD_cmdPatt[cmdIndex][i];
  71              		.loc 1 484 0 discriminator 3
  72 0006 5A1E     		subs	r2, r3, #1
  73 0008 00EB4001 		add	r1, r0, r0, lsl #1
  74 000c 094C     		ldr	r4, .L8
  75 000e 2144     		add	r1, r1, r4
  76 0010 C95C     		ldrb	r1, [r1, r3]	@ zero_extendqisi2
  77 0012 094C     		ldr	r4, .L8+4
  78 0014 2244     		add	r2, r2, r4
  79 0016 1171     		strb	r1, [r2, #4]
 482:Generated_Source\PSoC5/I2C_LCD.c ****     {
  80              		.loc 1 482 0 discriminator 3
  81 0018 0133     		adds	r3, r3, #1
  82              	.LVL4:
  83 001a DBB2     		uxtb	r3, r3
  84              	.LVL5:
  85              	.L5:
ARM GAS  C:\Users\Dell\AppData\Local\Temp\cc7lEuPV.s 			page 11


 482:Generated_Source\PSoC5/I2C_LCD.c ****     {
  86              		.loc 1 482 0 is_stmt 0 discriminator 1
  87 001c 00EB4002 		add	r2, r0, r0, lsl #1
  88 0020 0449     		ldr	r1, .L8
  89 0022 8A5C     		ldrb	r2, [r1, r2]	@ zero_extendqisi2
  90 0024 9342     		cmp	r3, r2
  91 0026 EED9     		bls	.L6
 485:Generated_Source\PSoC5/I2C_LCD.c ****     }
 486:Generated_Source\PSoC5/I2C_LCD.c **** 
 487:Generated_Source\PSoC5/I2C_LCD.c ****     /* Set index to point on next free position in buffer */
 488:Generated_Source\PSoC5/I2C_LCD.c ****     I2C_LCD_buffIndex = i - 1u;
  92              		.loc 1 488 0 is_stmt 1
  93 0028 013B     		subs	r3, r3, #1
  94              	.LVL6:
  95 002a 034A     		ldr	r2, .L8+4
  96 002c 1370     		strb	r3, [r2]
 489:Generated_Source\PSoC5/I2C_LCD.c **** }
  97              		.loc 1 489 0
  98 002e 10BC     		pop	{r4}
  99              		.cfi_restore 4
 100              		.cfi_def_cfa_offset 0
 101 0030 7047     		bx	lr
 102              	.L9:
 103 0032 00BF     		.align	2
 104              	.L8:
 105 0034 00000000 		.word	.LANCHOR1
 106 0038 00000000 		.word	.LANCHOR0
 107              		.cfi_endproc
 108              	.LFE8:
 109              		.size	I2C_LCD_WrCntrlPatt, .-I2C_LCD_WrCntrlPatt
 110              		.section	.text.I2C_LCD_SendSequence,"ax",%progbits
 111              		.align	2
 112              		.thumb
 113              		.thumb_func
 114              		.type	I2C_LCD_SendSequence, %function
 115              	I2C_LCD_SendSequence:
 116              	.LFB9:
 490:Generated_Source\PSoC5/I2C_LCD.c **** 
 491:Generated_Source\PSoC5/I2C_LCD.c **** 
 492:Generated_Source\PSoC5/I2C_LCD.c **** /*******************************************************************************
 493:Generated_Source\PSoC5/I2C_LCD.c **** *  Function Name: I2C_LCD_SendSequence
 494:Generated_Source\PSoC5/I2C_LCD.c **** ********************************************************************************
 495:Generated_Source\PSoC5/I2C_LCD.c **** *
 496:Generated_Source\PSoC5/I2C_LCD.c **** * Summary:
 497:Generated_Source\PSoC5/I2C_LCD.c **** *  Sends the content of the buffer to the LCD module and waits while transaction
 498:Generated_Source\PSoC5/I2C_LCD.c **** *  completes. In the end resets index to point to the start of the buffer.
 499:Generated_Source\PSoC5/I2C_LCD.c **** *
 500:Generated_Source\PSoC5/I2C_LCD.c **** * Parameters:
 501:Generated_Source\PSoC5/I2C_LCD.c **** *  None
 502:Generated_Source\PSoC5/I2C_LCD.c **** *
 503:Generated_Source\PSoC5/I2C_LCD.c **** * Return:
 504:Generated_Source\PSoC5/I2C_LCD.c **** *  None
 505:Generated_Source\PSoC5/I2C_LCD.c **** *
 506:Generated_Source\PSoC5/I2C_LCD.c **** * Reentrant:
 507:Generated_Source\PSoC5/I2C_LCD.c **** *  No
 508:Generated_Source\PSoC5/I2C_LCD.c **** *
 509:Generated_Source\PSoC5/I2C_LCD.c **** *******************************************************************************/
ARM GAS  C:\Users\Dell\AppData\Local\Temp\cc7lEuPV.s 			page 12


 510:Generated_Source\PSoC5/I2C_LCD.c **** static void I2C_LCD_SendSequence(void) CYREENTRANT
 511:Generated_Source\PSoC5/I2C_LCD.c **** {
 117              		.loc 1 511 0
 118              		.cfi_startproc
 119              		@ args = 0, pretend = 0, frame = 0
 120              		@ frame_needed = 0, uses_anonymous_args = 0
 121 0000 08B5     		push	{r3, lr}
 122              		.cfi_def_cfa_offset 8
 123              		.cfi_offset 3, -8
 124              		.cfi_offset 14, -4
 512:Generated_Source\PSoC5/I2C_LCD.c ****     /* Send command pattern to LCD */
 513:Generated_Source\PSoC5/I2C_LCD.c ****     (void) I2C_LCD_MasterWriteBuf(I2C_LCD_address,
 125              		.loc 1 513 0
 126 0002 0849     		ldr	r1, .L13
 127 0004 0023     		movs	r3, #0
 128 0006 11F8042B 		ldrb	r2, [r1], #4	@ zero_extendqisi2
 129 000a 0748     		ldr	r0, .L13+4
 130 000c 0078     		ldrb	r0, [r0]	@ zero_extendqisi2
 131 000e FFF7FEFF 		bl	I2C_MasterWriteBuf
 132              	.LVL7:
 133              	.L11:
 514:Generated_Source\PSoC5/I2C_LCD.c ****                                            I2C_LCD_buff,
 515:Generated_Source\PSoC5/I2C_LCD.c ****                                            I2C_LCD_buffIndex,
 516:Generated_Source\PSoC5/I2C_LCD.c ****                                            I2C_LCD_MODE_COMPLETE_XFER);
 517:Generated_Source\PSoC5/I2C_LCD.c **** 
 518:Generated_Source\PSoC5/I2C_LCD.c ****     while(0u == (I2C_LCD_MasterReadStatus() & I2C_LCD_WRITE_COMPLETE))
 134              		.loc 1 518 0 discriminator 1
 135 0012 FFF7FEFF 		bl	I2C_MasterStatus
 136              	.LVL8:
 137 0016 10F0020F 		tst	r0, #2
 138 001a FAD0     		beq	.L11
 519:Generated_Source\PSoC5/I2C_LCD.c ****     {
 520:Generated_Source\PSoC5/I2C_LCD.c ****         /* Wait until I2C Master finishes transaction */
 521:Generated_Source\PSoC5/I2C_LCD.c ****     }
 522:Generated_Source\PSoC5/I2C_LCD.c **** 
 523:Generated_Source\PSoC5/I2C_LCD.c ****     /* Reset buffer index */
 524:Generated_Source\PSoC5/I2C_LCD.c ****     I2C_LCD_buffIndex = 0u;
 139              		.loc 1 524 0
 140 001c 0022     		movs	r2, #0
 141 001e 014B     		ldr	r3, .L13
 142 0020 1A70     		strb	r2, [r3]
 143 0022 08BD     		pop	{r3, pc}
 144              	.L14:
 145              		.align	2
 146              	.L13:
 147 0024 00000000 		.word	.LANCHOR0
 148 0028 00000000 		.word	.LANCHOR2
 149              		.cfi_endproc
 150              	.LFE9:
 151              		.size	I2C_LCD_SendSequence, .-I2C_LCD_SendSequence
 152              		.section	.text.I2C_LCD_SendCmd,"ax",%progbits
 153              		.align	2
 154              		.thumb
 155              		.thumb_func
 156              		.type	I2C_LCD_SendCmd, %function
 157              	I2C_LCD_SendCmd:
 158              	.LFB21:
ARM GAS  C:\Users\Dell\AppData\Local\Temp\cc7lEuPV.s 			page 13


 525:Generated_Source\PSoC5/I2C_LCD.c **** }
 526:Generated_Source\PSoC5/I2C_LCD.c **** 
 527:Generated_Source\PSoC5/I2C_LCD.c **** 
 528:Generated_Source\PSoC5/I2C_LCD.c **** /*******************************************************************************
 529:Generated_Source\PSoC5/I2C_LCD.c **** * Function Name: I2C_LCD_HandleCustomCommand
 530:Generated_Source\PSoC5/I2C_LCD.c **** ********************************************************************************
 531:Generated_Source\PSoC5/I2C_LCD.c **** *
 532:Generated_Source\PSoC5/I2C_LCD.c **** * Summary:
 533:Generated_Source\PSoC5/I2C_LCD.c **** *  This command adds a support of sending custom commands with parameters.
 534:Generated_Source\PSoC5/I2C_LCD.c **** *
 535:Generated_Source\PSoC5/I2C_LCD.c **** * Parameters:
 536:Generated_Source\PSoC5/I2C_LCD.c **** *  uint8 cmdId: Command code.
 537:Generated_Source\PSoC5/I2C_LCD.c **** *  uint8 dataLength: The length of data to be send for this command.
 538:Generated_Source\PSoC5/I2C_LCD.c **** *  uint8 cmdData[]: The data to be send to I2C LCD.
 539:Generated_Source\PSoC5/I2C_LCD.c **** *
 540:Generated_Source\PSoC5/I2C_LCD.c **** * Return:
 541:Generated_Source\PSoC5/I2C_LCD.c **** *  None
 542:Generated_Source\PSoC5/I2C_LCD.c **** *
 543:Generated_Source\PSoC5/I2C_LCD.c **** * Reentrant:
 544:Generated_Source\PSoC5/I2C_LCD.c **** *  No
 545:Generated_Source\PSoC5/I2C_LCD.c **** *
 546:Generated_Source\PSoC5/I2C_LCD.c **** *******************************************************************************/
 547:Generated_Source\PSoC5/I2C_LCD.c **** void I2C_LCD_HandleCustomCommand(uint8 cmdId, uint8 dataLength, uint8 const cmdData[])
 548:Generated_Source\PSoC5/I2C_LCD.c ****                                                         
 549:Generated_Source\PSoC5/I2C_LCD.c **** {
 550:Generated_Source\PSoC5/I2C_LCD.c ****     uint8 i;
 551:Generated_Source\PSoC5/I2C_LCD.c ****     uint8 ch;
 552:Generated_Source\PSoC5/I2C_LCD.c ****     uint8 cmdIndx = 0u;
 553:Generated_Source\PSoC5/I2C_LCD.c ****     
 554:Generated_Source\PSoC5/I2C_LCD.c ****     while(cmdIndx < I2C_LCD_NUM_COMMANDS)
 555:Generated_Source\PSoC5/I2C_LCD.c ****     {   
 556:Generated_Source\PSoC5/I2C_LCD.c ****         if (cmdId == I2C_LCD_cmdPatt[cmdIndx][I2C_LCD_COMMAND_BYTE_INDEX])
 557:Generated_Source\PSoC5/I2C_LCD.c ****         {
 558:Generated_Source\PSoC5/I2C_LCD.c ****              /* Write control pattern for specific command */
 559:Generated_Source\PSoC5/I2C_LCD.c ****             I2C_LCD_WrCntrlPatt(cmdIndx);
 560:Generated_Source\PSoC5/I2C_LCD.c **** 
 561:Generated_Source\PSoC5/I2C_LCD.c ****             for(i = 0u; i < dataLength; i++)
 562:Generated_Source\PSoC5/I2C_LCD.c ****             {
 563:Generated_Source\PSoC5/I2C_LCD.c ****                 /* Get next byte from array of data */
 564:Generated_Source\PSoC5/I2C_LCD.c ****                 ch = cmdData[i];
 565:Generated_Source\PSoC5/I2C_LCD.c **** 
 566:Generated_Source\PSoC5/I2C_LCD.c ****                 /* Add current byte to buffer */
 567:Generated_Source\PSoC5/I2C_LCD.c ****                 I2C_LCD_WrDataToBuff((uint8) ch);
 568:Generated_Source\PSoC5/I2C_LCD.c ****             }
 569:Generated_Source\PSoC5/I2C_LCD.c **** 
 570:Generated_Source\PSoC5/I2C_LCD.c ****             /* Send data to LCD and wait when transaction completes */
 571:Generated_Source\PSoC5/I2C_LCD.c ****             I2C_LCD_SendSequence();
 572:Generated_Source\PSoC5/I2C_LCD.c ****             /* The command index was found - break while() loop */
 573:Generated_Source\PSoC5/I2C_LCD.c ****             break;
 574:Generated_Source\PSoC5/I2C_LCD.c ****         }
 575:Generated_Source\PSoC5/I2C_LCD.c ****         /* Increment command pattern index */
 576:Generated_Source\PSoC5/I2C_LCD.c ****         cmdIndx++;
 577:Generated_Source\PSoC5/I2C_LCD.c ****     } 
 578:Generated_Source\PSoC5/I2C_LCD.c **** }
 579:Generated_Source\PSoC5/I2C_LCD.c **** 
 580:Generated_Source\PSoC5/I2C_LCD.c **** 
 581:Generated_Source\PSoC5/I2C_LCD.c **** /*******************************************************************************
ARM GAS  C:\Users\Dell\AppData\Local\Temp\cc7lEuPV.s 			page 14


 582:Generated_Source\PSoC5/I2C_LCD.c **** * Function Name: I2C_LCD_HandleOneByteCommand
 583:Generated_Source\PSoC5/I2C_LCD.c **** ********************************************************************************
 584:Generated_Source\PSoC5/I2C_LCD.c **** *
 585:Generated_Source\PSoC5/I2C_LCD.c **** * Summary:
 586:Generated_Source\PSoC5/I2C_LCD.c **** *  This command adds a support of sending custom commands with 1 byte parameter.
 587:Generated_Source\PSoC5/I2C_LCD.c **** *
 588:Generated_Source\PSoC5/I2C_LCD.c **** * Parameters:
 589:Generated_Source\PSoC5/I2C_LCD.c **** *  uint8 cmdId: Command code.
 590:Generated_Source\PSoC5/I2C_LCD.c **** *  uint8 cmdByte: One byte of data to be send to I2C LCD.
 591:Generated_Source\PSoC5/I2C_LCD.c **** *
 592:Generated_Source\PSoC5/I2C_LCD.c **** * Return:
 593:Generated_Source\PSoC5/I2C_LCD.c **** *  None
 594:Generated_Source\PSoC5/I2C_LCD.c **** *
 595:Generated_Source\PSoC5/I2C_LCD.c **** * Reentrant:
 596:Generated_Source\PSoC5/I2C_LCD.c **** *  No
 597:Generated_Source\PSoC5/I2C_LCD.c **** *
 598:Generated_Source\PSoC5/I2C_LCD.c **** *******************************************************************************/
 599:Generated_Source\PSoC5/I2C_LCD.c **** void I2C_LCD_HandleOneByteCommand(uint8 cmdId, uint8 cmdByte)
 600:Generated_Source\PSoC5/I2C_LCD.c ****                                                         
 601:Generated_Source\PSoC5/I2C_LCD.c **** {
 602:Generated_Source\PSoC5/I2C_LCD.c ****     uint8 oneByteArray[I2C_LCD_ONE_BYTE_LEN];
 603:Generated_Source\PSoC5/I2C_LCD.c ****     
 604:Generated_Source\PSoC5/I2C_LCD.c ****     oneByteArray[0u] = cmdByte;
 605:Generated_Source\PSoC5/I2C_LCD.c ****     
 606:Generated_Source\PSoC5/I2C_LCD.c ****     I2C_LCD_HandleCustomCommand(cmdId, I2C_LCD_ONE_BYTE_LEN, oneByteArray);
 607:Generated_Source\PSoC5/I2C_LCD.c **** }
 608:Generated_Source\PSoC5/I2C_LCD.c **** 
 609:Generated_Source\PSoC5/I2C_LCD.c **** 
 610:Generated_Source\PSoC5/I2C_LCD.c **** /*******************************************************************************
 611:Generated_Source\PSoC5/I2C_LCD.c **** * Function Name: I2C_LCD_PrintString
 612:Generated_Source\PSoC5/I2C_LCD.c **** ********************************************************************************
 613:Generated_Source\PSoC5/I2C_LCD.c **** *
 614:Generated_Source\PSoC5/I2C_LCD.c **** * Summary:
 615:Generated_Source\PSoC5/I2C_LCD.c **** *  Write a null-terminated string of characters to the screen beginning at the
 616:Generated_Source\PSoC5/I2C_LCD.c **** *  current cursor location.
 617:Generated_Source\PSoC5/I2C_LCD.c **** *
 618:Generated_Source\PSoC5/I2C_LCD.c **** * Parameters:
 619:Generated_Source\PSoC5/I2C_LCD.c **** *  string:  Null-terminated array of ASCII characters to be displayed on the LCD
 620:Generated_Source\PSoC5/I2C_LCD.c **** *           module's screen.
 621:Generated_Source\PSoC5/I2C_LCD.c **** *
 622:Generated_Source\PSoC5/I2C_LCD.c **** * Return:
 623:Generated_Source\PSoC5/I2C_LCD.c **** *  None
 624:Generated_Source\PSoC5/I2C_LCD.c **** *
 625:Generated_Source\PSoC5/I2C_LCD.c **** * Reentrant:
 626:Generated_Source\PSoC5/I2C_LCD.c **** *  No
 627:Generated_Source\PSoC5/I2C_LCD.c **** *
 628:Generated_Source\PSoC5/I2C_LCD.c **** *******************************************************************************/
 629:Generated_Source\PSoC5/I2C_LCD.c **** void I2C_LCD_PrintString(char8 const string[]) 
 630:Generated_Source\PSoC5/I2C_LCD.c **** {
 631:Generated_Source\PSoC5/I2C_LCD.c ****     uint8 chIdx = 1u;
 632:Generated_Source\PSoC5/I2C_LCD.c ****     char8 current = *string;
 633:Generated_Source\PSoC5/I2C_LCD.c **** 
 634:Generated_Source\PSoC5/I2C_LCD.c ****     /* Send required control byte value to address data register */
 635:Generated_Source\PSoC5/I2C_LCD.c ****     I2C_LCD_WrCntrlPatt(I2C_LCD_WRITE_DATA_IDX);
 636:Generated_Source\PSoC5/I2C_LCD.c **** 
 637:Generated_Source\PSoC5/I2C_LCD.c ****     /* Until null is reached, put next character into buffer */
 638:Generated_Source\PSoC5/I2C_LCD.c ****     while((char8) '\0' != current)
ARM GAS  C:\Users\Dell\AppData\Local\Temp\cc7lEuPV.s 			page 15


 639:Generated_Source\PSoC5/I2C_LCD.c ****     {
 640:Generated_Source\PSoC5/I2C_LCD.c ****         /* Add current byte to buffer */
 641:Generated_Source\PSoC5/I2C_LCD.c ****         #if (I2C_LCD_COMMAND_FORMAT == I2C_LCD_NXP_PCF2119X)
 642:Generated_Source\PSoC5/I2C_LCD.c ****             /* In case of NXP PCF2119x, LCD modules use character set "S"
 643:Generated_Source\PSoC5/I2C_LCD.c ****             * (see LCD's module datasheet) that has English letters located in
 644:Generated_Source\PSoC5/I2C_LCD.c ****             * "extended" area (ASCII code > 128) so it is required to handle
 645:Generated_Source\PSoC5/I2C_LCD.c ****             * that. But the first eight generated character are exceptions.
 646:Generated_Source\PSoC5/I2C_LCD.c ****             */
 647:Generated_Source\PSoC5/I2C_LCD.c ****             if(((char8)(I2C_LCD_CUSTOM_CHAR_NUM)) > current)
 648:Generated_Source\PSoC5/I2C_LCD.c ****             {
 649:Generated_Source\PSoC5/I2C_LCD.c ****                 I2C_LCD_WrDataToBuff((uint8) current);
 650:Generated_Source\PSoC5/I2C_LCD.c ****             }
 651:Generated_Source\PSoC5/I2C_LCD.c ****             else
 652:Generated_Source\PSoC5/I2C_LCD.c ****             {
 653:Generated_Source\PSoC5/I2C_LCD.c ****                 I2C_LCD_WrDataToBuff(((uint8) current) ^ I2C_LCD_CHARACTER_SET_S_MASK);
 654:Generated_Source\PSoC5/I2C_LCD.c ****             }
 655:Generated_Source\PSoC5/I2C_LCD.c ****         #else
 656:Generated_Source\PSoC5/I2C_LCD.c ****             I2C_LCD_WrDataToBuff((uint8) current);
 657:Generated_Source\PSoC5/I2C_LCD.c ****         #endif /* ((I2C_LCD_COMMAND_FORMAT == I2C_LCD_NXP_PCF2119X) && \
 658:Generated_Source\PSoC5/I2C_LCD.c ****                * (I2C_LCD_CUSTOM_CHAR_SET != I2C_LCD_NONE))
 659:Generated_Source\PSoC5/I2C_LCD.c ****                */
 660:Generated_Source\PSoC5/I2C_LCD.c **** 
 661:Generated_Source\PSoC5/I2C_LCD.c ****         /* Get next byte from string */
 662:Generated_Source\PSoC5/I2C_LCD.c ****         current = string[chIdx];
 663:Generated_Source\PSoC5/I2C_LCD.c ****         chIdx++;
 664:Generated_Source\PSoC5/I2C_LCD.c ****     }
 665:Generated_Source\PSoC5/I2C_LCD.c **** 
 666:Generated_Source\PSoC5/I2C_LCD.c ****     /* Send data to LCD and wait when transaction completes */
 667:Generated_Source\PSoC5/I2C_LCD.c ****     I2C_LCD_SendSequence();
 668:Generated_Source\PSoC5/I2C_LCD.c **** }
 669:Generated_Source\PSoC5/I2C_LCD.c **** 
 670:Generated_Source\PSoC5/I2C_LCD.c **** 
 671:Generated_Source\PSoC5/I2C_LCD.c **** /*******************************************************************************
 672:Generated_Source\PSoC5/I2C_LCD.c **** *  Function Name: I2C_LCD_PutChar
 673:Generated_Source\PSoC5/I2C_LCD.c **** ********************************************************************************
 674:Generated_Source\PSoC5/I2C_LCD.c **** *
 675:Generated_Source\PSoC5/I2C_LCD.c **** * Summary:
 676:Generated_Source\PSoC5/I2C_LCD.c **** *  Writes an individual character to the screen at the current cursor location.
 677:Generated_Source\PSoC5/I2C_LCD.c **** *  Used to display custom characters through their named values.
 678:Generated_Source\PSoC5/I2C_LCD.c **** *  (I2C_LCD_CUSTOM_0 through I2C_LCD_CUSTOM_7).
 679:Generated_Source\PSoC5/I2C_LCD.c **** *
 680:Generated_Source\PSoC5/I2C_LCD.c **** * Parameters:
 681:Generated_Source\PSoC5/I2C_LCD.c **** *  character:  An ASCII character to be displayed on the LCD module's screen.
 682:Generated_Source\PSoC5/I2C_LCD.c **** *
 683:Generated_Source\PSoC5/I2C_LCD.c **** * Return:
 684:Generated_Source\PSoC5/I2C_LCD.c **** *  None
 685:Generated_Source\PSoC5/I2C_LCD.c **** *
 686:Generated_Source\PSoC5/I2C_LCD.c **** * Reentrant:
 687:Generated_Source\PSoC5/I2C_LCD.c **** *  No
 688:Generated_Source\PSoC5/I2C_LCD.c **** *
 689:Generated_Source\PSoC5/I2C_LCD.c **** *******************************************************************************/
 690:Generated_Source\PSoC5/I2C_LCD.c **** void I2C_LCD_PutChar(char8 character) 
 691:Generated_Source\PSoC5/I2C_LCD.c **** {
 692:Generated_Source\PSoC5/I2C_LCD.c ****     /* Send one byte of data with I2C_LCD_WriteData() */
 693:Generated_Source\PSoC5/I2C_LCD.c ****     #if (I2C_LCD_COMMAND_FORMAT == I2C_LCD_NXP_PCF2119X)
 694:Generated_Source\PSoC5/I2C_LCD.c ****         /* In case of NXP PCF2119x, the LCD modules use character set "S"
 695:Generated_Source\PSoC5/I2C_LCD.c ****         * (see LCD's module datasheet) that has English letters located in
ARM GAS  C:\Users\Dell\AppData\Local\Temp\cc7lEuPV.s 			page 16


 696:Generated_Source\PSoC5/I2C_LCD.c ****         * "extended" area (ASCII code > 128) so it is required to handle
 697:Generated_Source\PSoC5/I2C_LCD.c ****         * that. But the first eight generated character are exceptions.
 698:Generated_Source\PSoC5/I2C_LCD.c ****         */
 699:Generated_Source\PSoC5/I2C_LCD.c ****         if(((char8) (I2C_LCD_CUSTOM_CHAR_NUM)) >  character)
 700:Generated_Source\PSoC5/I2C_LCD.c ****         {
 701:Generated_Source\PSoC5/I2C_LCD.c ****             I2C_LCD_WriteData((uint8) character);
 702:Generated_Source\PSoC5/I2C_LCD.c ****         }
 703:Generated_Source\PSoC5/I2C_LCD.c ****         else
 704:Generated_Source\PSoC5/I2C_LCD.c ****         {
 705:Generated_Source\PSoC5/I2C_LCD.c ****             I2C_LCD_WriteData(((uint8) character) ^ I2C_LCD_CHARACTER_SET_S_MASK);
 706:Generated_Source\PSoC5/I2C_LCD.c ****         }
 707:Generated_Source\PSoC5/I2C_LCD.c ****     #else
 708:Generated_Source\PSoC5/I2C_LCD.c ****         I2C_LCD_WriteData((uint8) character);
 709:Generated_Source\PSoC5/I2C_LCD.c ****     #endif /* (I2C_LCD_COMMAND_FORMAT == I2C_LCD_NXP_PCF2119X) */
 710:Generated_Source\PSoC5/I2C_LCD.c **** }
 711:Generated_Source\PSoC5/I2C_LCD.c **** 
 712:Generated_Source\PSoC5/I2C_LCD.c **** 
 713:Generated_Source\PSoC5/I2C_LCD.c **** /*******************************************************************************
 714:Generated_Source\PSoC5/I2C_LCD.c **** *  Function Name: I2C_LCD_PrintInt8
 715:Generated_Source\PSoC5/I2C_LCD.c **** ********************************************************************************
 716:Generated_Source\PSoC5/I2C_LCD.c **** *
 717:Generated_Source\PSoC5/I2C_LCD.c **** * Summary:
 718:Generated_Source\PSoC5/I2C_LCD.c **** *  Print a byte as two ASCII characters.
 719:Generated_Source\PSoC5/I2C_LCD.c **** *
 720:Generated_Source\PSoC5/I2C_LCD.c **** * Parameters:
 721:Generated_Source\PSoC5/I2C_LCD.c **** *  value: The byte to be printed out as ASCII characters.
 722:Generated_Source\PSoC5/I2C_LCD.c **** *
 723:Generated_Source\PSoC5/I2C_LCD.c **** * Return:
 724:Generated_Source\PSoC5/I2C_LCD.c **** *  None
 725:Generated_Source\PSoC5/I2C_LCD.c **** *
 726:Generated_Source\PSoC5/I2C_LCD.c **** * Reentrant:
 727:Generated_Source\PSoC5/I2C_LCD.c **** *  No
 728:Generated_Source\PSoC5/I2C_LCD.c **** *
 729:Generated_Source\PSoC5/I2C_LCD.c **** *******************************************************************************/
 730:Generated_Source\PSoC5/I2C_LCD.c **** void I2C_LCD_PrintInt8(uint8 value) 
 731:Generated_Source\PSoC5/I2C_LCD.c **** {
 732:Generated_Source\PSoC5/I2C_LCD.c ****     static char8 const CYCODE I2C_LCD_hex[16u] = "0123456789ABCDEF";
 733:Generated_Source\PSoC5/I2C_LCD.c **** 
 734:Generated_Source\PSoC5/I2C_LCD.c ****     /* Send required control byte value to address data register */
 735:Generated_Source\PSoC5/I2C_LCD.c ****     I2C_LCD_WrCntrlPatt(I2C_LCD_WRITE_DATA_IDX);
 736:Generated_Source\PSoC5/I2C_LCD.c **** 
 737:Generated_Source\PSoC5/I2C_LCD.c ****     /* Add current byte to buffer */
 738:Generated_Source\PSoC5/I2C_LCD.c ****     #if (I2C_LCD_COMMAND_FORMAT == I2C_LCD_NXP_PCF2119X)
 739:Generated_Source\PSoC5/I2C_LCD.c ****         /* In case of NXP PCF2119x, LCD modules use character set "S"
 740:Generated_Source\PSoC5/I2C_LCD.c ****         * (see LCD's module datasheet) that has English letters located in
 741:Generated_Source\PSoC5/I2C_LCD.c ****         * "extended" area (ASCII code > 128) so it is required to handle
 742:Generated_Source\PSoC5/I2C_LCD.c ****         * that.
 743:Generated_Source\PSoC5/I2C_LCD.c ****         */
 744:Generated_Source\PSoC5/I2C_LCD.c ****         I2C_LCD_WrDataToBuff(((uint8) I2C_LCD_hex[value >> I2C_LCD_BYTE_UPPER_NIBBLE_SHIFT])
 745:Generated_Source\PSoC5/I2C_LCD.c ****                                                ^ I2C_LCD_CHARACTER_SET_S_MASK );
 746:Generated_Source\PSoC5/I2C_LCD.c ****         I2C_LCD_WrDataToBuff(((uint8) I2C_LCD_hex[value & I2C_LCD_BYTE_LOWER_NIBBLE_MASK]) ^
 747:Generated_Source\PSoC5/I2C_LCD.c ****                                                I2C_LCD_CHARACTER_SET_S_MASK);
 748:Generated_Source\PSoC5/I2C_LCD.c ****     #else
 749:Generated_Source\PSoC5/I2C_LCD.c ****         I2C_LCD_WrDataToBuff((uint8) I2C_LCD_hex[value >> I2C_LCD_BYTE_UPPER_NIBBLE_SHIFT]);
 750:Generated_Source\PSoC5/I2C_LCD.c ****         I2C_LCD_WrDataToBuff((uint8) I2C_LCD_hex[value & I2C_LCD_BYTE_LOWER_NIBBLE_MASK]);
 751:Generated_Source\PSoC5/I2C_LCD.c ****     #endif /* (I2C_LCD_COMMAND_FORMAT == I2C_LCD_NXP_PCF2119X) */
 752:Generated_Source\PSoC5/I2C_LCD.c **** 
ARM GAS  C:\Users\Dell\AppData\Local\Temp\cc7lEuPV.s 			page 17


 753:Generated_Source\PSoC5/I2C_LCD.c ****     /* Send data to LCD and wait when transaction complete */
 754:Generated_Source\PSoC5/I2C_LCD.c ****     I2C_LCD_SendSequence();
 755:Generated_Source\PSoC5/I2C_LCD.c **** }
 756:Generated_Source\PSoC5/I2C_LCD.c **** 
 757:Generated_Source\PSoC5/I2C_LCD.c **** 
 758:Generated_Source\PSoC5/I2C_LCD.c **** /*******************************************************************************
 759:Generated_Source\PSoC5/I2C_LCD.c **** *  Function Name: I2C_LCD_PrintInt16
 760:Generated_Source\PSoC5/I2C_LCD.c **** ********************************************************************************
 761:Generated_Source\PSoC5/I2C_LCD.c **** *
 762:Generated_Source\PSoC5/I2C_LCD.c **** * Summary:
 763:Generated_Source\PSoC5/I2C_LCD.c **** *  Print a uint16 as four ASCII characters.
 764:Generated_Source\PSoC5/I2C_LCD.c **** *
 765:Generated_Source\PSoC5/I2C_LCD.c **** * Parameters:
 766:Generated_Source\PSoC5/I2C_LCD.c **** *  value:   The uint16 to be printed out as ASCII characters.
 767:Generated_Source\PSoC5/I2C_LCD.c **** *
 768:Generated_Source\PSoC5/I2C_LCD.c **** * Return:
 769:Generated_Source\PSoC5/I2C_LCD.c **** *  None
 770:Generated_Source\PSoC5/I2C_LCD.c **** *
 771:Generated_Source\PSoC5/I2C_LCD.c **** * Reentrant:
 772:Generated_Source\PSoC5/I2C_LCD.c **** *  No
 773:Generated_Source\PSoC5/I2C_LCD.c **** *
 774:Generated_Source\PSoC5/I2C_LCD.c **** *******************************************************************************/
 775:Generated_Source\PSoC5/I2C_LCD.c **** void I2C_LCD_PrintInt16(uint16 value) 
 776:Generated_Source\PSoC5/I2C_LCD.c **** {
 777:Generated_Source\PSoC5/I2C_LCD.c ****     I2C_LCD_PrintInt8((uint8)(value >> I2C_LCD_U16_UPPER_BYTE_SHIFT));
 778:Generated_Source\PSoC5/I2C_LCD.c ****     I2C_LCD_PrintInt8((uint8)(value & I2C_LCD_U16_LOWER_BYTE_MASK));
 779:Generated_Source\PSoC5/I2C_LCD.c **** }
 780:Generated_Source\PSoC5/I2C_LCD.c **** 
 781:Generated_Source\PSoC5/I2C_LCD.c **** 
 782:Generated_Source\PSoC5/I2C_LCD.c **** /*******************************************************************************
 783:Generated_Source\PSoC5/I2C_LCD.c **** *  Function Name: I2C_LCD_PrintNumber
 784:Generated_Source\PSoC5/I2C_LCD.c **** ********************************************************************************
 785:Generated_Source\PSoC5/I2C_LCD.c **** *
 786:Generated_Source\PSoC5/I2C_LCD.c **** * Summary:
 787:Generated_Source\PSoC5/I2C_LCD.c **** *  Print a uint16 value as a left-justified decimal value.
 788:Generated_Source\PSoC5/I2C_LCD.c **** *
 789:Generated_Source\PSoC5/I2C_LCD.c **** * Parameters:
 790:Generated_Source\PSoC5/I2C_LCD.c **** *  value:  The byte to be printed out as ASCII characters.
 791:Generated_Source\PSoC5/I2C_LCD.c **** *
 792:Generated_Source\PSoC5/I2C_LCD.c **** * Return:
 793:Generated_Source\PSoC5/I2C_LCD.c **** *  None
 794:Generated_Source\PSoC5/I2C_LCD.c **** *
 795:Generated_Source\PSoC5/I2C_LCD.c **** * Reentrant:
 796:Generated_Source\PSoC5/I2C_LCD.c **** *  No
 797:Generated_Source\PSoC5/I2C_LCD.c **** *
 798:Generated_Source\PSoC5/I2C_LCD.c **** *******************************************************************************/
 799:Generated_Source\PSoC5/I2C_LCD.c **** void I2C_LCD_PrintNumber(uint16 value) 
 800:Generated_Source\PSoC5/I2C_LCD.c **** {
 801:Generated_Source\PSoC5/I2C_LCD.c ****     char8 number[I2C_LCD_NUMBER_OF_REMAINDERS];
 802:Generated_Source\PSoC5/I2C_LCD.c ****     char8 temp[I2C_LCD_NUMBER_OF_REMAINDERS];
 803:Generated_Source\PSoC5/I2C_LCD.c **** 
 804:Generated_Source\PSoC5/I2C_LCD.c ****     uint8 digIndex = 0u;
 805:Generated_Source\PSoC5/I2C_LCD.c ****     uint8 numDigits;
 806:Generated_Source\PSoC5/I2C_LCD.c **** 
 807:Generated_Source\PSoC5/I2C_LCD.c ****     /* Load these in reverse order */
 808:Generated_Source\PSoC5/I2C_LCD.c ****     while(value >= I2C_LCD_TEN)
 809:Generated_Source\PSoC5/I2C_LCD.c ****     {
ARM GAS  C:\Users\Dell\AppData\Local\Temp\cc7lEuPV.s 			page 18


 810:Generated_Source\PSoC5/I2C_LCD.c ****         temp[digIndex] = (value % I2C_LCD_TEN) + '0';
 811:Generated_Source\PSoC5/I2C_LCD.c ****         value /= I2C_LCD_TEN;
 812:Generated_Source\PSoC5/I2C_LCD.c ****         digIndex++;
 813:Generated_Source\PSoC5/I2C_LCD.c ****     }
 814:Generated_Source\PSoC5/I2C_LCD.c **** 
 815:Generated_Source\PSoC5/I2C_LCD.c ****     temp[digIndex] = (value % I2C_LCD_TEN) + '0';
 816:Generated_Source\PSoC5/I2C_LCD.c ****     numDigits = digIndex;
 817:Generated_Source\PSoC5/I2C_LCD.c **** 
 818:Generated_Source\PSoC5/I2C_LCD.c ****     /* While index is greater than or equal to zero copy number
 819:Generated_Source\PSoC5/I2C_LCD.c ****     * from temporary array to number[].
 820:Generated_Source\PSoC5/I2C_LCD.c ****     */
 821:Generated_Source\PSoC5/I2C_LCD.c ****     while (digIndex != 0u)
 822:Generated_Source\PSoC5/I2C_LCD.c ****     {
 823:Generated_Source\PSoC5/I2C_LCD.c ****         number[numDigits - digIndex] = temp[digIndex];
 824:Generated_Source\PSoC5/I2C_LCD.c ****         digIndex--;
 825:Generated_Source\PSoC5/I2C_LCD.c ****     }
 826:Generated_Source\PSoC5/I2C_LCD.c **** 
 827:Generated_Source\PSoC5/I2C_LCD.c ****     /* Copy last digit */
 828:Generated_Source\PSoC5/I2C_LCD.c ****     number[numDigits] = temp[0u];
 829:Generated_Source\PSoC5/I2C_LCD.c **** 
 830:Generated_Source\PSoC5/I2C_LCD.c ****     /* Null Termination */
 831:Generated_Source\PSoC5/I2C_LCD.c ****     number[numDigits + 1u] = (char8) '\0';
 832:Generated_Source\PSoC5/I2C_LCD.c **** 
 833:Generated_Source\PSoC5/I2C_LCD.c ****     /* Print out number */
 834:Generated_Source\PSoC5/I2C_LCD.c ****     I2C_LCD_PrintString(&number[0u]);
 835:Generated_Source\PSoC5/I2C_LCD.c **** }
 836:Generated_Source\PSoC5/I2C_LCD.c **** 
 837:Generated_Source\PSoC5/I2C_LCD.c **** 
 838:Generated_Source\PSoC5/I2C_LCD.c **** /*******************************************************************************
 839:Generated_Source\PSoC5/I2C_LCD.c **** * Function Name: I2C_LCD_SetAddr
 840:Generated_Source\PSoC5/I2C_LCD.c **** ********************************************************************************
 841:Generated_Source\PSoC5/I2C_LCD.c **** *
 842:Generated_Source\PSoC5/I2C_LCD.c **** * Summary:
 843:Generated_Source\PSoC5/I2C_LCD.c **** *  This function allows the user to change the default I2C address of the LCD.
 844:Generated_Source\PSoC5/I2C_LCD.c **** *  This function is not used for designs with a single LCD. Systems that have 2
 845:Generated_Source\PSoC5/I2C_LCD.c **** *  or more LCDs on a single I2C bus, use this function to select which LCD to
 846:Generated_Source\PSoC5/I2C_LCD.c **** *  communicate. A uint8 variable I2C_LCD_address, will be will be set
 847:Generated_Source\PSoC5/I2C_LCD.c **** *  to the "address" parameter and be used for all further communication until
 848:Generated_Source\PSoC5/I2C_LCD.c **** *  it is changed to a new address.
 849:Generated_Source\PSoC5/I2C_LCD.c **** *
 850:Generated_Source\PSoC5/I2C_LCD.c **** * Parameters:
 851:Generated_Source\PSoC5/I2C_LCD.c **** *  None
 852:Generated_Source\PSoC5/I2C_LCD.c **** *
 853:Generated_Source\PSoC5/I2C_LCD.c **** * Return:
 854:Generated_Source\PSoC5/I2C_LCD.c **** *  None
 855:Generated_Source\PSoC5/I2C_LCD.c **** *
 856:Generated_Source\PSoC5/I2C_LCD.c **** * Reentrant:
 857:Generated_Source\PSoC5/I2C_LCD.c **** *  No
 858:Generated_Source\PSoC5/I2C_LCD.c **** *
 859:Generated_Source\PSoC5/I2C_LCD.c **** *******************************************************************************/
 860:Generated_Source\PSoC5/I2C_LCD.c **** void I2C_LCD_SetAddr(uint8 address) 
 861:Generated_Source\PSoC5/I2C_LCD.c **** {
 862:Generated_Source\PSoC5/I2C_LCD.c ****     #if(I2C_LCD_IS_SCB_MASTER_USED)
 863:Generated_Source\PSoC5/I2C_LCD.c ****         I2C_LCD_address = ((uint32) address >> I2C_LCD_ADDRESS_SHIFT);
 864:Generated_Source\PSoC5/I2C_LCD.c ****     #else
 865:Generated_Source\PSoC5/I2C_LCD.c ****         I2C_LCD_address = ((uint8) address >> I2C_LCD_ADDRESS_SHIFT);
 866:Generated_Source\PSoC5/I2C_LCD.c ****     #endif /* (I2C_LCD_IS_SCB_MASTER_USED) */
ARM GAS  C:\Users\Dell\AppData\Local\Temp\cc7lEuPV.s 			page 19


 867:Generated_Source\PSoC5/I2C_LCD.c **** }
 868:Generated_Source\PSoC5/I2C_LCD.c **** 
 869:Generated_Source\PSoC5/I2C_LCD.c **** 
 870:Generated_Source\PSoC5/I2C_LCD.c **** #if (I2C_LCD_CUSTOM_CHAR_SET != I2C_LCD_NONE)
 871:Generated_Source\PSoC5/I2C_LCD.c **** 
 872:Generated_Source\PSoC5/I2C_LCD.c ****     /*******************************************************************************
 873:Generated_Source\PSoC5/I2C_LCD.c ****     * Function Name: I2C_LCD_LoadCustomFonts
 874:Generated_Source\PSoC5/I2C_LCD.c ****     ********************************************************************************
 875:Generated_Source\PSoC5/I2C_LCD.c ****     *
 876:Generated_Source\PSoC5/I2C_LCD.c ****     * Summary:
 877:Generated_Source\PSoC5/I2C_LCD.c ****     *  Loads 8 custom font characters into the LCD Module for use.  Cannot use
 878:Generated_Source\PSoC5/I2C_LCD.c ****     *  characters from two different font sets at once, but font sets can be
 879:Generated_Source\PSoC5/I2C_LCD.c ****     *  switched out during runtime.
 880:Generated_Source\PSoC5/I2C_LCD.c ****     *
 881:Generated_Source\PSoC5/I2C_LCD.c ****     * Parameters:
 882:Generated_Source\PSoC5/I2C_LCD.c ****     *  customData:  The pointer to a constant array of 64 bytes representing 
 883:Generated_Source\PSoC5/I2C_LCD.c ****     *               8 custom font characters.
 884:Generated_Source\PSoC5/I2C_LCD.c ****     * Return:
 885:Generated_Source\PSoC5/I2C_LCD.c ****     *  None
 886:Generated_Source\PSoC5/I2C_LCD.c ****     *
 887:Generated_Source\PSoC5/I2C_LCD.c ****     * Reentrant:
 888:Generated_Source\PSoC5/I2C_LCD.c ****     *  No
 889:Generated_Source\PSoC5/I2C_LCD.c ****     *
 890:Generated_Source\PSoC5/I2C_LCD.c ****     * Theory:
 891:Generated_Source\PSoC5/I2C_LCD.c ****     *  Prior to using this function user need to import the pointer to custom
 892:Generated_Source\PSoC5/I2C_LCD.c ****     *  font array to your project by writing the following in the source code file
 893:Generated_Source\PSoC5/I2C_LCD.c ****     *  where custom font will be used:
 894:Generated_Source\PSoC5/I2C_LCD.c ****     *       extern uint8 const CYCODE LCD_Char_customFonts[];
 895:Generated_Source\PSoC5/I2C_LCD.c ****     *  This function is not automatically called by the Start() routine and must be
 896:Generated_Source\PSoC5/I2C_LCD.c ****     *  called manually by the user.
 897:Generated_Source\PSoC5/I2C_LCD.c ****     *
 898:Generated_Source\PSoC5/I2C_LCD.c ****     *******************************************************************************/
 899:Generated_Source\PSoC5/I2C_LCD.c ****     void I2C_LCD_LoadCustomFonts(uint8 const customData[])
 900:Generated_Source\PSoC5/I2C_LCD.c ****                                                             
 901:Generated_Source\PSoC5/I2C_LCD.c ****     {
 902:Generated_Source\PSoC5/I2C_LCD.c ****         uint8 i;
 903:Generated_Source\PSoC5/I2C_LCD.c **** 
 904:Generated_Source\PSoC5/I2C_LCD.c ****         #if (I2C_LCD_COMMAND_FORMAT != I2C_LCD_NXP_PCF2119X)
 905:Generated_Source\PSoC5/I2C_LCD.c ****             uint8 addrOffset = 0u;
 906:Generated_Source\PSoC5/I2C_LCD.c ****             uint8 count = 0u;
 907:Generated_Source\PSoC5/I2C_LCD.c ****         #endif /* (I2C_LCD_COMMAND_FORMAT != I2C_LCD_NXP_PCF2119X) */
 908:Generated_Source\PSoC5/I2C_LCD.c **** 
 909:Generated_Source\PSoC5/I2C_LCD.c ****         #if (I2C_LCD_COMMAND_FORMAT == I2C_LCD_NXP_PCF2119X)
 910:Generated_Source\PSoC5/I2C_LCD.c ****             /* Set starting address in LCD Module as it is location of CGRAM */
 911:Generated_Source\PSoC5/I2C_LCD.c ****             I2C_LCD_WriteControl(I2C_LCD_CGRAM_0);
 912:Generated_Source\PSoC5/I2C_LCD.c **** 
 913:Generated_Source\PSoC5/I2C_LCD.c ****             /* Set Control pattern for data writing */
 914:Generated_Source\PSoC5/I2C_LCD.c ****             I2C_LCD_WrCntrlPatt(I2C_LCD_WRITE_DATA_IDX);
 915:Generated_Source\PSoC5/I2C_LCD.c **** 
 916:Generated_Source\PSoC5/I2C_LCD.c ****             /* Load in 64 bytes of CustomChar Data */
 917:Generated_Source\PSoC5/I2C_LCD.c ****             for(i = 0u; i < I2C_LCD_CUSTOM_CHAR_SET_LEN; i++)
 918:Generated_Source\PSoC5/I2C_LCD.c ****             {
 919:Generated_Source\PSoC5/I2C_LCD.c ****                 /* Variable 'i' defines character ID (character address) */
 920:Generated_Source\PSoC5/I2C_LCD.c ****                 I2C_LCD_WrDataToBuff(customData[i]);
 921:Generated_Source\PSoC5/I2C_LCD.c ****             }
 922:Generated_Source\PSoC5/I2C_LCD.c **** 
 923:Generated_Source\PSoC5/I2C_LCD.c ****             /* Send data to LCD and wait when transaction completes */
ARM GAS  C:\Users\Dell\AppData\Local\Temp\cc7lEuPV.s 			page 20


 924:Generated_Source\PSoC5/I2C_LCD.c ****             I2C_LCD_SendSequence();
 925:Generated_Source\PSoC5/I2C_LCD.c ****             
 926:Generated_Source\PSoC5/I2C_LCD.c ****             /* Set the LCD modules address register back to the start of the data RAM */
 927:Generated_Source\PSoC5/I2C_LCD.c ****             I2C_LCD_Position(0u ,0u);
 928:Generated_Source\PSoC5/I2C_LCD.c ****         #else
 929:Generated_Source\PSoC5/I2C_LCD.c ****             while(addrOffset < I2C_LCD_CUSTOM_CHAR_SET_LEN)
 930:Generated_Source\PSoC5/I2C_LCD.c ****             {
 931:Generated_Source\PSoC5/I2C_LCD.c ****                 /* Set starting address in LCD Module as it is location of CGRAM. */
 932:Generated_Source\PSoC5/I2C_LCD.c ****                 I2C_LCD_WrCntrlPatt(I2C_LCD_CGRAM_0_IDX);
 933:Generated_Source\PSoC5/I2C_LCD.c ****                 
 934:Generated_Source\PSoC5/I2C_LCD.c ****                 /* Variable 'i' defines character ID (character address) */
 935:Generated_Source\PSoC5/I2C_LCD.c ****                 I2C_LCD_WrDataToBuff(count);
 936:Generated_Source\PSoC5/I2C_LCD.c ****                 
 937:Generated_Source\PSoC5/I2C_LCD.c ****                 /* Increment count (actually means to increment custom character address) */
 938:Generated_Source\PSoC5/I2C_LCD.c ****                 count++;
 939:Generated_Source\PSoC5/I2C_LCD.c ****                 
 940:Generated_Source\PSoC5/I2C_LCD.c ****                 for(i = 0u; i < I2C_LCD_CHARACTER_HEIGHT; i++)
 941:Generated_Source\PSoC5/I2C_LCD.c ****                 {
 942:Generated_Source\PSoC5/I2C_LCD.c ****                     I2C_LCD_WrDataToBuff(customData[addrOffset + i]);
 943:Generated_Source\PSoC5/I2C_LCD.c ****                 }
 944:Generated_Source\PSoC5/I2C_LCD.c **** 
 945:Generated_Source\PSoC5/I2C_LCD.c ****                 /* Send data to LCD and wait when transaction complete */
 946:Generated_Source\PSoC5/I2C_LCD.c ****                 I2C_LCD_SendSequence();
 947:Generated_Source\PSoC5/I2C_LCD.c ****                 
 948:Generated_Source\PSoC5/I2C_LCD.c ****                 /* Calculate next offset value */
 949:Generated_Source\PSoC5/I2C_LCD.c ****                 addrOffset += I2C_LCD_CHARACTER_HEIGHT;
 950:Generated_Source\PSoC5/I2C_LCD.c ****             }
 951:Generated_Source\PSoC5/I2C_LCD.c ****         #endif /* (I2C_LCD_COMMAND_FORMAT != I2C_LCD_NXP_PCF2119X) */
 952:Generated_Source\PSoC5/I2C_LCD.c ****     }
 953:Generated_Source\PSoC5/I2C_LCD.c **** 
 954:Generated_Source\PSoC5/I2C_LCD.c **** #endif /* I2C_LCD_CUSTOM_CHAR_SET == I2C_LCD_NONE */
 955:Generated_Source\PSoC5/I2C_LCD.c **** 
 956:Generated_Source\PSoC5/I2C_LCD.c **** 
 957:Generated_Source\PSoC5/I2C_LCD.c **** #if((I2C_LCD_CUSTOM_CHAR_SET == I2C_LCD_VERTICAL_BG) || \
 958:Generated_Source\PSoC5/I2C_LCD.c ****                 (I2C_LCD_CUSTOM_CHAR_SET == I2C_LCD_HORIZONTAL_BG))
 959:Generated_Source\PSoC5/I2C_LCD.c **** 
 960:Generated_Source\PSoC5/I2C_LCD.c ****     /*******************************************************************************
 961:Generated_Source\PSoC5/I2C_LCD.c ****     * Function Name: I2C_LCD_DrawHorizontalBG
 962:Generated_Source\PSoC5/I2C_LCD.c ****     ********************************************************************************
 963:Generated_Source\PSoC5/I2C_LCD.c ****     *
 964:Generated_Source\PSoC5/I2C_LCD.c ****     * Summary:
 965:Generated_Source\PSoC5/I2C_LCD.c ****     *  Draws the horizontal bargraph.
 966:Generated_Source\PSoC5/I2C_LCD.c ****     *
 967:Generated_Source\PSoC5/I2C_LCD.c ****     * Parameters:
 968:Generated_Source\PSoC5/I2C_LCD.c ****     *  row:            The row in which the bar graph starts.
 969:Generated_Source\PSoC5/I2C_LCD.c ****     *  column:         The column in which the bar graph starts.
 970:Generated_Source\PSoC5/I2C_LCD.c ****     *  maxCharacters:  The max length of the graph in whole characters.
 971:Generated_Source\PSoC5/I2C_LCD.c ****     *  value:          The current length or height of the graph in pixels.
 972:Generated_Source\PSoC5/I2C_LCD.c ****     *
 973:Generated_Source\PSoC5/I2C_LCD.c ****     * Return:
 974:Generated_Source\PSoC5/I2C_LCD.c ****     *  None
 975:Generated_Source\PSoC5/I2C_LCD.c ****     *
 976:Generated_Source\PSoC5/I2C_LCD.c ****     * Reentrant:
 977:Generated_Source\PSoC5/I2C_LCD.c ****     *  No
 978:Generated_Source\PSoC5/I2C_LCD.c ****     *
 979:Generated_Source\PSoC5/I2C_LCD.c ****     *******************************************************************************/
 980:Generated_Source\PSoC5/I2C_LCD.c ****     void I2C_LCD_DrawHorizontalBG(uint8 row, uint8 column, uint8 maxCharacters, uint8 value) \
ARM GAS  C:\Users\Dell\AppData\Local\Temp\cc7lEuPV.s 			page 21


 981:Generated_Source\PSoC5/I2C_LCD.c ****                                                             
 982:Generated_Source\PSoC5/I2C_LCD.c ****     {
 983:Generated_Source\PSoC5/I2C_LCD.c ****         /* 8-bit Counter */
 984:Generated_Source\PSoC5/I2C_LCD.c ****         uint8 count8;
 985:Generated_Source\PSoC5/I2C_LCD.c ****         uint8 fullChars;
 986:Generated_Source\PSoC5/I2C_LCD.c ****         uint8 remainingPixels;
 987:Generated_Source\PSoC5/I2C_LCD.c **** 
 988:Generated_Source\PSoC5/I2C_LCD.c ****         /* Number of full characters to draw */
 989:Generated_Source\PSoC5/I2C_LCD.c ****         fullChars = value / I2C_LCD_CHARACTER_WIDTH;
 990:Generated_Source\PSoC5/I2C_LCD.c **** 
 991:Generated_Source\PSoC5/I2C_LCD.c ****         /* Number of remaining pixels to draw */
 992:Generated_Source\PSoC5/I2C_LCD.c ****         remainingPixels = value % I2C_LCD_CHARACTER_WIDTH;
 993:Generated_Source\PSoC5/I2C_LCD.c **** 
 994:Generated_Source\PSoC5/I2C_LCD.c ****         /* Ensure that maximum character limit is followed. */
 995:Generated_Source\PSoC5/I2C_LCD.c ****         if(fullChars >= maxCharacters)
 996:Generated_Source\PSoC5/I2C_LCD.c ****         {
 997:Generated_Source\PSoC5/I2C_LCD.c ****             fullChars = maxCharacters;
 998:Generated_Source\PSoC5/I2C_LCD.c ****         }
 999:Generated_Source\PSoC5/I2C_LCD.c **** 
1000:Generated_Source\PSoC5/I2C_LCD.c ****         /* Put Cursor at start position */
1001:Generated_Source\PSoC5/I2C_LCD.c ****         I2C_LCD_Position(row, column);
1002:Generated_Source\PSoC5/I2C_LCD.c **** 
1003:Generated_Source\PSoC5/I2C_LCD.c ****         /* Set Control pattern for data writing */
1004:Generated_Source\PSoC5/I2C_LCD.c ****         I2C_LCD_WrCntrlPatt(I2C_LCD_WRITE_DATA_IDX);
1005:Generated_Source\PSoC5/I2C_LCD.c **** 
1006:Generated_Source\PSoC5/I2C_LCD.c ****         /* Write full characters */
1007:Generated_Source\PSoC5/I2C_LCD.c ****         for(count8 = 0u; count8 < fullChars; count8++)
1008:Generated_Source\PSoC5/I2C_LCD.c ****         {
1009:Generated_Source\PSoC5/I2C_LCD.c ****             I2C_LCD_WrDataToBuff(I2C_LCD_CUSTOM_5);
1010:Generated_Source\PSoC5/I2C_LCD.c ****         }
1011:Generated_Source\PSoC5/I2C_LCD.c **** 
1012:Generated_Source\PSoC5/I2C_LCD.c ****         if(fullChars < maxCharacters)
1013:Generated_Source\PSoC5/I2C_LCD.c ****         {
1014:Generated_Source\PSoC5/I2C_LCD.c ****             /* Write remaining pixels */
1015:Generated_Source\PSoC5/I2C_LCD.c ****             I2C_LCD_WrDataToBuff(remainingPixels);
1016:Generated_Source\PSoC5/I2C_LCD.c **** 
1017:Generated_Source\PSoC5/I2C_LCD.c ****             if(fullChars < (maxCharacters - 1u))
1018:Generated_Source\PSoC5/I2C_LCD.c ****             {
1019:Generated_Source\PSoC5/I2C_LCD.c ****                 /* Fill with whitespace to end of bar graph */
1020:Generated_Source\PSoC5/I2C_LCD.c ****                 for(count8 = 0u; count8 < (maxCharacters - fullChars - 1u); count8++)
1021:Generated_Source\PSoC5/I2C_LCD.c ****                 {
1022:Generated_Source\PSoC5/I2C_LCD.c ****                     I2C_LCD_WrDataToBuff(I2C_LCD_CUSTOM_0);
1023:Generated_Source\PSoC5/I2C_LCD.c ****                 }
1024:Generated_Source\PSoC5/I2C_LCD.c ****             }
1025:Generated_Source\PSoC5/I2C_LCD.c ****         }
1026:Generated_Source\PSoC5/I2C_LCD.c **** 
1027:Generated_Source\PSoC5/I2C_LCD.c ****         /* Send data to LCD and wait when transaction complete */
1028:Generated_Source\PSoC5/I2C_LCD.c ****         I2C_LCD_SendSequence();
1029:Generated_Source\PSoC5/I2C_LCD.c ****     }
1030:Generated_Source\PSoC5/I2C_LCD.c **** 
1031:Generated_Source\PSoC5/I2C_LCD.c **** 
1032:Generated_Source\PSoC5/I2C_LCD.c ****     /*******************************************************************************
1033:Generated_Source\PSoC5/I2C_LCD.c ****     *  Function Name: I2C_LCD_DrawVerticalBG
1034:Generated_Source\PSoC5/I2C_LCD.c ****     ********************************************************************************
1035:Generated_Source\PSoC5/I2C_LCD.c ****     *
1036:Generated_Source\PSoC5/I2C_LCD.c ****     * Summary:
1037:Generated_Source\PSoC5/I2C_LCD.c ****     *  Draws the vertical bargraph.
ARM GAS  C:\Users\Dell\AppData\Local\Temp\cc7lEuPV.s 			page 22


1038:Generated_Source\PSoC5/I2C_LCD.c ****     *
1039:Generated_Source\PSoC5/I2C_LCD.c ****     * Parameters:
1040:Generated_Source\PSoC5/I2C_LCD.c ****     *  row:            The row in which the bar graph starts.
1041:Generated_Source\PSoC5/I2C_LCD.c ****     *  column:         The column in which the bar graph starts.
1042:Generated_Source\PSoC5/I2C_LCD.c ****     *  maxCharacters:  The max height of the graph in whole characters.
1043:Generated_Source\PSoC5/I2C_LCD.c ****     *  value:          The current length or height of the graph in pixels.
1044:Generated_Source\PSoC5/I2C_LCD.c ****     *
1045:Generated_Source\PSoC5/I2C_LCD.c ****     * Return:
1046:Generated_Source\PSoC5/I2C_LCD.c ****     *  None
1047:Generated_Source\PSoC5/I2C_LCD.c ****     *
1048:Generated_Source\PSoC5/I2C_LCD.c ****     * Reentrant:
1049:Generated_Source\PSoC5/I2C_LCD.c ****     *  No
1050:Generated_Source\PSoC5/I2C_LCD.c ****     *
1051:Generated_Source\PSoC5/I2C_LCD.c ****     *******************************************************************************/
1052:Generated_Source\PSoC5/I2C_LCD.c ****     void I2C_LCD_DrawVerticalBG(uint8 row, uint8 column, uint8 maxCharacters, uint8 value)
1053:Generated_Source\PSoC5/I2C_LCD.c ****                                                             
1054:Generated_Source\PSoC5/I2C_LCD.c ****     {
1055:Generated_Source\PSoC5/I2C_LCD.c ****         /* 8-bit Counter */
1056:Generated_Source\PSoC5/I2C_LCD.c ****         uint8 count8 = 0u;
1057:Generated_Source\PSoC5/I2C_LCD.c ****         /* Current Row Tracker */
1058:Generated_Source\PSoC5/I2C_LCD.c ****         int8 currentRow;
1059:Generated_Source\PSoC5/I2C_LCD.c ****         uint8 fullChars;
1060:Generated_Source\PSoC5/I2C_LCD.c ****         uint8 remainingPixels;
1061:Generated_Source\PSoC5/I2C_LCD.c **** 
1062:Generated_Source\PSoC5/I2C_LCD.c ****         /* Number of full characters to draw */
1063:Generated_Source\PSoC5/I2C_LCD.c ****         fullChars = value / I2C_LCD_CHARACTER_HEIGHT;
1064:Generated_Source\PSoC5/I2C_LCD.c **** 
1065:Generated_Source\PSoC5/I2C_LCD.c ****         /* Number of remaining pixels to draw */
1066:Generated_Source\PSoC5/I2C_LCD.c ****         remainingPixels = value % I2C_LCD_CHARACTER_HEIGHT;
1067:Generated_Source\PSoC5/I2C_LCD.c **** 
1068:Generated_Source\PSoC5/I2C_LCD.c ****         /* Put Cursor at start position */
1069:Generated_Source\PSoC5/I2C_LCD.c ****         I2C_LCD_Position(row, column);
1070:Generated_Source\PSoC5/I2C_LCD.c **** 
1071:Generated_Source\PSoC5/I2C_LCD.c ****         /* Make sure the bar graph fits inside the space allotted */
1072:Generated_Source\PSoC5/I2C_LCD.c ****         if(fullChars >= maxCharacters)
1073:Generated_Source\PSoC5/I2C_LCD.c ****         {
1074:Generated_Source\PSoC5/I2C_LCD.c ****             fullChars = maxCharacters;
1075:Generated_Source\PSoC5/I2C_LCD.c ****         }
1076:Generated_Source\PSoC5/I2C_LCD.c **** 
1077:Generated_Source\PSoC5/I2C_LCD.c ****         /*  Write full characters */
1078:Generated_Source\PSoC5/I2C_LCD.c ****         while(count8 < fullChars)
1079:Generated_Source\PSoC5/I2C_LCD.c ****         {
1080:Generated_Source\PSoC5/I2C_LCD.c ****             I2C_LCD_WriteData(I2C_LCD_CUSTOM_7);
1081:Generated_Source\PSoC5/I2C_LCD.c **** 
1082:Generated_Source\PSoC5/I2C_LCD.c ****             count8++;
1083:Generated_Source\PSoC5/I2C_LCD.c **** 
1084:Generated_Source\PSoC5/I2C_LCD.c ****             /* Each pass through, move one row higher */
1085:Generated_Source\PSoC5/I2C_LCD.c ****             if((((int8) row) - ((int8) count8)) >= 0)
1086:Generated_Source\PSoC5/I2C_LCD.c ****             {
1087:Generated_Source\PSoC5/I2C_LCD.c ****                 I2C_LCD_Position(row - count8, column);
1088:Generated_Source\PSoC5/I2C_LCD.c ****             }
1089:Generated_Source\PSoC5/I2C_LCD.c ****             else
1090:Generated_Source\PSoC5/I2C_LCD.c ****             {
1091:Generated_Source\PSoC5/I2C_LCD.c ****                 break;
1092:Generated_Source\PSoC5/I2C_LCD.c ****             }
1093:Generated_Source\PSoC5/I2C_LCD.c ****         }
1094:Generated_Source\PSoC5/I2C_LCD.c **** 
ARM GAS  C:\Users\Dell\AppData\Local\Temp\cc7lEuPV.s 			page 23


1095:Generated_Source\PSoC5/I2C_LCD.c ****         if(((((int8) row) - ((int8) count8)) >= 0) && (fullChars < maxCharacters))
1096:Generated_Source\PSoC5/I2C_LCD.c ****         {
1097:Generated_Source\PSoC5/I2C_LCD.c ****             /* Write remaining pixels */
1098:Generated_Source\PSoC5/I2C_LCD.c ****             if(remainingPixels == 0u)
1099:Generated_Source\PSoC5/I2C_LCD.c ****             {
1100:Generated_Source\PSoC5/I2C_LCD.c ****                 I2C_LCD_WriteData((uint8) ' ');
1101:Generated_Source\PSoC5/I2C_LCD.c ****             }
1102:Generated_Source\PSoC5/I2C_LCD.c ****             else
1103:Generated_Source\PSoC5/I2C_LCD.c ****             {
1104:Generated_Source\PSoC5/I2C_LCD.c ****                 I2C_LCD_WriteData(remainingPixels - 1u);
1105:Generated_Source\PSoC5/I2C_LCD.c ****             }
1106:Generated_Source\PSoC5/I2C_LCD.c **** 
1107:Generated_Source\PSoC5/I2C_LCD.c ****             currentRow = ((int8) row) - ((int8) count8) - 1;
1108:Generated_Source\PSoC5/I2C_LCD.c **** 
1109:Generated_Source\PSoC5/I2C_LCD.c ****             if(currentRow >= 0)
1110:Generated_Source\PSoC5/I2C_LCD.c ****             {
1111:Generated_Source\PSoC5/I2C_LCD.c ****                 /* Move up one row and fill with white space till top of bar graph */
1112:Generated_Source\PSoC5/I2C_LCD.c ****                 for(count8 = 0u; count8 < (maxCharacters - fullChars - 1u); count8++)
1113:Generated_Source\PSoC5/I2C_LCD.c ****                 {
1114:Generated_Source\PSoC5/I2C_LCD.c ****                     I2C_LCD_Position((uint8)currentRow, column);
1115:Generated_Source\PSoC5/I2C_LCD.c ****                     I2C_LCD_WriteData((uint8) ' ');
1116:Generated_Source\PSoC5/I2C_LCD.c ****                     currentRow --;
1117:Generated_Source\PSoC5/I2C_LCD.c ****                 }
1118:Generated_Source\PSoC5/I2C_LCD.c ****             }
1119:Generated_Source\PSoC5/I2C_LCD.c ****         }
1120:Generated_Source\PSoC5/I2C_LCD.c ****     }
1121:Generated_Source\PSoC5/I2C_LCD.c **** 
1122:Generated_Source\PSoC5/I2C_LCD.c **** #endif /* ((I2C_LCD_CUSTOM_CHAR_SET == I2C_LCD_VERTICAL_BG) || \
1123:Generated_Source\PSoC5/I2C_LCD.c ****                 (I2C_LCD_CUSTOM_CHAR_SET == I2C_LCD_HORIZONTAL_BG)) */
1124:Generated_Source\PSoC5/I2C_LCD.c **** 
1125:Generated_Source\PSoC5/I2C_LCD.c **** 
1126:Generated_Source\PSoC5/I2C_LCD.c **** #if (I2C_LCD_COMMAND_FORMAT == I2C_LCD_NXP_PCF2119X)
1127:Generated_Source\PSoC5/I2C_LCD.c **** 
1128:Generated_Source\PSoC5/I2C_LCD.c ****     /*******************************************************************************
1129:Generated_Source\PSoC5/I2C_LCD.c ****     * Function Name: I2C_LCD_SendCmd
1130:Generated_Source\PSoC5/I2C_LCD.c ****     ********************************************************************************
1131:Generated_Source\PSoC5/I2C_LCD.c ****     *
1132:Generated_Source\PSoC5/I2C_LCD.c ****     * Summary:
1133:Generated_Source\PSoC5/I2C_LCD.c ****     *  This function used to send the specific for NXP PCF2119X commands that are 
1134:Generated_Source\PSoC5/I2C_LCD.c ****     *  used to configure the LCD panel.
1135:Generated_Source\PSoC5/I2C_LCD.c ****     *
1136:Generated_Source\PSoC5/I2C_LCD.c ****     * Parameters:
1137:Generated_Source\PSoC5/I2C_LCD.c ****     *  None
1138:Generated_Source\PSoC5/I2C_LCD.c ****     *
1139:Generated_Source\PSoC5/I2C_LCD.c ****     * Return:
1140:Generated_Source\PSoC5/I2C_LCD.c ****     *  None
1141:Generated_Source\PSoC5/I2C_LCD.c ****     *
1142:Generated_Source\PSoC5/I2C_LCD.c ****     *******************************************************************************/
1143:Generated_Source\PSoC5/I2C_LCD.c ****     static void I2C_LCD_SendCmd(uint8 cmd) CYREENTRANT
1144:Generated_Source\PSoC5/I2C_LCD.c ****     {
 159              		.loc 1 1144 0
 160              		.cfi_startproc
 161              		@ args = 0, pretend = 0, frame = 0
 162              		@ frame_needed = 0, uses_anonymous_args = 0
 163              	.LVL9:
 164 0000 08B5     		push	{r3, lr}
 165              		.cfi_def_cfa_offset 8
ARM GAS  C:\Users\Dell\AppData\Local\Temp\cc7lEuPV.s 			page 24


 166              		.cfi_offset 3, -8
 167              		.cfi_offset 14, -4
1145:Generated_Source\PSoC5/I2C_LCD.c ****         I2C_LCD_buff[0u] = I2C_LCD_COMMAND_SEND;
 168              		.loc 1 1145 0
 169 0002 044B     		ldr	r3, .L17
 170 0004 0022     		movs	r2, #0
 171 0006 1A71     		strb	r2, [r3, #4]
1146:Generated_Source\PSoC5/I2C_LCD.c ****         I2C_LCD_buff[1u] = cmd;
 172              		.loc 1 1146 0
 173 0008 5871     		strb	r0, [r3, #5]
1147:Generated_Source\PSoC5/I2C_LCD.c ****         I2C_LCD_buffIndex = I2C_LCD_LENGTH_2_BYTES;
 174              		.loc 1 1147 0
 175 000a 0222     		movs	r2, #2
 176 000c 1A70     		strb	r2, [r3]
1148:Generated_Source\PSoC5/I2C_LCD.c ****         
1149:Generated_Source\PSoC5/I2C_LCD.c ****         I2C_LCD_SendSequence();
 177              		.loc 1 1149 0
 178 000e FFF7FEFF 		bl	I2C_LCD_SendSequence
 179              	.LVL10:
 180 0012 08BD     		pop	{r3, pc}
 181              	.L18:
 182              		.align	2
 183              	.L17:
 184 0014 00000000 		.word	.LANCHOR0
 185              		.cfi_endproc
 186              	.LFE21:
 187              		.size	I2C_LCD_SendCmd, .-I2C_LCD_SendCmd
 188              		.section	.text.I2C_LCD_Position,"ax",%progbits
 189              		.align	2
 190              		.global	I2C_LCD_Position
 191              		.thumb
 192              		.thumb_func
 193              		.type	I2C_LCD_Position, %function
 194              	I2C_LCD_Position:
 195              	.LFB4:
 270:Generated_Source\PSoC5/I2C_LCD.c ****     /* Write command pattern for "Set cursor position" to buffer */
 196              		.loc 1 270 0
 197              		.cfi_startproc
 198              		@ args = 0, pretend = 0, frame = 0
 199              		@ frame_needed = 0, uses_anonymous_args = 0
 200              	.LVL11:
 201 0000 38B5     		push	{r3, r4, r5, lr}
 202              		.cfi_def_cfa_offset 16
 203              		.cfi_offset 3, -16
 204              		.cfi_offset 4, -12
 205              		.cfi_offset 5, -8
 206              		.cfi_offset 14, -4
 207 0002 0546     		mov	r5, r0
 208 0004 0C46     		mov	r4, r1
 272:Generated_Source\PSoC5/I2C_LCD.c **** 
 209              		.loc 1 272 0
 210 0006 0320     		movs	r0, #3
 211              	.LVL12:
 212 0008 FFF7FEFF 		bl	I2C_LCD_WrCntrlPatt
 213              	.LVL13:
 283:Generated_Source\PSoC5/I2C_LCD.c ****         {
 214              		.loc 1 283 0
ARM GAS  C:\Users\Dell\AppData\Local\Temp\cc7lEuPV.s 			page 25


 215 000c 032D     		cmp	r5, #3
 216 000e 19D8     		bhi	.L20
 217 0010 DFE805F0 		tbb	[pc, r5]
 218              	.L22:
 219 0014 02       		.byte	(.L21-.L22)/2
 220 0015 07       		.byte	(.L23-.L22)/2
 221 0016 0D       		.byte	(.L24-.L22)/2
 222 0017 13       		.byte	(.L25-.L22)/2
 223              		.p2align 1
 224              	.L21:
 288:Generated_Source\PSoC5/I2C_LCD.c ****                 #else
 225              		.loc 1 288 0
 226 0018 84F08000 		eor	r0, r4, #128
 227 001c FFF7FEFF 		bl	I2C_LCD_WrDataToBuff
 228              	.LVL14:
 293:Generated_Source\PSoC5/I2C_LCD.c ****             
 229              		.loc 1 293 0
 230 0020 10E0     		b	.L20
 231              	.L23:
 296:Generated_Source\PSoC5/I2C_LCD.c ****                 break;
 232              		.loc 1 296 0
 233 0022 A4F14000 		sub	r0, r4, #64
 234 0026 C0B2     		uxtb	r0, r0
 235 0028 FFF7FEFF 		bl	I2C_LCD_WrDataToBuff
 236              	.LVL15:
 297:Generated_Source\PSoC5/I2C_LCD.c ****             
 237              		.loc 1 297 0
 238 002c 0AE0     		b	.L20
 239              	.L24:
 300:Generated_Source\PSoC5/I2C_LCD.c ****                 break;
 240              		.loc 1 300 0
 241 002e A4F16C00 		sub	r0, r4, #108
 242 0032 C0B2     		uxtb	r0, r0
 243 0034 FFF7FEFF 		bl	I2C_LCD_WrDataToBuff
 244              	.LVL16:
 301:Generated_Source\PSoC5/I2C_LCD.c ****             
 245              		.loc 1 301 0
 246 0038 04E0     		b	.L20
 247              	.L25:
 304:Generated_Source\PSoC5/I2C_LCD.c ****                 break;
 248              		.loc 1 304 0
 249 003a A4F12C00 		sub	r0, r4, #44
 250 003e C0B2     		uxtb	r0, r0
 251 0040 FFF7FEFF 		bl	I2C_LCD_WrDataToBuff
 252              	.LVL17:
 253              	.L20:
 314:Generated_Source\PSoC5/I2C_LCD.c **** }
 254              		.loc 1 314 0
 255 0044 FFF7FEFF 		bl	I2C_LCD_SendSequence
 256              	.LVL18:
 257 0048 38BD     		pop	{r3, r4, r5, pc}
 258              		.cfi_endproc
 259              	.LFE4:
 260              		.size	I2C_LCD_Position, .-I2C_LCD_Position
 261 004a 00BF     		.section	.text.I2C_LCD_WriteData,"ax",%progbits
 262              		.align	2
 263              		.global	I2C_LCD_WriteData
ARM GAS  C:\Users\Dell\AppData\Local\Temp\cc7lEuPV.s 			page 26


 264              		.thumb
 265              		.thumb_func
 266              		.type	I2C_LCD_WriteData, %function
 267              	I2C_LCD_WriteData:
 268              	.LFB5:
 338:Generated_Source\PSoC5/I2C_LCD.c ****     /* Send required control byte value to address data register */
 269              		.loc 1 338 0
 270              		.cfi_startproc
 271              		@ args = 0, pretend = 0, frame = 0
 272              		@ frame_needed = 0, uses_anonymous_args = 0
 273              	.LVL19:
 274 0000 10B5     		push	{r4, lr}
 275              		.cfi_def_cfa_offset 8
 276              		.cfi_offset 4, -8
 277              		.cfi_offset 14, -4
 278 0002 0446     		mov	r4, r0
 340:Generated_Source\PSoC5/I2C_LCD.c **** 
 279              		.loc 1 340 0
 280 0004 0020     		movs	r0, #0
 281              	.LVL20:
 282 0006 FFF7FEFF 		bl	I2C_LCD_WrCntrlPatt
 283              	.LVL21:
 343:Generated_Source\PSoC5/I2C_LCD.c **** 
 284              		.loc 1 343 0
 285 000a 2046     		mov	r0, r4
 286 000c FFF7FEFF 		bl	I2C_LCD_WrDataToBuff
 287              	.LVL22:
 346:Generated_Source\PSoC5/I2C_LCD.c **** }
 288              		.loc 1 346 0
 289 0010 FFF7FEFF 		bl	I2C_LCD_SendSequence
 290              	.LVL23:
 291 0014 10BD     		pop	{r4, pc}
 292              		.cfi_endproc
 293              	.LFE5:
 294              		.size	I2C_LCD_WriteData, .-I2C_LCD_WriteData
 295 0016 00BF     		.section	.text.I2C_LCD_WriteControl,"ax",%progbits
 296              		.align	2
 297              		.global	I2C_LCD_WriteControl
 298              		.thumb
 299              		.thumb_func
 300              		.type	I2C_LCD_WriteControl, %function
 301              	I2C_LCD_WriteControl:
 302              	.LFB7:
 418:Generated_Source\PSoC5/I2C_LCD.c ****     uint8 cmdIndx = 0u;
 303              		.loc 1 418 0
 304              		.cfi_startproc
 305              		@ args = 0, pretend = 0, frame = 0
 306              		@ frame_needed = 0, uses_anonymous_args = 0
 307              	.LVL24:
 419:Generated_Source\PSoC5/I2C_LCD.c ****     
 308              		.loc 1 419 0
 309 0000 0023     		movs	r3, #0
 421:Generated_Source\PSoC5/I2C_LCD.c ****     {   
 310              		.loc 1 421 0
 311 0002 20E0     		b	.L30
 312              	.LVL25:
 313              	.L35:
ARM GAS  C:\Users\Dell\AppData\Local\Temp\cc7lEuPV.s 			page 27


 423:Generated_Source\PSoC5/I2C_LCD.c ****         {
 314              		.loc 1 423 0
 315 0004 03EB4302 		add	r2, r3, r3, lsl #1
 316 0008 1149     		ldr	r1, .L38
 317 000a 0A44     		add	r2, r2, r1
 318 000c 9278     		ldrb	r2, [r2, #2]	@ zero_extendqisi2
 319 000e 8242     		cmp	r2, r0
 320 0010 17D1     		bne	.L31
 418:Generated_Source\PSoC5/I2C_LCD.c ****     uint8 cmdIndx = 0u;
 321              		.loc 1 418 0
 322 0012 10B5     		push	{r4, lr}
 323              		.cfi_def_cfa_offset 8
 324              		.cfi_offset 4, -8
 325              		.cfi_offset 14, -4
 326 0014 0446     		mov	r4, r0
 426:Generated_Source\PSoC5/I2C_LCD.c **** 
 327              		.loc 1 426 0
 328 0016 1846     		mov	r0, r3
 329              	.LVL26:
 330 0018 FFF7FEFF 		bl	I2C_LCD_WrCntrlPatt
 331              	.LVL27:
 429:Generated_Source\PSoC5/I2C_LCD.c **** 
 332              		.loc 1 429 0
 333 001c FFF7FEFF 		bl	I2C_LCD_SendSequence
 334              	.LVL28:
 432:Generated_Source\PSoC5/I2C_LCD.c ****             {
 335              		.loc 1 432 0
 336 0020 601E     		subs	r0, r4, #1
 337 0022 0D28     		cmp	r0, #13
 338 0024 12D8     		bhi	.L29
 339 0026 DFE800F0 		tbb	[pc, r0]
 340              	.L34:
 341 002a 07       		.byte	(.L33-.L34)/2
 342 002b 07       		.byte	(.L33-.L34)/2
 343 002c 11       		.byte	(.L29-.L34)/2
 344 002d 11       		.byte	(.L29-.L34)/2
 345 002e 11       		.byte	(.L29-.L34)/2
 346 002f 11       		.byte	(.L29-.L34)/2
 347 0030 11       		.byte	(.L29-.L34)/2
 348 0031 07       		.byte	(.L33-.L34)/2
 349 0032 11       		.byte	(.L29-.L34)/2
 350 0033 11       		.byte	(.L29-.L34)/2
 351 0034 11       		.byte	(.L29-.L34)/2
 352 0035 11       		.byte	(.L29-.L34)/2
 353 0036 11       		.byte	(.L29-.L34)/2
 354 0037 07       		.byte	(.L33-.L34)/2
 355              		.p2align 1
 356              	.L33:
 438:Generated_Source\PSoC5/I2C_LCD.c ****                     break;
 357              		.loc 1 438 0
 358 0038 40F2DC50 		movw	r0, #1500
 359 003c FFF7FEFF 		bl	CyDelayUs
 360              	.LVL29:
 439:Generated_Source\PSoC5/I2C_LCD.c ****                 default:
 361              		.loc 1 439 0
 362 0040 10BD     		pop	{r4, pc}
 363              	.LVL30:
ARM GAS  C:\Users\Dell\AppData\Local\Temp\cc7lEuPV.s 			page 28


 364              	.L31:
 365              		.cfi_def_cfa_offset 0
 366              		.cfi_restore 4
 367              		.cfi_restore 14
 447:Generated_Source\PSoC5/I2C_LCD.c ****     } 
 368              		.loc 1 447 0
 369 0042 0133     		adds	r3, r3, #1
 370              	.LVL31:
 371 0044 DBB2     		uxtb	r3, r3
 372              	.LVL32:
 373              	.L30:
 421:Generated_Source\PSoC5/I2C_LCD.c ****     {   
 374              		.loc 1 421 0
 375 0046 0F2B     		cmp	r3, #15
 376 0048 DCD9     		bls	.L35
 377 004a 7047     		bx	lr
 378              	.LVL33:
 379              	.L29:
 380              		.cfi_def_cfa_offset 8
 381              		.cfi_offset 4, -8
 382              		.cfi_offset 14, -4
 383 004c 10BD     		pop	{r4, pc}
 384              	.L39:
 385 004e 00BF     		.align	2
 386              	.L38:
 387 0050 00000000 		.word	.LANCHOR1
 388              		.cfi_endproc
 389              	.LFE7:
 390              		.size	I2C_LCD_WriteControl, .-I2C_LCD_WriteControl
 391              		.section	.text.I2C_LCD_Enable,"ax",%progbits
 392              		.align	2
 393              		.global	I2C_LCD_Enable
 394              		.thumb
 395              		.thumb_func
 396              		.type	I2C_LCD_Enable, %function
 397              	I2C_LCD_Enable:
 398              	.LFB1:
 183:Generated_Source\PSoC5/I2C_LCD.c ****     I2C_LCD_DisplayOn();
 399              		.loc 1 183 0
 400              		.cfi_startproc
 401              		@ args = 0, pretend = 0, frame = 0
 402              		@ frame_needed = 0, uses_anonymous_args = 0
 403 0000 08B5     		push	{r3, lr}
 404              		.cfi_def_cfa_offset 8
 405              		.cfi_offset 3, -8
 406              		.cfi_offset 14, -4
 184:Generated_Source\PSoC5/I2C_LCD.c **** }
 407              		.loc 1 184 0
 408 0002 0C20     		movs	r0, #12
 409 0004 FFF7FEFF 		bl	I2C_LCD_WriteControl
 410              	.LVL34:
 411 0008 08BD     		pop	{r3, pc}
 412              		.cfi_endproc
 413              	.LFE1:
 414              		.size	I2C_LCD_Enable, .-I2C_LCD_Enable
 415 000a 00BF     		.section	.text.I2C_LCD_Stop,"ax",%progbits
 416              		.align	2
ARM GAS  C:\Users\Dell\AppData\Local\Temp\cc7lEuPV.s 			page 29


 417              		.global	I2C_LCD_Stop
 418              		.thumb
 419              		.thumb_func
 420              		.type	I2C_LCD_Stop, %function
 421              	I2C_LCD_Stop:
 422              	.LFB3:
 244:Generated_Source\PSoC5/I2C_LCD.c ****     I2C_LCD_DisplayOff();
 423              		.loc 1 244 0
 424              		.cfi_startproc
 425              		@ args = 0, pretend = 0, frame = 0
 426              		@ frame_needed = 0, uses_anonymous_args = 0
 427 0000 08B5     		push	{r3, lr}
 428              		.cfi_def_cfa_offset 8
 429              		.cfi_offset 3, -8
 430              		.cfi_offset 14, -4
 245:Generated_Source\PSoC5/I2C_LCD.c **** }
 431              		.loc 1 245 0
 432 0002 0820     		movs	r0, #8
 433 0004 FFF7FEFF 		bl	I2C_LCD_WriteControl
 434              	.LVL35:
 435 0008 08BD     		pop	{r3, pc}
 436              		.cfi_endproc
 437              	.LFE3:
 438              		.size	I2C_LCD_Stop, .-I2C_LCD_Stop
 439 000a 00BF     		.section	.text.I2C_LCD_HandleCustomCommand,"ax",%progbits
 440              		.align	2
 441              		.global	I2C_LCD_HandleCustomCommand
 442              		.thumb
 443              		.thumb_func
 444              		.type	I2C_LCD_HandleCustomCommand, %function
 445              	I2C_LCD_HandleCustomCommand:
 446              	.LFB10:
 549:Generated_Source\PSoC5/I2C_LCD.c ****     uint8 i;
 447              		.loc 1 549 0
 448              		.cfi_startproc
 449              		@ args = 0, pretend = 0, frame = 0
 450              		@ frame_needed = 0, uses_anonymous_args = 0
 451              	.LVL36:
 452 0000 70B5     		push	{r4, r5, r6, lr}
 453              		.cfi_def_cfa_offset 16
 454              		.cfi_offset 4, -16
 455              		.cfi_offset 5, -12
 456              		.cfi_offset 6, -8
 457              		.cfi_offset 14, -4
 458              	.LVL37:
 552:Generated_Source\PSoC5/I2C_LCD.c ****     
 459              		.loc 1 552 0
 460 0002 0023     		movs	r3, #0
 554:Generated_Source\PSoC5/I2C_LCD.c ****     {   
 461              		.loc 1 554 0
 462 0004 19E0     		b	.L45
 463              	.LVL38:
 464              	.L50:
 556:Generated_Source\PSoC5/I2C_LCD.c ****         {
 465              		.loc 1 556 0
 466 0006 03EB4304 		add	r4, r3, r3, lsl #1
 467 000a 0D4D     		ldr	r5, .L52
ARM GAS  C:\Users\Dell\AppData\Local\Temp\cc7lEuPV.s 			page 30


 468 000c 2C44     		add	r4, r4, r5
 469 000e A478     		ldrb	r4, [r4, #2]	@ zero_extendqisi2
 470 0010 8442     		cmp	r4, r0
 471 0012 10D1     		bne	.L46
 472 0014 1646     		mov	r6, r2
 473 0016 0D46     		mov	r5, r1
 559:Generated_Source\PSoC5/I2C_LCD.c **** 
 474              		.loc 1 559 0
 475 0018 1846     		mov	r0, r3
 476              	.LVL39:
 477 001a FFF7FEFF 		bl	I2C_LCD_WrCntrlPatt
 478              	.LVL40:
 561:Generated_Source\PSoC5/I2C_LCD.c ****             {
 479              		.loc 1 561 0
 480 001e 0024     		movs	r4, #0
 481 0020 04E0     		b	.L47
 482              	.LVL41:
 483              	.L48:
 567:Generated_Source\PSoC5/I2C_LCD.c ****             }
 484              		.loc 1 567 0 discriminator 3
 485 0022 305D     		ldrb	r0, [r6, r4]	@ zero_extendqisi2
 486 0024 FFF7FEFF 		bl	I2C_LCD_WrDataToBuff
 487              	.LVL42:
 561:Generated_Source\PSoC5/I2C_LCD.c ****             {
 488              		.loc 1 561 0 discriminator 3
 489 0028 0134     		adds	r4, r4, #1
 490              	.LVL43:
 491 002a E4B2     		uxtb	r4, r4
 492              	.LVL44:
 493              	.L47:
 561:Generated_Source\PSoC5/I2C_LCD.c ****             {
 494              		.loc 1 561 0 is_stmt 0 discriminator 1
 495 002c AC42     		cmp	r4, r5
 496 002e F8D3     		bcc	.L48
 571:Generated_Source\PSoC5/I2C_LCD.c ****             /* The command index was found - break while() loop */
 497              		.loc 1 571 0 is_stmt 1
 498 0030 FFF7FEFF 		bl	I2C_LCD_SendSequence
 499              	.LVL45:
 573:Generated_Source\PSoC5/I2C_LCD.c ****         }
 500              		.loc 1 573 0
 501 0034 70BD     		pop	{r4, r5, r6, pc}
 502              	.LVL46:
 503              	.L46:
 576:Generated_Source\PSoC5/I2C_LCD.c ****     } 
 504              		.loc 1 576 0
 505 0036 0133     		adds	r3, r3, #1
 506              	.LVL47:
 507 0038 DBB2     		uxtb	r3, r3
 508              	.LVL48:
 509              	.L45:
 554:Generated_Source\PSoC5/I2C_LCD.c ****     {   
 510              		.loc 1 554 0
 511 003a 0F2B     		cmp	r3, #15
 512 003c E3D9     		bls	.L50
 513 003e 70BD     		pop	{r4, r5, r6, pc}
 514              	.L53:
 515              		.align	2
ARM GAS  C:\Users\Dell\AppData\Local\Temp\cc7lEuPV.s 			page 31


 516              	.L52:
 517 0040 00000000 		.word	.LANCHOR1
 518              		.cfi_endproc
 519              	.LFE10:
 520              		.size	I2C_LCD_HandleCustomCommand, .-I2C_LCD_HandleCustomCommand
 521              		.section	.text.I2C_LCD_HandleOneByteCommand,"ax",%progbits
 522              		.align	2
 523              		.global	I2C_LCD_HandleOneByteCommand
 524              		.thumb
 525              		.thumb_func
 526              		.type	I2C_LCD_HandleOneByteCommand, %function
 527              	I2C_LCD_HandleOneByteCommand:
 528              	.LFB11:
 601:Generated_Source\PSoC5/I2C_LCD.c ****     uint8 oneByteArray[I2C_LCD_ONE_BYTE_LEN];
 529              		.loc 1 601 0
 530              		.cfi_startproc
 531              		@ args = 0, pretend = 0, frame = 8
 532              		@ frame_needed = 0, uses_anonymous_args = 0
 533              	.LVL49:
 534 0000 00B5     		push	{lr}
 535              		.cfi_def_cfa_offset 4
 536              		.cfi_offset 14, -4
 537 0002 83B0     		sub	sp, sp, #12
 538              		.cfi_def_cfa_offset 16
 604:Generated_Source\PSoC5/I2C_LCD.c ****     
 539              		.loc 1 604 0
 540 0004 02AA     		add	r2, sp, #8
 541 0006 02F8041D 		strb	r1, [r2, #-4]!
 606:Generated_Source\PSoC5/I2C_LCD.c **** }
 542              		.loc 1 606 0
 543 000a 0121     		movs	r1, #1
 544              	.LVL50:
 545 000c FFF7FEFF 		bl	I2C_LCD_HandleCustomCommand
 546              	.LVL51:
 607:Generated_Source\PSoC5/I2C_LCD.c **** 
 547              		.loc 1 607 0
 548 0010 03B0     		add	sp, sp, #12
 549              		.cfi_def_cfa_offset 4
 550              		@ sp needed
 551 0012 5DF804FB 		ldr	pc, [sp], #4
 552              		.cfi_endproc
 553              	.LFE11:
 554              		.size	I2C_LCD_HandleOneByteCommand, .-I2C_LCD_HandleOneByteCommand
 555 0016 00BF     		.section	.text.I2C_LCD_PrintString,"ax",%progbits
 556              		.align	2
 557              		.global	I2C_LCD_PrintString
 558              		.thumb
 559              		.thumb_func
 560              		.type	I2C_LCD_PrintString, %function
 561              	I2C_LCD_PrintString:
 562              	.LFB12:
 630:Generated_Source\PSoC5/I2C_LCD.c ****     uint8 chIdx = 1u;
 563              		.loc 1 630 0
 564              		.cfi_startproc
 565              		@ args = 0, pretend = 0, frame = 0
 566              		@ frame_needed = 0, uses_anonymous_args = 0
 567              	.LVL52:
ARM GAS  C:\Users\Dell\AppData\Local\Temp\cc7lEuPV.s 			page 32


 568 0000 70B5     		push	{r4, r5, r6, lr}
 569              		.cfi_def_cfa_offset 16
 570              		.cfi_offset 4, -16
 571              		.cfi_offset 5, -12
 572              		.cfi_offset 6, -8
 573              		.cfi_offset 14, -4
 574 0002 0646     		mov	r6, r0
 575              	.LVL53:
 632:Generated_Source\PSoC5/I2C_LCD.c **** 
 576              		.loc 1 632 0
 577 0004 0578     		ldrb	r5, [r0]	@ zero_extendqisi2
 578              	.LVL54:
 635:Generated_Source\PSoC5/I2C_LCD.c **** 
 579              		.loc 1 635 0
 580 0006 0020     		movs	r0, #0
 581              	.LVL55:
 582 0008 FFF7FEFF 		bl	I2C_LCD_WrCntrlPatt
 583              	.LVL56:
 631:Generated_Source\PSoC5/I2C_LCD.c ****     char8 current = *string;
 584              		.loc 1 631 0
 585 000c 0124     		movs	r4, #1
 638:Generated_Source\PSoC5/I2C_LCD.c ****     {
 586              		.loc 1 638 0
 587 000e 0CE0     		b	.L57
 588              	.LVL57:
 589              	.L60:
 647:Generated_Source\PSoC5/I2C_LCD.c ****             {
 590              		.loc 1 647 0
 591 0010 072D     		cmp	r5, #7
 592 0012 03D8     		bhi	.L58
 649:Generated_Source\PSoC5/I2C_LCD.c ****             }
 593              		.loc 1 649 0
 594 0014 2846     		mov	r0, r5
 595 0016 FFF7FEFF 		bl	I2C_LCD_WrDataToBuff
 596              	.LVL58:
 597 001a 03E0     		b	.L59
 598              	.L58:
 653:Generated_Source\PSoC5/I2C_LCD.c ****             }
 599              		.loc 1 653 0
 600 001c 85F08000 		eor	r0, r5, #128
 601 0020 FFF7FEFF 		bl	I2C_LCD_WrDataToBuff
 602              	.LVL59:
 603              	.L59:
 662:Generated_Source\PSoC5/I2C_LCD.c ****         chIdx++;
 604              		.loc 1 662 0
 605 0024 355D     		ldrb	r5, [r6, r4]	@ zero_extendqisi2
 606              	.LVL60:
 663:Generated_Source\PSoC5/I2C_LCD.c ****     }
 607              		.loc 1 663 0
 608 0026 0134     		adds	r4, r4, #1
 609              	.LVL61:
 610 0028 E4B2     		uxtb	r4, r4
 611              	.LVL62:
 612              	.L57:
 638:Generated_Source\PSoC5/I2C_LCD.c ****     {
 613              		.loc 1 638 0
 614 002a 002D     		cmp	r5, #0
ARM GAS  C:\Users\Dell\AppData\Local\Temp\cc7lEuPV.s 			page 33


 615 002c F0D1     		bne	.L60
 667:Generated_Source\PSoC5/I2C_LCD.c **** }
 616              		.loc 1 667 0
 617 002e FFF7FEFF 		bl	I2C_LCD_SendSequence
 618              	.LVL63:
 619 0032 70BD     		pop	{r4, r5, r6, pc}
 620              		.cfi_endproc
 621              	.LFE12:
 622              		.size	I2C_LCD_PrintString, .-I2C_LCD_PrintString
 623              		.section	.text.I2C_LCD_PutChar,"ax",%progbits
 624              		.align	2
 625              		.global	I2C_LCD_PutChar
 626              		.thumb
 627              		.thumb_func
 628              		.type	I2C_LCD_PutChar, %function
 629              	I2C_LCD_PutChar:
 630              	.LFB13:
 691:Generated_Source\PSoC5/I2C_LCD.c ****     /* Send one byte of data with I2C_LCD_WriteData() */
 631              		.loc 1 691 0
 632              		.cfi_startproc
 633              		@ args = 0, pretend = 0, frame = 0
 634              		@ frame_needed = 0, uses_anonymous_args = 0
 635              	.LVL64:
 636 0000 08B5     		push	{r3, lr}
 637              		.cfi_def_cfa_offset 8
 638              		.cfi_offset 3, -8
 639              		.cfi_offset 14, -4
 699:Generated_Source\PSoC5/I2C_LCD.c ****         {
 640              		.loc 1 699 0
 641 0002 0728     		cmp	r0, #7
 642 0004 02D8     		bhi	.L63
 701:Generated_Source\PSoC5/I2C_LCD.c ****         }
 643              		.loc 1 701 0
 644 0006 FFF7FEFF 		bl	I2C_LCD_WriteData
 645              	.LVL65:
 646 000a 08BD     		pop	{r3, pc}
 647              	.LVL66:
 648              	.L63:
 705:Generated_Source\PSoC5/I2C_LCD.c ****         }
 649              		.loc 1 705 0
 650 000c 80F08000 		eor	r0, r0, #128
 651              	.LVL67:
 652 0010 FFF7FEFF 		bl	I2C_LCD_WriteData
 653              	.LVL68:
 654 0014 08BD     		pop	{r3, pc}
 655              		.cfi_endproc
 656              	.LFE13:
 657              		.size	I2C_LCD_PutChar, .-I2C_LCD_PutChar
 658 0016 00BF     		.section	.text.I2C_LCD_PrintInt8,"ax",%progbits
 659              		.align	2
 660              		.global	I2C_LCD_PrintInt8
 661              		.thumb
 662              		.thumb_func
 663              		.type	I2C_LCD_PrintInt8, %function
 664              	I2C_LCD_PrintInt8:
 665              	.LFB14:
 731:Generated_Source\PSoC5/I2C_LCD.c ****     static char8 const CYCODE I2C_LCD_hex[16u] = "0123456789ABCDEF";
ARM GAS  C:\Users\Dell\AppData\Local\Temp\cc7lEuPV.s 			page 34


 666              		.loc 1 731 0
 667              		.cfi_startproc
 668              		@ args = 0, pretend = 0, frame = 0
 669              		@ frame_needed = 0, uses_anonymous_args = 0
 670              	.LVL69:
 671 0000 38B5     		push	{r3, r4, r5, lr}
 672              		.cfi_def_cfa_offset 16
 673              		.cfi_offset 3, -16
 674              		.cfi_offset 4, -12
 675              		.cfi_offset 5, -8
 676              		.cfi_offset 14, -4
 677 0002 0446     		mov	r4, r0
 735:Generated_Source\PSoC5/I2C_LCD.c **** 
 678              		.loc 1 735 0
 679 0004 0020     		movs	r0, #0
 680              	.LVL70:
 681 0006 FFF7FEFF 		bl	I2C_LCD_WrCntrlPatt
 682              	.LVL71:
 744:Generated_Source\PSoC5/I2C_LCD.c ****                                                ^ I2C_LCD_CHARACTER_SET_S_MASK );
 683              		.loc 1 744 0
 684 000a 0A4D     		ldr	r5, .L68
 685 000c 05EB1413 		add	r3, r5, r4, lsr #4
 686 0010 93F83000 		ldrb	r0, [r3, #48]	@ zero_extendqisi2
 687 0014 80F08000 		eor	r0, r0, #128
 688 0018 FFF7FEFF 		bl	I2C_LCD_WrDataToBuff
 689              	.LVL72:
 746:Generated_Source\PSoC5/I2C_LCD.c ****                                                I2C_LCD_CHARACTER_SET_S_MASK);
 690              		.loc 1 746 0
 691 001c 04F00F04 		and	r4, r4, #15
 692 0020 2C44     		add	r4, r4, r5
 693 0022 94F83000 		ldrb	r0, [r4, #48]	@ zero_extendqisi2
 694 0026 80F08000 		eor	r0, r0, #128
 695 002a FFF7FEFF 		bl	I2C_LCD_WrDataToBuff
 696              	.LVL73:
 754:Generated_Source\PSoC5/I2C_LCD.c **** }
 697              		.loc 1 754 0
 698 002e FFF7FEFF 		bl	I2C_LCD_SendSequence
 699              	.LVL74:
 700 0032 38BD     		pop	{r3, r4, r5, pc}
 701              	.L69:
 702              		.align	2
 703              	.L68:
 704 0034 00000000 		.word	.LANCHOR1
 705              		.cfi_endproc
 706              	.LFE14:
 707              		.size	I2C_LCD_PrintInt8, .-I2C_LCD_PrintInt8
 708              		.section	.text.I2C_LCD_PrintInt16,"ax",%progbits
 709              		.align	2
 710              		.global	I2C_LCD_PrintInt16
 711              		.thumb
 712              		.thumb_func
 713              		.type	I2C_LCD_PrintInt16, %function
 714              	I2C_LCD_PrintInt16:
 715              	.LFB15:
 776:Generated_Source\PSoC5/I2C_LCD.c ****     I2C_LCD_PrintInt8((uint8)(value >> I2C_LCD_U16_UPPER_BYTE_SHIFT));
 716              		.loc 1 776 0
 717              		.cfi_startproc
ARM GAS  C:\Users\Dell\AppData\Local\Temp\cc7lEuPV.s 			page 35


 718              		@ args = 0, pretend = 0, frame = 0
 719              		@ frame_needed = 0, uses_anonymous_args = 0
 720              	.LVL75:
 721 0000 10B5     		push	{r4, lr}
 722              		.cfi_def_cfa_offset 8
 723              		.cfi_offset 4, -8
 724              		.cfi_offset 14, -4
 725 0002 0446     		mov	r4, r0
 777:Generated_Source\PSoC5/I2C_LCD.c ****     I2C_LCD_PrintInt8((uint8)(value & I2C_LCD_U16_LOWER_BYTE_MASK));
 726              		.loc 1 777 0
 727 0004 000A     		lsrs	r0, r0, #8
 728              	.LVL76:
 729 0006 FFF7FEFF 		bl	I2C_LCD_PrintInt8
 730              	.LVL77:
 778:Generated_Source\PSoC5/I2C_LCD.c **** }
 731              		.loc 1 778 0
 732 000a E0B2     		uxtb	r0, r4
 733 000c FFF7FEFF 		bl	I2C_LCD_PrintInt8
 734              	.LVL78:
 735 0010 10BD     		pop	{r4, pc}
 736              		.cfi_endproc
 737              	.LFE15:
 738              		.size	I2C_LCD_PrintInt16, .-I2C_LCD_PrintInt16
 739 0012 00BF     		.section	.text.I2C_LCD_PrintNumber,"ax",%progbits
 740              		.align	2
 741              		.global	I2C_LCD_PrintNumber
 742              		.thumb
 743              		.thumb_func
 744              		.type	I2C_LCD_PrintNumber, %function
 745              	I2C_LCD_PrintNumber:
 746              	.LFB16:
 800:Generated_Source\PSoC5/I2C_LCD.c ****     char8 number[I2C_LCD_NUMBER_OF_REMAINDERS];
 747              		.loc 1 800 0
 748              		.cfi_startproc
 749              		@ args = 0, pretend = 0, frame = 16
 750              		@ frame_needed = 0, uses_anonymous_args = 0
 751              	.LVL79:
 752 0000 30B5     		push	{r4, r5, lr}
 753              		.cfi_def_cfa_offset 12
 754              		.cfi_offset 4, -12
 755              		.cfi_offset 5, -8
 756              		.cfi_offset 14, -4
 757 0002 85B0     		sub	sp, sp, #20
 758              		.cfi_def_cfa_offset 32
 759              	.LVL80:
 804:Generated_Source\PSoC5/I2C_LCD.c ****     uint8 numDigits;
 760              		.loc 1 804 0
 761 0004 0021     		movs	r1, #0
 808:Generated_Source\PSoC5/I2C_LCD.c ****     {
 762              		.loc 1 808 0
 763 0006 0FE0     		b	.L73
 764              	.LVL81:
 765              	.L74:
 810:Generated_Source\PSoC5/I2C_LCD.c ****         value /= I2C_LCD_TEN;
 766              		.loc 1 810 0
 767 0008 04AB     		add	r3, sp, #16
 768 000a 5D18     		adds	r5, r3, r1
ARM GAS  C:\Users\Dell\AppData\Local\Temp\cc7lEuPV.s 			page 36


 769 000c 1E4B     		ldr	r3, .L78
 770 000e A3FB0023 		umull	r2, r3, r3, r0
 771 0012 DB08     		lsrs	r3, r3, #3
 772 0014 03EB8304 		add	r4, r3, r3, lsl #2
 773 0018 6200     		lsls	r2, r4, #1
 774 001a 821A     		subs	r2, r0, r2
 775 001c 3032     		adds	r2, r2, #48
 776 001e 05F8102C 		strb	r2, [r5, #-16]
 811:Generated_Source\PSoC5/I2C_LCD.c ****         digIndex++;
 777              		.loc 1 811 0
 778 0022 98B2     		uxth	r0, r3
 779              	.LVL82:
 812:Generated_Source\PSoC5/I2C_LCD.c ****     }
 780              		.loc 1 812 0
 781 0024 0131     		adds	r1, r1, #1
 782              	.LVL83:
 783 0026 C9B2     		uxtb	r1, r1
 784              	.LVL84:
 785              	.L73:
 808:Generated_Source\PSoC5/I2C_LCD.c ****     {
 786              		.loc 1 808 0
 787 0028 0928     		cmp	r0, #9
 788 002a EDD8     		bhi	.L74
 815:Generated_Source\PSoC5/I2C_LCD.c ****     numDigits = digIndex;
 789              		.loc 1 815 0
 790 002c 0C46     		mov	r4, r1
 791 002e 164B     		ldr	r3, .L78
 792 0030 A3FB0023 		umull	r2, r3, r3, r0
 793 0034 DB08     		lsrs	r3, r3, #3
 794 0036 03EB8303 		add	r3, r3, r3, lsl #2
 795 003a 5A00     		lsls	r2, r3, #1
 796 003c 821A     		subs	r2, r0, r2
 797 003e 3032     		adds	r2, r2, #48
 798 0040 04AB     		add	r3, sp, #16
 799 0042 0B44     		add	r3, r3, r1
 800 0044 03F8102C 		strb	r2, [r3, #-16]
 801              	.LVL85:
 821:Generated_Source\PSoC5/I2C_LCD.c ****     {
 802              		.loc 1 821 0
 803 0048 0B46     		mov	r3, r1
 804 004a 0AE0     		b	.L75
 805              	.LVL86:
 806              	.L76:
 823:Generated_Source\PSoC5/I2C_LCD.c ****         digIndex--;
 807              		.loc 1 823 0
 808 004c E21A     		subs	r2, r4, r3
 809 004e 04A8     		add	r0, sp, #16
 810 0050 1844     		add	r0, r0, r3
 811 0052 10F8100C 		ldrb	r0, [r0, #-16]	@ zero_extendqisi2
 812 0056 04AD     		add	r5, sp, #16
 813 0058 2A44     		add	r2, r2, r5
 814 005a 02F8080C 		strb	r0, [r2, #-8]
 824:Generated_Source\PSoC5/I2C_LCD.c ****     }
 815              		.loc 1 824 0
 816 005e 013B     		subs	r3, r3, #1
 817              	.LVL87:
 818 0060 DBB2     		uxtb	r3, r3
ARM GAS  C:\Users\Dell\AppData\Local\Temp\cc7lEuPV.s 			page 37


 819              	.LVL88:
 820              	.L75:
 821:Generated_Source\PSoC5/I2C_LCD.c ****     {
 821              		.loc 1 821 0
 822 0062 002B     		cmp	r3, #0
 823 0064 F2D1     		bne	.L76
 828:Generated_Source\PSoC5/I2C_LCD.c **** 
 824              		.loc 1 828 0
 825 0066 9DF80030 		ldrb	r3, [sp]	@ zero_extendqisi2
 826              	.LVL89:
 827 006a 04AA     		add	r2, sp, #16
 828 006c 1444     		add	r4, r4, r2
 829 006e 04F8083C 		strb	r3, [r4, #-8]
 831:Generated_Source\PSoC5/I2C_LCD.c **** 
 830              		.loc 1 831 0
 831 0072 0131     		adds	r1, r1, #1
 832              	.LVL90:
 833 0074 1144     		add	r1, r1, r2
 834 0076 0023     		movs	r3, #0
 835 0078 01F8083C 		strb	r3, [r1, #-8]
 834:Generated_Source\PSoC5/I2C_LCD.c **** }
 836              		.loc 1 834 0
 837 007c 02A8     		add	r0, sp, #8
 838 007e FFF7FEFF 		bl	I2C_LCD_PrintString
 839              	.LVL91:
 835:Generated_Source\PSoC5/I2C_LCD.c **** 
 840              		.loc 1 835 0
 841 0082 05B0     		add	sp, sp, #20
 842              		.cfi_def_cfa_offset 12
 843              		@ sp needed
 844 0084 30BD     		pop	{r4, r5, pc}
 845              	.L79:
 846 0086 00BF     		.align	2
 847              	.L78:
 848 0088 CDCCCCCC 		.word	-858993459
 849              		.cfi_endproc
 850              	.LFE16:
 851              		.size	I2C_LCD_PrintNumber, .-I2C_LCD_PrintNumber
 852              		.section	.text.I2C_LCD_SetAddr,"ax",%progbits
 853              		.align	2
 854              		.global	I2C_LCD_SetAddr
 855              		.thumb
 856              		.thumb_func
 857              		.type	I2C_LCD_SetAddr, %function
 858              	I2C_LCD_SetAddr:
 859              	.LFB17:
 861:Generated_Source\PSoC5/I2C_LCD.c ****     #if(I2C_LCD_IS_SCB_MASTER_USED)
 860              		.loc 1 861 0
 861              		.cfi_startproc
 862              		@ args = 0, pretend = 0, frame = 0
 863              		@ frame_needed = 0, uses_anonymous_args = 0
 864              		@ link register save eliminated.
 865              	.LVL92:
 865:Generated_Source\PSoC5/I2C_LCD.c ****     #endif /* (I2C_LCD_IS_SCB_MASTER_USED) */
 866              		.loc 1 865 0
 867 0000 4008     		lsrs	r0, r0, #1
 868              	.LVL93:
ARM GAS  C:\Users\Dell\AppData\Local\Temp\cc7lEuPV.s 			page 38


 869 0002 014B     		ldr	r3, .L81
 870 0004 1870     		strb	r0, [r3]
 871 0006 7047     		bx	lr
 872              	.L82:
 873              		.align	2
 874              	.L81:
 875 0008 00000000 		.word	.LANCHOR2
 876              		.cfi_endproc
 877              	.LFE17:
 878              		.size	I2C_LCD_SetAddr, .-I2C_LCD_SetAddr
 879              		.section	.text.I2C_LCD_LoadCustomFonts,"ax",%progbits
 880              		.align	2
 881              		.global	I2C_LCD_LoadCustomFonts
 882              		.thumb
 883              		.thumb_func
 884              		.type	I2C_LCD_LoadCustomFonts, %function
 885              	I2C_LCD_LoadCustomFonts:
 886              	.LFB18:
 901:Generated_Source\PSoC5/I2C_LCD.c ****         uint8 i;
 887              		.loc 1 901 0
 888              		.cfi_startproc
 889              		@ args = 0, pretend = 0, frame = 0
 890              		@ frame_needed = 0, uses_anonymous_args = 0
 891              	.LVL94:
 892 0000 38B5     		push	{r3, r4, r5, lr}
 893              		.cfi_def_cfa_offset 16
 894              		.cfi_offset 3, -16
 895              		.cfi_offset 4, -12
 896              		.cfi_offset 5, -8
 897              		.cfi_offset 14, -4
 898 0002 0546     		mov	r5, r0
 911:Generated_Source\PSoC5/I2C_LCD.c **** 
 899              		.loc 1 911 0
 900 0004 4020     		movs	r0, #64
 901              	.LVL95:
 902 0006 FFF7FEFF 		bl	I2C_LCD_WriteControl
 903              	.LVL96:
 914:Generated_Source\PSoC5/I2C_LCD.c **** 
 904              		.loc 1 914 0
 905 000a 0020     		movs	r0, #0
 906 000c FFF7FEFF 		bl	I2C_LCD_WrCntrlPatt
 907              	.LVL97:
 917:Generated_Source\PSoC5/I2C_LCD.c ****             {
 908              		.loc 1 917 0
 909 0010 0024     		movs	r4, #0
 910 0012 04E0     		b	.L84
 911              	.LVL98:
 912              	.L85:
 920:Generated_Source\PSoC5/I2C_LCD.c ****             }
 913              		.loc 1 920 0 discriminator 3
 914 0014 285D     		ldrb	r0, [r5, r4]	@ zero_extendqisi2
 915 0016 FFF7FEFF 		bl	I2C_LCD_WrDataToBuff
 916              	.LVL99:
 917:Generated_Source\PSoC5/I2C_LCD.c ****             {
 917              		.loc 1 917 0 discriminator 3
 918 001a 0134     		adds	r4, r4, #1
 919              	.LVL100:
ARM GAS  C:\Users\Dell\AppData\Local\Temp\cc7lEuPV.s 			page 39


 920 001c E4B2     		uxtb	r4, r4
 921              	.LVL101:
 922              	.L84:
 917:Generated_Source\PSoC5/I2C_LCD.c ****             {
 923              		.loc 1 917 0 is_stmt 0 discriminator 1
 924 001e 3F2C     		cmp	r4, #63
 925 0020 F8D9     		bls	.L85
 924:Generated_Source\PSoC5/I2C_LCD.c ****             
 926              		.loc 1 924 0 is_stmt 1
 927 0022 FFF7FEFF 		bl	I2C_LCD_SendSequence
 928              	.LVL102:
 927:Generated_Source\PSoC5/I2C_LCD.c ****         #else
 929              		.loc 1 927 0
 930 0026 0021     		movs	r1, #0
 931 0028 0846     		mov	r0, r1
 932 002a FFF7FEFF 		bl	I2C_LCD_Position
 933              	.LVL103:
 934 002e 38BD     		pop	{r3, r4, r5, pc}
 935              		.cfi_endproc
 936              	.LFE18:
 937              		.size	I2C_LCD_LoadCustomFonts, .-I2C_LCD_LoadCustomFonts
 938              		.section	.text.I2C_LCD_Init,"ax",%progbits
 939              		.align	2
 940              		.global	I2C_LCD_Init
 941              		.thumb
 942              		.thumb_func
 943              		.type	I2C_LCD_Init, %function
 944              	I2C_LCD_Init:
 945              	.LFB0:
 126:Generated_Source\PSoC5/I2C_LCD.c ****     /* Following part of code is only applicable for NXP LCDs */
 946              		.loc 1 126 0
 947              		.cfi_startproc
 948              		@ args = 0, pretend = 0, frame = 0
 949              		@ frame_needed = 0, uses_anonymous_args = 0
 950 0000 08B5     		push	{r3, lr}
 951              		.cfi_def_cfa_offset 8
 952              		.cfi_offset 3, -8
 953              		.cfi_offset 14, -4
 130:Generated_Source\PSoC5/I2C_LCD.c ****         /* Split screen configuration  */
 954              		.loc 1 130 0
 955 0002 3520     		movs	r0, #53
 956 0004 FFF7FEFF 		bl	I2C_LCD_SendCmd
 957              	.LVL104:
 132:Generated_Source\PSoC5/I2C_LCD.c ****         /* LCD Module format: left to right column, and top to bottom rows  */
 958              		.loc 1 132 0
 959 0008 0220     		movs	r0, #2
 960 000a FFF7FEFF 		bl	I2C_LCD_SendCmd
 961              	.LVL105:
 134:Generated_Source\PSoC5/I2C_LCD.c ****         /* Icon mode not supported. Disable all icon enable settings */
 962              		.loc 1 134 0
 963 000e 0420     		movs	r0, #4
 964 0010 FFF7FEFF 		bl	I2C_LCD_SendCmd
 965              	.LVL106:
 136:Generated_Source\PSoC5/I2C_LCD.c ****         /* Set LCD bias voltage to 4.38 V since LCD module datasheet recommends 4.4 V */
 966              		.loc 1 136 0
 967 0014 0820     		movs	r0, #8
 968 0016 FFF7FEFF 		bl	I2C_LCD_SendCmd
ARM GAS  C:\Users\Dell\AppData\Local\Temp\cc7lEuPV.s 			page 40


 969              	.LVL107:
 138:Generated_Source\PSoC5/I2C_LCD.c ****         /* Select Standard Instruction set, 2x16 display */
 970              		.loc 1 138 0
 971 001a A020     		movs	r0, #160
 972 001c FFF7FEFF 		bl	I2C_LCD_SendCmd
 973              	.LVL108:
 140:Generated_Source\PSoC5/I2C_LCD.c ****     #endif /* (I2C_LCD_COMMAND_FORMAT == I2C_LCD_NXP_PCF2119X) */
 974              		.loc 1 140 0
 975 0020 3420     		movs	r0, #52
 976 0022 FFF7FEFF 		bl	I2C_LCD_SendCmd
 977              	.LVL109:
 144:Generated_Source\PSoC5/I2C_LCD.c ****     /* Turn on both display and cursor */
 978              		.loc 1 144 0
 979 0026 2420     		movs	r0, #36
 980 0028 FFF7FEFF 		bl	I2C_LCD_WriteControl
 981              	.LVL110:
 146:Generated_Source\PSoC5/I2C_LCD.c ****     /* Turn on cursor auto incrementing */
 982              		.loc 1 146 0
 983 002c 0E20     		movs	r0, #14
 984 002e FFF7FEFF 		bl	I2C_LCD_WriteControl
 985              	.LVL111:
 148:Generated_Source\PSoC5/I2C_LCD.c ****     /* Turn off cursor underlining */
 986              		.loc 1 148 0
 987 0032 0620     		movs	r0, #6
 988 0034 FFF7FEFF 		bl	I2C_LCD_WriteControl
 989              	.LVL112:
 150:Generated_Source\PSoC5/I2C_LCD.c ****     /* Clear the Display */
 990              		.loc 1 150 0
 991 0038 0C20     		movs	r0, #12
 992 003a FFF7FEFF 		bl	I2C_LCD_WriteControl
 993              	.LVL113:
 152:Generated_Source\PSoC5/I2C_LCD.c ****     
 994              		.loc 1 152 0
 995 003e 0120     		movs	r0, #1
 996 0040 FFF7FEFF 		bl	I2C_LCD_WriteControl
 997              	.LVL114:
 156:Generated_Source\PSoC5/I2C_LCD.c ****     #endif /* I2C_LCD_CUSTOM_CHAR_SET != I2C_LCD_NONE */
 998              		.loc 1 156 0
 999 0044 0148     		ldr	r0, .L89
 1000 0046 FFF7FEFF 		bl	I2C_LCD_LoadCustomFonts
 1001              	.LVL115:
 1002 004a 08BD     		pop	{r3, pc}
 1003              	.L90:
 1004              		.align	2
 1005              	.L89:
 1006 004c 40000000 		.word	.LANCHOR1+64
 1007              		.cfi_endproc
 1008              	.LFE0:
 1009              		.size	I2C_LCD_Init, .-I2C_LCD_Init
 1010              		.section	.text.I2C_LCD_Start,"ax",%progbits
 1011              		.align	2
 1012              		.global	I2C_LCD_Start
 1013              		.thumb
 1014              		.thumb_func
 1015              		.type	I2C_LCD_Start, %function
 1016              	I2C_LCD_Start:
 1017              	.LFB2:
ARM GAS  C:\Users\Dell\AppData\Local\Temp\cc7lEuPV.s 			page 41


 212:Generated_Source\PSoC5/I2C_LCD.c ****     /* If not initialized then perform initialization */
 1018              		.loc 1 212 0
 1019              		.cfi_startproc
 1020              		@ args = 0, pretend = 0, frame = 0
 1021              		@ frame_needed = 0, uses_anonymous_args = 0
 1022 0000 08B5     		push	{r3, lr}
 1023              		.cfi_def_cfa_offset 8
 1024              		.cfi_offset 3, -8
 1025              		.cfi_offset 14, -4
 214:Generated_Source\PSoC5/I2C_LCD.c ****     {
 1026              		.loc 1 214 0
 1027 0002 064B     		ldr	r3, .L94
 1028 0004 93F80431 		ldrb	r3, [r3, #260]	@ zero_extendqisi2
 1029 0008 2BB9     		cbnz	r3, .L92
 216:Generated_Source\PSoC5/I2C_LCD.c ****         I2C_LCD_initVar = 1u;
 1030              		.loc 1 216 0
 1031 000a FFF7FEFF 		bl	I2C_LCD_Init
 1032              	.LVL116:
 217:Generated_Source\PSoC5/I2C_LCD.c ****     }
 1033              		.loc 1 217 0
 1034 000e 0122     		movs	r2, #1
 1035 0010 024B     		ldr	r3, .L94
 1036 0012 83F80421 		strb	r2, [r3, #260]
 1037              	.L92:
 221:Generated_Source\PSoC5/I2C_LCD.c **** }
 1038              		.loc 1 221 0
 1039 0016 FFF7FEFF 		bl	I2C_LCD_Enable
 1040              	.LVL117:
 1041 001a 08BD     		pop	{r3, pc}
 1042              	.L95:
 1043              		.align	2
 1044              	.L94:
 1045 001c 00000000 		.word	.LANCHOR0
 1046              		.cfi_endproc
 1047              	.LFE2:
 1048              		.size	I2C_LCD_Start, .-I2C_LCD_Start
 1049              		.section	.text.I2C_LCD_DrawHorizontalBG,"ax",%progbits
 1050              		.align	2
 1051              		.global	I2C_LCD_DrawHorizontalBG
 1052              		.thumb
 1053              		.thumb_func
 1054              		.type	I2C_LCD_DrawHorizontalBG, %function
 1055              	I2C_LCD_DrawHorizontalBG:
 1056              	.LFB19:
 982:Generated_Source\PSoC5/I2C_LCD.c ****         /* 8-bit Counter */
 1057              		.loc 1 982 0
 1058              		.cfi_startproc
 1059              		@ args = 0, pretend = 0, frame = 0
 1060              		@ frame_needed = 0, uses_anonymous_args = 0
 1061              	.LVL118:
 1062 0000 F8B5     		push	{r3, r4, r5, r6, r7, lr}
 1063              		.cfi_def_cfa_offset 24
 1064              		.cfi_offset 3, -24
 1065              		.cfi_offset 4, -20
 1066              		.cfi_offset 5, -16
 1067              		.cfi_offset 6, -12
 1068              		.cfi_offset 7, -8
ARM GAS  C:\Users\Dell\AppData\Local\Temp\cc7lEuPV.s 			page 42


 1069              		.cfi_offset 14, -4
 1070 0002 1646     		mov	r6, r2
 989:Generated_Source\PSoC5/I2C_LCD.c **** 
 1071              		.loc 1 989 0
 1072 0004 184A     		ldr	r2, .L106
 1073              	.LVL119:
 1074 0006 A2FB0342 		umull	r4, r2, r2, r3
 1075 000a 9208     		lsrs	r2, r2, #2
 1076 000c D5B2     		uxtb	r5, r2
 1077              	.LVL120:
 992:Generated_Source\PSoC5/I2C_LCD.c **** 
 1078              		.loc 1 992 0
 1079 000e 02EB8202 		add	r2, r2, r2, lsl #2
 1080 0012 9A1A     		subs	r2, r3, r2
 1081 0014 D7B2     		uxtb	r7, r2
 1082              	.LVL121:
 995:Generated_Source\PSoC5/I2C_LCD.c ****         {
 1083              		.loc 1 995 0
 1084 0016 B542     		cmp	r5, r6
 1085 0018 00D3     		bcc	.L97
 997:Generated_Source\PSoC5/I2C_LCD.c ****         }
 1086              		.loc 1 997 0
 1087 001a 3546     		mov	r5, r6
 1088              	.LVL122:
 1089              	.L97:
1001:Generated_Source\PSoC5/I2C_LCD.c **** 
 1090              		.loc 1 1001 0
 1091 001c FFF7FEFF 		bl	I2C_LCD_Position
 1092              	.LVL123:
1004:Generated_Source\PSoC5/I2C_LCD.c **** 
 1093              		.loc 1 1004 0
 1094 0020 0020     		movs	r0, #0
 1095 0022 FFF7FEFF 		bl	I2C_LCD_WrCntrlPatt
 1096              	.LVL124:
1007:Generated_Source\PSoC5/I2C_LCD.c ****         {
 1097              		.loc 1 1007 0
 1098 0026 0024     		movs	r4, #0
 1099 0028 04E0     		b	.L98
 1100              	.LVL125:
 1101              	.L99:
1009:Generated_Source\PSoC5/I2C_LCD.c ****         }
 1102              		.loc 1 1009 0 discriminator 3
 1103 002a 0520     		movs	r0, #5
 1104 002c FFF7FEFF 		bl	I2C_LCD_WrDataToBuff
 1105              	.LVL126:
1007:Generated_Source\PSoC5/I2C_LCD.c ****         {
 1106              		.loc 1 1007 0 discriminator 3
 1107 0030 0134     		adds	r4, r4, #1
 1108              	.LVL127:
 1109 0032 E4B2     		uxtb	r4, r4
 1110              	.LVL128:
 1111              	.L98:
1007:Generated_Source\PSoC5/I2C_LCD.c ****         {
 1112              		.loc 1 1007 0 is_stmt 0 discriminator 1
 1113 0034 AC42     		cmp	r4, r5
 1114 0036 F8D3     		bcc	.L99
1012:Generated_Source\PSoC5/I2C_LCD.c ****         {
ARM GAS  C:\Users\Dell\AppData\Local\Temp\cc7lEuPV.s 			page 43


 1115              		.loc 1 1012 0 is_stmt 1
 1116 0038 B542     		cmp	r5, r6
 1117 003a 11D2     		bcs	.L100
1015:Generated_Source\PSoC5/I2C_LCD.c **** 
 1118              		.loc 1 1015 0
 1119 003c 3846     		mov	r0, r7
 1120 003e FFF7FEFF 		bl	I2C_LCD_WrDataToBuff
 1121              	.LVL129:
1017:Generated_Source\PSoC5/I2C_LCD.c ****             {
 1122              		.loc 1 1017 0
 1123 0042 731E     		subs	r3, r6, #1
 1124 0044 9D42     		cmp	r5, r3
 1125 0046 06D3     		bcc	.L104
 1126 0048 0AE0     		b	.L100
 1127              	.L102:
1022:Generated_Source\PSoC5/I2C_LCD.c ****                 }
 1128              		.loc 1 1022 0 discriminator 3
 1129 004a 0020     		movs	r0, #0
 1130 004c FFF7FEFF 		bl	I2C_LCD_WrDataToBuff
 1131              	.LVL130:
1020:Generated_Source\PSoC5/I2C_LCD.c ****                 {
 1132              		.loc 1 1020 0 discriminator 3
 1133 0050 0134     		adds	r4, r4, #1
 1134              	.LVL131:
 1135 0052 E4B2     		uxtb	r4, r4
 1136              	.LVL132:
 1137 0054 00E0     		b	.L101
 1138              	.L104:
 1139 0056 0024     		movs	r4, #0
 1140              	.LVL133:
 1141              	.L101:
1020:Generated_Source\PSoC5/I2C_LCD.c ****                 {
 1142              		.loc 1 1020 0 is_stmt 0 discriminator 1
 1143 0058 731B     		subs	r3, r6, r5
 1144 005a 013B     		subs	r3, r3, #1
 1145 005c 9C42     		cmp	r4, r3
 1146 005e F4D3     		bcc	.L102
 1147              	.L100:
1028:Generated_Source\PSoC5/I2C_LCD.c ****     }
 1148              		.loc 1 1028 0 is_stmt 1
 1149 0060 FFF7FEFF 		bl	I2C_LCD_SendSequence
 1150              	.LVL134:
 1151 0064 F8BD     		pop	{r3, r4, r5, r6, r7, pc}
 1152              	.LVL135:
 1153              	.L107:
 1154 0066 00BF     		.align	2
 1155              	.L106:
 1156 0068 CDCCCCCC 		.word	-858993459
 1157              		.cfi_endproc
 1158              	.LFE19:
 1159              		.size	I2C_LCD_DrawHorizontalBG, .-I2C_LCD_DrawHorizontalBG
 1160              		.section	.text.I2C_LCD_DrawVerticalBG,"ax",%progbits
 1161              		.align	2
 1162              		.global	I2C_LCD_DrawVerticalBG
 1163              		.thumb
 1164              		.thumb_func
 1165              		.type	I2C_LCD_DrawVerticalBG, %function
ARM GAS  C:\Users\Dell\AppData\Local\Temp\cc7lEuPV.s 			page 44


 1166              	I2C_LCD_DrawVerticalBG:
 1167              	.LFB20:
1054:Generated_Source\PSoC5/I2C_LCD.c ****         /* 8-bit Counter */
 1168              		.loc 1 1054 0
 1169              		.cfi_startproc
 1170              		@ args = 0, pretend = 0, frame = 0
 1171              		@ frame_needed = 0, uses_anonymous_args = 0
 1172              	.LVL136:
 1173 0000 2DE9F843 		push	{r3, r4, r5, r6, r7, r8, r9, lr}
 1174              		.cfi_def_cfa_offset 32
 1175              		.cfi_offset 3, -32
 1176              		.cfi_offset 4, -28
 1177              		.cfi_offset 5, -24
 1178              		.cfi_offset 6, -20
 1179              		.cfi_offset 7, -16
 1180              		.cfi_offset 8, -12
 1181              		.cfi_offset 9, -8
 1182              		.cfi_offset 14, -4
 1183 0004 0546     		mov	r5, r0
 1184 0006 0F46     		mov	r7, r1
 1185 0008 9046     		mov	r8, r2
 1186              	.LVL137:
1063:Generated_Source\PSoC5/I2C_LCD.c **** 
 1187              		.loc 1 1063 0
 1188 000a DE08     		lsrs	r6, r3, #3
 1189              	.LVL138:
1066:Generated_Source\PSoC5/I2C_LCD.c **** 
 1190              		.loc 1 1066 0
 1191 000c 03F00709 		and	r9, r3, #7
 1192              	.LVL139:
1069:Generated_Source\PSoC5/I2C_LCD.c **** 
 1193              		.loc 1 1069 0
 1194 0010 FFF7FEFF 		bl	I2C_LCD_Position
 1195              	.LVL140:
1072:Generated_Source\PSoC5/I2C_LCD.c ****         {
 1196              		.loc 1 1072 0
 1197 0014 4645     		cmp	r6, r8
 1198 0016 00D3     		bcc	.L109
1074:Generated_Source\PSoC5/I2C_LCD.c ****         }
 1199              		.loc 1 1074 0
 1200 0018 4646     		mov	r6, r8
 1201              	.LVL141:
 1202              	.L109:
 1203 001a 0024     		movs	r4, #0
 1204 001c 0EE0     		b	.L110
 1205              	.LVL142:
 1206              	.L112:
1080:Generated_Source\PSoC5/I2C_LCD.c **** 
 1207              		.loc 1 1080 0
 1208 001e 0720     		movs	r0, #7
 1209 0020 FFF7FEFF 		bl	I2C_LCD_WriteData
 1210              	.LVL143:
1082:Generated_Source\PSoC5/I2C_LCD.c **** 
 1211              		.loc 1 1082 0
 1212 0024 0134     		adds	r4, r4, #1
 1213              	.LVL144:
 1214 0026 E4B2     		uxtb	r4, r4
ARM GAS  C:\Users\Dell\AppData\Local\Temp\cc7lEuPV.s 			page 45


 1215              	.LVL145:
1085:Generated_Source\PSoC5/I2C_LCD.c ****             {
 1216              		.loc 1 1085 0
 1217 0028 6AB2     		sxtb	r2, r5
 1218 002a 63B2     		sxtb	r3, r4
 1219 002c D21A     		subs	r2, r2, r3
 1220 002e 002A     		cmp	r2, #0
 1221 0030 06DB     		blt	.L111
1087:Generated_Source\PSoC5/I2C_LCD.c ****             }
 1222              		.loc 1 1087 0
 1223 0032 281B     		subs	r0, r5, r4
 1224 0034 3946     		mov	r1, r7
 1225 0036 C0B2     		uxtb	r0, r0
 1226 0038 FFF7FEFF 		bl	I2C_LCD_Position
 1227              	.LVL146:
 1228              	.L110:
1078:Generated_Source\PSoC5/I2C_LCD.c ****         {
 1229              		.loc 1 1078 0
 1230 003c B442     		cmp	r4, r6
 1231 003e EED3     		bcc	.L112
 1232              	.L111:
1095:Generated_Source\PSoC5/I2C_LCD.c ****         {
 1233              		.loc 1 1095 0
 1234 0040 6BB2     		sxtb	r3, r5
 1235 0042 62B2     		sxtb	r2, r4
 1236 0044 9B1A     		subs	r3, r3, r2
 1237 0046 002B     		cmp	r3, #0
 1238 0048 27DB     		blt	.L108
1095:Generated_Source\PSoC5/I2C_LCD.c ****         {
 1239              		.loc 1 1095 0 is_stmt 0 discriminator 1
 1240 004a B045     		cmp	r8, r6
 1241 004c 25D9     		bls	.L108
1098:Generated_Source\PSoC5/I2C_LCD.c ****             {
 1242              		.loc 1 1098 0 is_stmt 1
 1243 004e B9F1000F 		cmp	r9, #0
 1244 0052 03D1     		bne	.L114
1100:Generated_Source\PSoC5/I2C_LCD.c ****             }
 1245              		.loc 1 1100 0
 1246 0054 2020     		movs	r0, #32
 1247 0056 FFF7FEFF 		bl	I2C_LCD_WriteData
 1248              	.LVL147:
 1249 005a 04E0     		b	.L115
 1250              	.L114:
1104:Generated_Source\PSoC5/I2C_LCD.c ****             }
 1251              		.loc 1 1104 0
 1252 005c 09F1FF30 		add	r0, r9, #-1
 1253 0060 C0B2     		uxtb	r0, r0
 1254 0062 FFF7FEFF 		bl	I2C_LCD_WriteData
 1255              	.LVL148:
 1256              	.L115:
1107:Generated_Source\PSoC5/I2C_LCD.c **** 
 1257              		.loc 1 1107 0
 1258 0066 2C1B     		subs	r4, r5, r4
 1259              	.LVL149:
 1260 0068 013C     		subs	r4, r4, #1
 1261 006a 64B2     		sxtb	r4, r4
 1262              	.LVL150:
ARM GAS  C:\Users\Dell\AppData\Local\Temp\cc7lEuPV.s 			page 46


1109:Generated_Source\PSoC5/I2C_LCD.c ****             {
 1263              		.loc 1 1109 0
 1264 006c 002C     		cmp	r4, #0
 1265 006e 0EDA     		bge	.L119
 1266 0070 BDE8F883 		pop	{r3, r4, r5, r6, r7, r8, r9, pc}
 1267              	.LVL151:
 1268              	.L117:
1114:Generated_Source\PSoC5/I2C_LCD.c ****                     I2C_LCD_WriteData((uint8) ' ');
 1269              		.loc 1 1114 0 discriminator 3
 1270 0074 E4B2     		uxtb	r4, r4
 1271 0076 3946     		mov	r1, r7
 1272 0078 2046     		mov	r0, r4
 1273 007a FFF7FEFF 		bl	I2C_LCD_Position
 1274              	.LVL152:
1115:Generated_Source\PSoC5/I2C_LCD.c ****                     currentRow --;
 1275              		.loc 1 1115 0 discriminator 3
 1276 007e 2020     		movs	r0, #32
 1277 0080 FFF7FEFF 		bl	I2C_LCD_WriteData
 1278              	.LVL153:
1116:Generated_Source\PSoC5/I2C_LCD.c ****                 }
 1279              		.loc 1 1116 0 discriminator 3
 1280 0084 013C     		subs	r4, r4, #1
 1281              	.LVL154:
 1282 0086 64B2     		sxtb	r4, r4
 1283              	.LVL155:
1112:Generated_Source\PSoC5/I2C_LCD.c ****                 {
 1284              		.loc 1 1112 0 discriminator 3
 1285 0088 0135     		adds	r5, r5, #1
 1286              	.LVL156:
 1287 008a EDB2     		uxtb	r5, r5
 1288              	.LVL157:
 1289 008c 00E0     		b	.L116
 1290              	.LVL158:
 1291              	.L119:
 1292 008e 0025     		movs	r5, #0
 1293              	.L116:
 1294              	.LVL159:
1112:Generated_Source\PSoC5/I2C_LCD.c ****                 {
 1295              		.loc 1 1112 0 is_stmt 0 discriminator 1
 1296 0090 C6EB0803 		rsb	r3, r6, r8
 1297 0094 013B     		subs	r3, r3, #1
 1298 0096 9D42     		cmp	r5, r3
 1299 0098 ECD3     		bcc	.L117
 1300              	.LVL160:
 1301              	.L108:
 1302 009a BDE8F883 		pop	{r3, r4, r5, r6, r7, r8, r9, pc}
 1303              		.cfi_endproc
 1304              	.LFE20:
 1305              		.size	I2C_LCD_DrawVerticalBG, .-I2C_LCD_DrawVerticalBG
 1306              		.global	I2C_LCD_customFonts
 1307              		.global	I2C_LCD_initVar
 1308 009e 00BF     		.section	.rodata
 1309              		.align	2
 1310              		.set	.LANCHOR1,. + 0
 1311              		.type	I2C_LCD_cmdPatt, %object
 1312              		.size	I2C_LCD_cmdPatt, 48
 1313              	I2C_LCD_cmdPatt:
ARM GAS  C:\Users\Dell\AppData\Local\Temp\cc7lEuPV.s 			page 47


 1314 0000 01       		.byte	1
 1315 0001 40       		.byte	64
 1316 0002 00       		.byte	0
 1317 0003 02       		.byte	2
 1318 0004 00       		.byte	0
 1319 0005 0C       		.byte	12
 1320 0006 02       		.byte	2
 1321 0007 00       		.byte	0
 1322 0008 08       		.byte	8
 1323 0009 01       		.byte	1
 1324 000a 00       		.byte	0
 1325 000b 80       		.byte	-128
 1326 000c 02       		.byte	2
 1327 000d 00       		.byte	0
 1328 000e 02       		.byte	2
 1329 000f 02       		.byte	2
 1330 0010 00       		.byte	0
 1331 0011 03       		.byte	3
 1332 0012 02       		.byte	2
 1333 0013 00       		.byte	0
 1334 0014 10       		.byte	16
 1335 0015 02       		.byte	2
 1336 0016 00       		.byte	0
 1337 0017 14       		.byte	20
 1338 0018 02       		.byte	2
 1339 0019 00       		.byte	0
 1340 001a 0E       		.byte	14
 1341 001b 02       		.byte	2
 1342 001c 00       		.byte	0
 1343 001d 0D       		.byte	13
 1344 001e 02       		.byte	2
 1345 001f 00       		.byte	0
 1346 0020 0F       		.byte	15
 1347 0021 02       		.byte	2
 1348 0022 00       		.byte	0
 1349 0023 01       		.byte	1
 1350 0024 02       		.byte	2
 1351 0025 00       		.byte	0
 1352 0026 40       		.byte	64
 1353 0027 02       		.byte	2
 1354 0028 00       		.byte	0
 1355 0029 24       		.byte	36
 1356 002a 02       		.byte	2
 1357 002b 00       		.byte	0
 1358 002c 06       		.byte	6
 1359 002d 02       		.byte	2
 1360 002e 00       		.byte	0
 1361 002f 04       		.byte	4
 1362              		.type	I2C_LCD_hex.5142, %object
 1363              		.size	I2C_LCD_hex.5142, 16
 1364              	I2C_LCD_hex.5142:
 1365 0030 30313233 		.ascii	"0123456789ABCDEF"
 1365      34353637 
 1365      38394142 
 1365      43444546 
 1366              		.type	I2C_LCD_customFonts, %object
 1367              		.size	I2C_LCD_customFonts, 64
ARM GAS  C:\Users\Dell\AppData\Local\Temp\cc7lEuPV.s 			page 48


 1368              	I2C_LCD_customFonts:
 1369 0040 00       		.byte	0
 1370 0041 00       		.byte	0
 1371 0042 00       		.byte	0
 1372 0043 00       		.byte	0
 1373 0044 00       		.byte	0
 1374 0045 00       		.byte	0
 1375 0046 00       		.byte	0
 1376 0047 00       		.byte	0
 1377 0048 10       		.byte	16
 1378 0049 10       		.byte	16
 1379 004a 10       		.byte	16
 1380 004b 10       		.byte	16
 1381 004c 10       		.byte	16
 1382 004d 10       		.byte	16
 1383 004e 10       		.byte	16
 1384 004f 10       		.byte	16
 1385 0050 18       		.byte	24
 1386 0051 18       		.byte	24
 1387 0052 18       		.byte	24
 1388 0053 18       		.byte	24
 1389 0054 18       		.byte	24
 1390 0055 18       		.byte	24
 1391 0056 18       		.byte	24
 1392 0057 18       		.byte	24
 1393 0058 1C       		.byte	28
 1394 0059 1C       		.byte	28
 1395 005a 1C       		.byte	28
 1396 005b 1C       		.byte	28
 1397 005c 1C       		.byte	28
 1398 005d 1C       		.byte	28
 1399 005e 1C       		.byte	28
 1400 005f 1C       		.byte	28
 1401 0060 1E       		.byte	30
 1402 0061 1E       		.byte	30
 1403 0062 1E       		.byte	30
 1404 0063 1E       		.byte	30
 1405 0064 1E       		.byte	30
 1406 0065 1E       		.byte	30
 1407 0066 1E       		.byte	30
 1408 0067 1E       		.byte	30
 1409 0068 1F       		.byte	31
 1410 0069 1F       		.byte	31
 1411 006a 1F       		.byte	31
 1412 006b 1F       		.byte	31
 1413 006c 1F       		.byte	31
 1414 006d 1F       		.byte	31
 1415 006e 1F       		.byte	31
 1416 006f 1F       		.byte	31
 1417 0070 00       		.byte	0
 1418 0071 00       		.byte	0
 1419 0072 00       		.byte	0
 1420 0073 00       		.byte	0
 1421 0074 00       		.byte	0
 1422 0075 00       		.byte	0
 1423 0076 00       		.byte	0
 1424 0077 00       		.byte	0
ARM GAS  C:\Users\Dell\AppData\Local\Temp\cc7lEuPV.s 			page 49


 1425 0078 00       		.byte	0
 1426 0079 00       		.byte	0
 1427 007a 00       		.byte	0
 1428 007b 00       		.byte	0
 1429 007c 00       		.byte	0
 1430 007d 00       		.byte	0
 1431 007e 00       		.byte	0
 1432 007f 00       		.byte	0
 1433              		.data
 1434              		.set	.LANCHOR2,. + 0
 1435              		.type	I2C_LCD_address, %object
 1436              		.size	I2C_LCD_address, 1
 1437              	I2C_LCD_address:
 1438 0000 1F       		.byte	31
 1439              		.bss
 1440              		.align	2
 1441              		.set	.LANCHOR0,. + 0
 1442              		.type	I2C_LCD_buffIndex, %object
 1443              		.size	I2C_LCD_buffIndex, 1
 1444              	I2C_LCD_buffIndex:
 1445 0000 00       		.space	1
 1446 0001 000000   		.space	3
 1447              		.type	I2C_LCD_buff, %object
 1448              		.size	I2C_LCD_buff, 256
 1449              	I2C_LCD_buff:
 1450 0004 00000000 		.space	256
 1450      00000000 
 1450      00000000 
 1450      00000000 
 1450      00000000 
 1451              		.type	I2C_LCD_initVar, %object
 1452              		.size	I2C_LCD_initVar, 1
 1453              	I2C_LCD_initVar:
 1454 0104 00       		.space	1
 1455              		.text
 1456              	.Letext0:
 1457              		.file 2 "Generated_Source\\PSoC5\\cytypes.h"
 1458              		.file 3 "Generated_Source\\PSoC5\\I2C.h"
 1459              		.file 4 "Generated_Source\\PSoC5\\CyLib.h"