ARM GAS  C:\Users\Dell\AppData\Local\Temp\ccZV9hHa.s 			page 1


   1              		.syntax unified
   2              		.cpu cortex-m3
   3              		.fpu softvfp
   4              		.eabi_attribute 20, 1
   5              		.eabi_attribute 21, 1
   6              		.eabi_attribute 23, 3
   7              		.eabi_attribute 24, 1
   8              		.eabi_attribute 25, 1
   9              		.eabi_attribute 26, 1
  10              		.eabi_attribute 30, 1
  11              		.eabi_attribute 34, 1
  12              		.eabi_attribute 18, 4
  13              		.thumb
  14              		.syntax unified
  15              		.file	"LCD_I2C_1_FUNCS.c"
  16              		.text
  17              	.Ltext0:
  18              		.cfi_sections	.debug_frame
  19              		.section	.text.LCD_I2C_1_expanderWrite,"ax",%progbits
  20              		.align	2
  21              		.global	LCD_I2C_1_expanderWrite
  22              		.thumb
  23              		.thumb_func
  24              		.type	LCD_I2C_1_expanderWrite, %function
  25              	LCD_I2C_1_expanderWrite:
  26              	.LFB83:
  27              		.file 1 "Generated_Source\\PSoC5\\LCD_I2C_1_FUNCS.c"
   1:Generated_Source\PSoC5/LCD_I2C_1_FUNCS.c **** /****************************************************************************
   2:Generated_Source\PSoC5/LCD_I2C_1_FUNCS.c **** * This file is part of the PCF8574AT Custom Component for PSoC Devices.
   3:Generated_Source\PSoC5/LCD_I2C_1_FUNCS.c **** *
   4:Generated_Source\PSoC5/LCD_I2C_1_FUNCS.c **** * Copyright (C) 2017 Carlos Diaz <carlos.santiago.diaz@gmail.com>
   5:Generated_Source\PSoC5/LCD_I2C_1_FUNCS.c **** *
   6:Generated_Source\PSoC5/LCD_I2C_1_FUNCS.c **** * Based on the port of: Šarūnas Straigis
   7:Generated_Source\PSoC5/LCD_I2C_1_FUNCS.c **** * http://www.element14.com/community/people/sarunaszx/blog
   8:Generated_Source\PSoC5/LCD_I2C_1_FUNCS.c **** *
   9:Generated_Source\PSoC5/LCD_I2C_1_FUNCS.c **** * Permission to use, copy, modify, and/or distribute this software for any
  10:Generated_Source\PSoC5/LCD_I2C_1_FUNCS.c **** * purpose with or without fee is hereby granted, provided that the above
  11:Generated_Source\PSoC5/LCD_I2C_1_FUNCS.c **** * copyright notice and this permission notice appear in all copies.
  12:Generated_Source\PSoC5/LCD_I2C_1_FUNCS.c **** *
  13:Generated_Source\PSoC5/LCD_I2C_1_FUNCS.c **** * THE SOFTWARE IS PROVIDED "AS IS" AND THE AUTHOR DISCLAIMS ALL WARRANTIES
  14:Generated_Source\PSoC5/LCD_I2C_1_FUNCS.c **** * WITH REGARD TO THIS SOFTWARE INCLUDING ALL IMPLIED WARRANTIES OF
  15:Generated_Source\PSoC5/LCD_I2C_1_FUNCS.c **** * MERCHANTABILITY AND FITNESS. IN NO EVENT SHALL THE AUTHOR BE LIABLE FOR
  16:Generated_Source\PSoC5/LCD_I2C_1_FUNCS.c **** * ANY SPECIAL, DIRECT, INDIRECT, OR CONSEQUENTIAL DAMAGES OR ANY DAMAGES
  17:Generated_Source\PSoC5/LCD_I2C_1_FUNCS.c **** * WHATSOEVER RESULTING FROM LOSS OF USE, DATA OR PROFITS, WHETHER IN AN
  18:Generated_Source\PSoC5/LCD_I2C_1_FUNCS.c **** * ACTION OF CONTRACT, NEGLIGENCE OR OTHER TORTIOUS ACTION, ARISING OUT OF
  19:Generated_Source\PSoC5/LCD_I2C_1_FUNCS.c **** * OR IN CONNECTION WITH THE USE OR PERFORMANCE OF THIS SOFTWARE.
  20:Generated_Source\PSoC5/LCD_I2C_1_FUNCS.c **** ****************************************************************************/
  21:Generated_Source\PSoC5/LCD_I2C_1_FUNCS.c ****     
  22:Generated_Source\PSoC5/LCD_I2C_1_FUNCS.c **** #include <cytypes.h>
  23:Generated_Source\PSoC5/LCD_I2C_1_FUNCS.c **** #include <cyfitter.h>
  24:Generated_Source\PSoC5/LCD_I2C_1_FUNCS.c **** 
  25:Generated_Source\PSoC5/LCD_I2C_1_FUNCS.c **** #include "project.h"
  26:Generated_Source\PSoC5/LCD_I2C_1_FUNCS.c **** 
  27:Generated_Source\PSoC5/LCD_I2C_1_FUNCS.c **** #include <stdint.h>
  28:Generated_Source\PSoC5/LCD_I2C_1_FUNCS.c **** #include <string.h>
  29:Generated_Source\PSoC5/LCD_I2C_1_FUNCS.c **** 
  30:Generated_Source\PSoC5/LCD_I2C_1_FUNCS.c **** #include "LCD_I2C_1_REGS.h"
ARM GAS  C:\Users\Dell\AppData\Local\Temp\ccZV9hHa.s 			page 2


  31:Generated_Source\PSoC5/LCD_I2C_1_FUNCS.c **** #include "LCD_I2C_1_LL_I2C.h"
  32:Generated_Source\PSoC5/LCD_I2C_1_FUNCS.c **** #include "LCD_I2C_1_FUNCS.h"
  33:Generated_Source\PSoC5/LCD_I2C_1_FUNCS.c **** 
  34:Generated_Source\PSoC5/LCD_I2C_1_FUNCS.c **** struct LCD_I2C_1_Config LCD_I2C_1_config;
  35:Generated_Source\PSoC5/LCD_I2C_1_FUNCS.c **** 
  36:Generated_Source\PSoC5/LCD_I2C_1_FUNCS.c **** /*
  37:Generated_Source\PSoC5/LCD_I2C_1_FUNCS.c **** uint8_t LCD_I2C_1_addr;
  38:Generated_Source\PSoC5/LCD_I2C_1_FUNCS.c **** uint8_t LCD_I2C_1_displayfunction;
  39:Generated_Source\PSoC5/LCD_I2C_1_FUNCS.c **** uint8_t LCD_I2C_1_displaycontrol;
  40:Generated_Source\PSoC5/LCD_I2C_1_FUNCS.c **** uint8_t LCD_I2C_1_displaymode;
  41:Generated_Source\PSoC5/LCD_I2C_1_FUNCS.c **** uint8_t LCD_I2C_1_cols;
  42:Generated_Source\PSoC5/LCD_I2C_1_FUNCS.c **** uint8_t LCD_I2C_1_rows;
  43:Generated_Source\PSoC5/LCD_I2C_1_FUNCS.c **** uint8_t LCD_I2C_1_charsize;
  44:Generated_Source\PSoC5/LCD_I2C_1_FUNCS.c **** uint8_t LCD_I2C_1_backlightval;
  45:Generated_Source\PSoC5/LCD_I2C_1_FUNCS.c **** */
  46:Generated_Source\PSoC5/LCD_I2C_1_FUNCS.c **** 
  47:Generated_Source\PSoC5/LCD_I2C_1_FUNCS.c **** // When the display powers up, it is configured as follows:
  48:Generated_Source\PSoC5/LCD_I2C_1_FUNCS.c **** //
  49:Generated_Source\PSoC5/LCD_I2C_1_FUNCS.c **** // 1. Display clear
  50:Generated_Source\PSoC5/LCD_I2C_1_FUNCS.c **** // 2. Function set: 
  51:Generated_Source\PSoC5/LCD_I2C_1_FUNCS.c **** //    DL = 1; 8-bit interface data 
  52:Generated_Source\PSoC5/LCD_I2C_1_FUNCS.c **** //    N = 0; 1-line display 
  53:Generated_Source\PSoC5/LCD_I2C_1_FUNCS.c **** //    F = 0; 5x8 dot character font 
  54:Generated_Source\PSoC5/LCD_I2C_1_FUNCS.c **** // 3. Display on/off control: 
  55:Generated_Source\PSoC5/LCD_I2C_1_FUNCS.c **** //    D = 0; Display off 
  56:Generated_Source\PSoC5/LCD_I2C_1_FUNCS.c **** //    C = 0; Cursor off 
  57:Generated_Source\PSoC5/LCD_I2C_1_FUNCS.c **** //    B = 0; Blinking off 
  58:Generated_Source\PSoC5/LCD_I2C_1_FUNCS.c **** // 4. Entry mode set: 
  59:Generated_Source\PSoC5/LCD_I2C_1_FUNCS.c **** //    I/D = 1; Increment by 1
  60:Generated_Source\PSoC5/LCD_I2C_1_FUNCS.c **** //    S = 0; No shift 
  61:Generated_Source\PSoC5/LCD_I2C_1_FUNCS.c **** void LCD_I2C_1_start(void)
  62:Generated_Source\PSoC5/LCD_I2C_1_FUNCS.c **** {
  63:Generated_Source\PSoC5/LCD_I2C_1_FUNCS.c ****     LCD_I2C_1_config.addr = 63;
  64:Generated_Source\PSoC5/LCD_I2C_1_FUNCS.c ****     LCD_I2C_1_config.cols = 16;
  65:Generated_Source\PSoC5/LCD_I2C_1_FUNCS.c ****     LCD_I2C_1_config.rows = 2;
  66:Generated_Source\PSoC5/LCD_I2C_1_FUNCS.c ****     LCD_I2C_1_config.charsize = 0;
  67:Generated_Source\PSoC5/LCD_I2C_1_FUNCS.c ****     LCD_I2C_1_config.backlightval = LCD_BACKLIGHT;
  68:Generated_Source\PSoC5/LCD_I2C_1_FUNCS.c **** 	LCD_I2C_1_config.displayfunction = LCD_4BITMODE | LCD_1LINE | LCD_5x8DOTS;
  69:Generated_Source\PSoC5/LCD_I2C_1_FUNCS.c **** 
  70:Generated_Source\PSoC5/LCD_I2C_1_FUNCS.c **** 	if (LCD_I2C_1_config.rows > 1) {
  71:Generated_Source\PSoC5/LCD_I2C_1_FUNCS.c **** 		LCD_I2C_1_config.displayfunction |= LCD_2LINE;
  72:Generated_Source\PSoC5/LCD_I2C_1_FUNCS.c **** 	}
  73:Generated_Source\PSoC5/LCD_I2C_1_FUNCS.c **** 
  74:Generated_Source\PSoC5/LCD_I2C_1_FUNCS.c **** 	// for some 1 line displays you can select a 10 pixel high font
  75:Generated_Source\PSoC5/LCD_I2C_1_FUNCS.c **** 	if ((LCD_I2C_1_config.charsize != 0) && (LCD_I2C_1_config.rows == 1)) {
  76:Generated_Source\PSoC5/LCD_I2C_1_FUNCS.c **** 		LCD_I2C_1_config.displayfunction |= LCD_5x10DOTS;
  77:Generated_Source\PSoC5/LCD_I2C_1_FUNCS.c **** 	}
  78:Generated_Source\PSoC5/LCD_I2C_1_FUNCS.c **** 
  79:Generated_Source\PSoC5/LCD_I2C_1_FUNCS.c **** 	// SEE PAGE 45/46 FOR INITIALIZATION SPECIFICATION!
  80:Generated_Source\PSoC5/LCD_I2C_1_FUNCS.c **** 	// according to datasheet, we need at least 40ms after power rises above 2.7V
  81:Generated_Source\PSoC5/LCD_I2C_1_FUNCS.c **** 	// before sending commands. Arduino can turn on way befer 4.5V so we'll wait 50
  82:Generated_Source\PSoC5/LCD_I2C_1_FUNCS.c **** 	CyDelay(50);
  83:Generated_Source\PSoC5/LCD_I2C_1_FUNCS.c ****     
  84:Generated_Source\PSoC5/LCD_I2C_1_FUNCS.c ****     LCD_I2C_1_begin();
  85:Generated_Source\PSoC5/LCD_I2C_1_FUNCS.c **** }
  86:Generated_Source\PSoC5/LCD_I2C_1_FUNCS.c **** 
  87:Generated_Source\PSoC5/LCD_I2C_1_FUNCS.c **** void LCD_I2C_1_begin(void)
ARM GAS  C:\Users\Dell\AppData\Local\Temp\ccZV9hHa.s 			page 3


  88:Generated_Source\PSoC5/LCD_I2C_1_FUNCS.c **** {
  89:Generated_Source\PSoC5/LCD_I2C_1_FUNCS.c **** 	// Now we pull both RS and R/W low to begin commands
  90:Generated_Source\PSoC5/LCD_I2C_1_FUNCS.c ****     // reset expanderand turn backlight off (Bit 8 =1)
  91:Generated_Source\PSoC5/LCD_I2C_1_FUNCS.c **** 	LCD_I2C_1_expanderWrite(LCD_I2C_1_config.backlightval);
  92:Generated_Source\PSoC5/LCD_I2C_1_FUNCS.c **** 	CyDelay(1000);
  93:Generated_Source\PSoC5/LCD_I2C_1_FUNCS.c **** 
  94:Generated_Source\PSoC5/LCD_I2C_1_FUNCS.c **** 	//put the LCD into 4 bit mode
  95:Generated_Source\PSoC5/LCD_I2C_1_FUNCS.c **** 	// this is according to the hitachi HD44780 datasheet
  96:Generated_Source\PSoC5/LCD_I2C_1_FUNCS.c **** 	// figure 24, pg 46
  97:Generated_Source\PSoC5/LCD_I2C_1_FUNCS.c **** 
  98:Generated_Source\PSoC5/LCD_I2C_1_FUNCS.c **** 	// we start in 8bit mode, try to set 4 bit mode
  99:Generated_Source\PSoC5/LCD_I2C_1_FUNCS.c **** 	LCD_I2C_1_write4bits(0x03 << 4);
 100:Generated_Source\PSoC5/LCD_I2C_1_FUNCS.c **** 	CyDelayUs(4500); // wait min 4.1ms
 101:Generated_Source\PSoC5/LCD_I2C_1_FUNCS.c **** 
 102:Generated_Source\PSoC5/LCD_I2C_1_FUNCS.c **** 	// second try
 103:Generated_Source\PSoC5/LCD_I2C_1_FUNCS.c **** 	LCD_I2C_1_write4bits(0x03 << 4);
 104:Generated_Source\PSoC5/LCD_I2C_1_FUNCS.c **** 	CyDelayUs(4500); // wait min 4.1ms
 105:Generated_Source\PSoC5/LCD_I2C_1_FUNCS.c **** 
 106:Generated_Source\PSoC5/LCD_I2C_1_FUNCS.c **** 	// third go!
 107:Generated_Source\PSoC5/LCD_I2C_1_FUNCS.c **** 	LCD_I2C_1_write4bits(0x03 << 4); 
 108:Generated_Source\PSoC5/LCD_I2C_1_FUNCS.c **** 	CyDelayUs(150);
 109:Generated_Source\PSoC5/LCD_I2C_1_FUNCS.c **** 
 110:Generated_Source\PSoC5/LCD_I2C_1_FUNCS.c **** 	// finally, set to 4-bit interface
 111:Generated_Source\PSoC5/LCD_I2C_1_FUNCS.c **** 	LCD_I2C_1_write4bits(0x02 << 4); 
 112:Generated_Source\PSoC5/LCD_I2C_1_FUNCS.c **** 
 113:Generated_Source\PSoC5/LCD_I2C_1_FUNCS.c **** 	// set # lines, font size, etc.
 114:Generated_Source\PSoC5/LCD_I2C_1_FUNCS.c **** 	LCD_I2C_1_command(LCD_FUNCTIONSET | LCD_I2C_1_config.displayfunction);  
 115:Generated_Source\PSoC5/LCD_I2C_1_FUNCS.c **** 	
 116:Generated_Source\PSoC5/LCD_I2C_1_FUNCS.c **** 	// turn the display on with no cursor or blinking default
 117:Generated_Source\PSoC5/LCD_I2C_1_FUNCS.c **** 	LCD_I2C_1_config.displaycontrol = LCD_DISPLAYON | LCD_CURSOROFF | LCD_BLINKOFF;
 118:Generated_Source\PSoC5/LCD_I2C_1_FUNCS.c **** 	LCD_I2C_1_display();
 119:Generated_Source\PSoC5/LCD_I2C_1_FUNCS.c **** 	
 120:Generated_Source\PSoC5/LCD_I2C_1_FUNCS.c **** 	// clear it off
 121:Generated_Source\PSoC5/LCD_I2C_1_FUNCS.c **** 	LCD_I2C_1_clear();
 122:Generated_Source\PSoC5/LCD_I2C_1_FUNCS.c **** 	
 123:Generated_Source\PSoC5/LCD_I2C_1_FUNCS.c **** 	// Initialize to default text direction (for roman languages)
 124:Generated_Source\PSoC5/LCD_I2C_1_FUNCS.c **** 	LCD_I2C_1_config.displaymode = LCD_ENTRYLEFT | LCD_ENTRYSHIFTDECREMENT;
 125:Generated_Source\PSoC5/LCD_I2C_1_FUNCS.c **** 	
 126:Generated_Source\PSoC5/LCD_I2C_1_FUNCS.c **** 	// set the entry mode
 127:Generated_Source\PSoC5/LCD_I2C_1_FUNCS.c **** 	LCD_I2C_1_command(LCD_ENTRYMODESET | LCD_I2C_1_config.displaymode);
 128:Generated_Source\PSoC5/LCD_I2C_1_FUNCS.c **** 	
 129:Generated_Source\PSoC5/LCD_I2C_1_FUNCS.c **** 	LCD_I2C_1_home();
 130:Generated_Source\PSoC5/LCD_I2C_1_FUNCS.c **** }
 131:Generated_Source\PSoC5/LCD_I2C_1_FUNCS.c **** 
 132:Generated_Source\PSoC5/LCD_I2C_1_FUNCS.c **** /********** high level commands, for the user! */
 133:Generated_Source\PSoC5/LCD_I2C_1_FUNCS.c **** void LCD_I2C_1_clear(void)
 134:Generated_Source\PSoC5/LCD_I2C_1_FUNCS.c **** {
 135:Generated_Source\PSoC5/LCD_I2C_1_FUNCS.c **** 	LCD_I2C_1_command(LCD_CLEARDISPLAY);// clear display, set cursor position to zero
 136:Generated_Source\PSoC5/LCD_I2C_1_FUNCS.c **** 	CyDelay(2);  // this command takes a long time!
 137:Generated_Source\PSoC5/LCD_I2C_1_FUNCS.c **** }
 138:Generated_Source\PSoC5/LCD_I2C_1_FUNCS.c **** 
 139:Generated_Source\PSoC5/LCD_I2C_1_FUNCS.c **** void LCD_I2C_1_home(void)
 140:Generated_Source\PSoC5/LCD_I2C_1_FUNCS.c **** {
 141:Generated_Source\PSoC5/LCD_I2C_1_FUNCS.c ****     LCD_I2C_1_command(LCD_RETURNHOME);  // set cursor position to zero
 142:Generated_Source\PSoC5/LCD_I2C_1_FUNCS.c **** 	CyDelay(2);  // this command takes a long time!
 143:Generated_Source\PSoC5/LCD_I2C_1_FUNCS.c **** }
 144:Generated_Source\PSoC5/LCD_I2C_1_FUNCS.c **** 
ARM GAS  C:\Users\Dell\AppData\Local\Temp\ccZV9hHa.s 			page 4


 145:Generated_Source\PSoC5/LCD_I2C_1_FUNCS.c **** void LCD_I2C_1_setCursor(uint8_t col, uint8_t row)
 146:Generated_Source\PSoC5/LCD_I2C_1_FUNCS.c **** {
 147:Generated_Source\PSoC5/LCD_I2C_1_FUNCS.c **** 	const uint8_t row_offsets[4] = { 0x00, 0x40, 0x14, 0x54 };
 148:Generated_Source\PSoC5/LCD_I2C_1_FUNCS.c **** 	if (row > LCD_I2C_1_config.rows) {
 149:Generated_Source\PSoC5/LCD_I2C_1_FUNCS.c **** 		row = LCD_I2C_1_config.rows - 1;    // we count rows starting w/0
 150:Generated_Source\PSoC5/LCD_I2C_1_FUNCS.c **** 	}
 151:Generated_Source\PSoC5/LCD_I2C_1_FUNCS.c **** 	LCD_I2C_1_command(LCD_SETDDRAMADDR | (col + row_offsets[row]));
 152:Generated_Source\PSoC5/LCD_I2C_1_FUNCS.c **** }
 153:Generated_Source\PSoC5/LCD_I2C_1_FUNCS.c **** 
 154:Generated_Source\PSoC5/LCD_I2C_1_FUNCS.c **** // Turn the display on/off (quickly)
 155:Generated_Source\PSoC5/LCD_I2C_1_FUNCS.c **** void LCD_I2C_1_noDisplay(void)
 156:Generated_Source\PSoC5/LCD_I2C_1_FUNCS.c **** {
 157:Generated_Source\PSoC5/LCD_I2C_1_FUNCS.c ****     LCD_I2C_1_config.displaycontrol &= ~LCD_DISPLAYON;
 158:Generated_Source\PSoC5/LCD_I2C_1_FUNCS.c **** 	LCD_I2C_1_command(LCD_DISPLAYCONTROL | LCD_I2C_1_config.displaycontrol);
 159:Generated_Source\PSoC5/LCD_I2C_1_FUNCS.c **** }
 160:Generated_Source\PSoC5/LCD_I2C_1_FUNCS.c **** 
 161:Generated_Source\PSoC5/LCD_I2C_1_FUNCS.c **** void LCD_I2C_1_display(void)
 162:Generated_Source\PSoC5/LCD_I2C_1_FUNCS.c **** {
 163:Generated_Source\PSoC5/LCD_I2C_1_FUNCS.c **** 	LCD_I2C_1_config.displaycontrol |= LCD_DISPLAYON;
 164:Generated_Source\PSoC5/LCD_I2C_1_FUNCS.c **** 	LCD_I2C_1_command(LCD_DISPLAYCONTROL | LCD_I2C_1_config.displaycontrol);
 165:Generated_Source\PSoC5/LCD_I2C_1_FUNCS.c **** }
 166:Generated_Source\PSoC5/LCD_I2C_1_FUNCS.c **** 
 167:Generated_Source\PSoC5/LCD_I2C_1_FUNCS.c **** // Turns the underline cursor on/off
 168:Generated_Source\PSoC5/LCD_I2C_1_FUNCS.c **** void LCD_I2C_1_noCursor(void)
 169:Generated_Source\PSoC5/LCD_I2C_1_FUNCS.c **** {
 170:Generated_Source\PSoC5/LCD_I2C_1_FUNCS.c ****     LCD_I2C_1_config.displaycontrol &= ~LCD_CURSORON;
 171:Generated_Source\PSoC5/LCD_I2C_1_FUNCS.c **** 	LCD_I2C_1_command(LCD_DISPLAYCONTROL | LCD_I2C_1_config.displaycontrol);
 172:Generated_Source\PSoC5/LCD_I2C_1_FUNCS.c **** }
 173:Generated_Source\PSoC5/LCD_I2C_1_FUNCS.c **** 
 174:Generated_Source\PSoC5/LCD_I2C_1_FUNCS.c **** void LCD_I2C_1_cursor(void)
 175:Generated_Source\PSoC5/LCD_I2C_1_FUNCS.c **** {
 176:Generated_Source\PSoC5/LCD_I2C_1_FUNCS.c ****     LCD_I2C_1_config.displaycontrol |= LCD_CURSORON;
 177:Generated_Source\PSoC5/LCD_I2C_1_FUNCS.c **** 	LCD_I2C_1_command(LCD_DISPLAYCONTROL | LCD_I2C_1_config.displaycontrol);
 178:Generated_Source\PSoC5/LCD_I2C_1_FUNCS.c **** }
 179:Generated_Source\PSoC5/LCD_I2C_1_FUNCS.c **** 
 180:Generated_Source\PSoC5/LCD_I2C_1_FUNCS.c **** // Turn on and off the blinking cursor
 181:Generated_Source\PSoC5/LCD_I2C_1_FUNCS.c **** void LCD_I2C_1_noBlink(void)
 182:Generated_Source\PSoC5/LCD_I2C_1_FUNCS.c **** {
 183:Generated_Source\PSoC5/LCD_I2C_1_FUNCS.c ****     LCD_I2C_1_config.displaycontrol &= ~LCD_BLINKON;
 184:Generated_Source\PSoC5/LCD_I2C_1_FUNCS.c **** 	LCD_I2C_1_command(LCD_DISPLAYCONTROL | LCD_I2C_1_config.displaycontrol);
 185:Generated_Source\PSoC5/LCD_I2C_1_FUNCS.c **** }
 186:Generated_Source\PSoC5/LCD_I2C_1_FUNCS.c **** 
 187:Generated_Source\PSoC5/LCD_I2C_1_FUNCS.c **** void LCD_I2C_1_blink(void)
 188:Generated_Source\PSoC5/LCD_I2C_1_FUNCS.c **** {
 189:Generated_Source\PSoC5/LCD_I2C_1_FUNCS.c **** 	LCD_I2C_1_config.displaycontrol |= LCD_BLINKON;
 190:Generated_Source\PSoC5/LCD_I2C_1_FUNCS.c **** 	LCD_I2C_1_command(LCD_DISPLAYCONTROL | LCD_I2C_1_config.displaycontrol);
 191:Generated_Source\PSoC5/LCD_I2C_1_FUNCS.c **** }
 192:Generated_Source\PSoC5/LCD_I2C_1_FUNCS.c **** 
 193:Generated_Source\PSoC5/LCD_I2C_1_FUNCS.c **** // These commands scroll the display without changing the RAM
 194:Generated_Source\PSoC5/LCD_I2C_1_FUNCS.c **** void LCD_I2C_1_scrollDisplayLeft(void)
 195:Generated_Source\PSoC5/LCD_I2C_1_FUNCS.c **** {
 196:Generated_Source\PSoC5/LCD_I2C_1_FUNCS.c **** 	LCD_I2C_1_command(LCD_CURSORSHIFT | LCD_DISPLAYMOVE | LCD_MOVELEFT);
 197:Generated_Source\PSoC5/LCD_I2C_1_FUNCS.c **** }
 198:Generated_Source\PSoC5/LCD_I2C_1_FUNCS.c **** 
 199:Generated_Source\PSoC5/LCD_I2C_1_FUNCS.c **** void LCD_I2C_1_scrollDisplayRight(void)
 200:Generated_Source\PSoC5/LCD_I2C_1_FUNCS.c **** {
 201:Generated_Source\PSoC5/LCD_I2C_1_FUNCS.c ****     LCD_I2C_1_command(LCD_CURSORSHIFT | LCD_DISPLAYMOVE | LCD_MOVERIGHT);
ARM GAS  C:\Users\Dell\AppData\Local\Temp\ccZV9hHa.s 			page 5


 202:Generated_Source\PSoC5/LCD_I2C_1_FUNCS.c **** }
 203:Generated_Source\PSoC5/LCD_I2C_1_FUNCS.c **** 
 204:Generated_Source\PSoC5/LCD_I2C_1_FUNCS.c **** // This is for text that flows Left to Right
 205:Generated_Source\PSoC5/LCD_I2C_1_FUNCS.c **** void LCD_I2C_1_leftToRight(void)
 206:Generated_Source\PSoC5/LCD_I2C_1_FUNCS.c **** {
 207:Generated_Source\PSoC5/LCD_I2C_1_FUNCS.c **** 	LCD_I2C_1_config.displaymode |= LCD_ENTRYLEFT;
 208:Generated_Source\PSoC5/LCD_I2C_1_FUNCS.c **** 	LCD_I2C_1_command(LCD_ENTRYMODESET | LCD_I2C_1_config.displaymode);
 209:Generated_Source\PSoC5/LCD_I2C_1_FUNCS.c **** }
 210:Generated_Source\PSoC5/LCD_I2C_1_FUNCS.c **** 
 211:Generated_Source\PSoC5/LCD_I2C_1_FUNCS.c **** // This is for text that flows Right to Left
 212:Generated_Source\PSoC5/LCD_I2C_1_FUNCS.c **** void LCD_I2C_1_rightToLeft(void)
 213:Generated_Source\PSoC5/LCD_I2C_1_FUNCS.c **** {
 214:Generated_Source\PSoC5/LCD_I2C_1_FUNCS.c **** 	LCD_I2C_1_config.displaymode &= ~LCD_ENTRYLEFT;
 215:Generated_Source\PSoC5/LCD_I2C_1_FUNCS.c **** 	LCD_I2C_1_command(LCD_ENTRYMODESET | LCD_I2C_1_config.displaymode);
 216:Generated_Source\PSoC5/LCD_I2C_1_FUNCS.c **** }
 217:Generated_Source\PSoC5/LCD_I2C_1_FUNCS.c **** 
 218:Generated_Source\PSoC5/LCD_I2C_1_FUNCS.c **** // This will 'right justify' text from the cursor
 219:Generated_Source\PSoC5/LCD_I2C_1_FUNCS.c **** void LCD_I2C_1_autoscroll(void)
 220:Generated_Source\PSoC5/LCD_I2C_1_FUNCS.c **** {
 221:Generated_Source\PSoC5/LCD_I2C_1_FUNCS.c ****     LCD_I2C_1_config.displaymode |= LCD_ENTRYSHIFTINCREMENT;
 222:Generated_Source\PSoC5/LCD_I2C_1_FUNCS.c **** 	LCD_I2C_1_command(LCD_ENTRYMODESET | LCD_I2C_1_config.displaymode);
 223:Generated_Source\PSoC5/LCD_I2C_1_FUNCS.c **** }
 224:Generated_Source\PSoC5/LCD_I2C_1_FUNCS.c **** 
 225:Generated_Source\PSoC5/LCD_I2C_1_FUNCS.c **** // This will 'left justify' text from the cursor
 226:Generated_Source\PSoC5/LCD_I2C_1_FUNCS.c **** void LCD_I2C_1_noAutoscroll(void)
 227:Generated_Source\PSoC5/LCD_I2C_1_FUNCS.c **** {
 228:Generated_Source\PSoC5/LCD_I2C_1_FUNCS.c ****     LCD_I2C_1_config.displaymode &= ~LCD_ENTRYSHIFTINCREMENT;
 229:Generated_Source\PSoC5/LCD_I2C_1_FUNCS.c **** 	LCD_I2C_1_command(LCD_ENTRYMODESET | LCD_I2C_1_config.displaymode);
 230:Generated_Source\PSoC5/LCD_I2C_1_FUNCS.c **** }
 231:Generated_Source\PSoC5/LCD_I2C_1_FUNCS.c **** 
 232:Generated_Source\PSoC5/LCD_I2C_1_FUNCS.c **** // Allows us to fill the first 8 CGRAM locations
 233:Generated_Source\PSoC5/LCD_I2C_1_FUNCS.c **** // with custom characters
 234:Generated_Source\PSoC5/LCD_I2C_1_FUNCS.c **** void LCD_I2C_1_createChar(uint8_t location, uint8_t charmap[])
 235:Generated_Source\PSoC5/LCD_I2C_1_FUNCS.c **** {
 236:Generated_Source\PSoC5/LCD_I2C_1_FUNCS.c ****     location &= 0x7; // we only have 8 locations 0-7
 237:Generated_Source\PSoC5/LCD_I2C_1_FUNCS.c **** 	LCD_I2C_1_command(LCD_SETCGRAMADDR | (location << 3));
 238:Generated_Source\PSoC5/LCD_I2C_1_FUNCS.c **** 	for (uint32_t i = 0; i < 8; i++) {
 239:Generated_Source\PSoC5/LCD_I2C_1_FUNCS.c **** 		LCD_I2C_1_write(charmap[i]);
 240:Generated_Source\PSoC5/LCD_I2C_1_FUNCS.c **** 	}
 241:Generated_Source\PSoC5/LCD_I2C_1_FUNCS.c **** }
 242:Generated_Source\PSoC5/LCD_I2C_1_FUNCS.c **** 
 243:Generated_Source\PSoC5/LCD_I2C_1_FUNCS.c **** // Turn the (optional) backlight off/on
 244:Generated_Source\PSoC5/LCD_I2C_1_FUNCS.c **** void LCD_I2C_1_noBacklight(void)
 245:Generated_Source\PSoC5/LCD_I2C_1_FUNCS.c **** {
 246:Generated_Source\PSoC5/LCD_I2C_1_FUNCS.c ****     LCD_I2C_1_config.backlightval = LCD_NOBACKLIGHT;
 247:Generated_Source\PSoC5/LCD_I2C_1_FUNCS.c **** 	LCD_I2C_1_expanderWrite(0);
 248:Generated_Source\PSoC5/LCD_I2C_1_FUNCS.c **** }
 249:Generated_Source\PSoC5/LCD_I2C_1_FUNCS.c **** 
 250:Generated_Source\PSoC5/LCD_I2C_1_FUNCS.c **** void LCD_I2C_1_backlight(void)
 251:Generated_Source\PSoC5/LCD_I2C_1_FUNCS.c **** {
 252:Generated_Source\PSoC5/LCD_I2C_1_FUNCS.c **** 	LCD_I2C_1_config.backlightval = LCD_BACKLIGHT;
 253:Generated_Source\PSoC5/LCD_I2C_1_FUNCS.c **** 	LCD_I2C_1_expanderWrite(0);
 254:Generated_Source\PSoC5/LCD_I2C_1_FUNCS.c **** }
 255:Generated_Source\PSoC5/LCD_I2C_1_FUNCS.c **** 
 256:Generated_Source\PSoC5/LCD_I2C_1_FUNCS.c **** void LCD_I2C_1_expanderWrite(uint8_t data)
 257:Generated_Source\PSoC5/LCD_I2C_1_FUNCS.c **** {
  28              		.loc 1 257 0
ARM GAS  C:\Users\Dell\AppData\Local\Temp\ccZV9hHa.s 			page 6


  29              		.cfi_startproc
  30              		@ args = 0, pretend = 0, frame = 0
  31              		@ frame_needed = 0, uses_anonymous_args = 0
  32              	.LVL0:
  33 0000 08B5     		push	{r3, lr}
  34              		.cfi_def_cfa_offset 8
  35              		.cfi_offset 3, -8
  36              		.cfi_offset 14, -4
 258:Generated_Source\PSoC5/LCD_I2C_1_FUNCS.c **** 	LCD_I2C_1_writeByte(LCD_I2C_1_config.addr, data | LCD_I2C_1_config.backlightval);
  37              		.loc 1 258 0
  38 0002 034B     		ldr	r3, .L3
  39 0004 D979     		ldrb	r1, [r3, #7]	@ zero_extendqisi2
  40 0006 0143     		orrs	r1, r1, r0
  41 0008 1878     		ldrb	r0, [r3]	@ zero_extendqisi2
  42              	.LVL1:
  43 000a FFF7FEFF 		bl	LCD_I2C_1_writeByte
  44              	.LVL2:
  45 000e 08BD     		pop	{r3, pc}
  46              	.L4:
  47              		.align	2
  48              	.L3:
  49 0010 00000000 		.word	LCD_I2C_1_config
  50              		.cfi_endproc
  51              	.LFE83:
  52              		.size	LCD_I2C_1_expanderWrite, .-LCD_I2C_1_expanderWrite
  53              		.section	.text.LCD_I2C_1_noBacklight,"ax",%progbits
  54              		.align	2
  55              		.global	LCD_I2C_1_noBacklight
  56              		.thumb
  57              		.thumb_func
  58              		.type	LCD_I2C_1_noBacklight, %function
  59              	LCD_I2C_1_noBacklight:
  60              	.LFB81:
 245:Generated_Source\PSoC5/LCD_I2C_1_FUNCS.c ****     LCD_I2C_1_config.backlightval = LCD_NOBACKLIGHT;
  61              		.loc 1 245 0
  62              		.cfi_startproc
  63              		@ args = 0, pretend = 0, frame = 0
  64              		@ frame_needed = 0, uses_anonymous_args = 0
  65 0000 08B5     		push	{r3, lr}
  66              		.cfi_def_cfa_offset 8
  67              		.cfi_offset 3, -8
  68              		.cfi_offset 14, -4
 246:Generated_Source\PSoC5/LCD_I2C_1_FUNCS.c **** 	LCD_I2C_1_expanderWrite(0);
  69              		.loc 1 246 0
  70 0002 0020     		movs	r0, #0
  71 0004 024B     		ldr	r3, .L7
  72 0006 D871     		strb	r0, [r3, #7]
 247:Generated_Source\PSoC5/LCD_I2C_1_FUNCS.c **** }
  73              		.loc 1 247 0
  74 0008 FFF7FEFF 		bl	LCD_I2C_1_expanderWrite
  75              	.LVL3:
  76 000c 08BD     		pop	{r3, pc}
  77              	.L8:
  78 000e 00BF     		.align	2
  79              	.L7:
  80 0010 00000000 		.word	LCD_I2C_1_config
  81              		.cfi_endproc
ARM GAS  C:\Users\Dell\AppData\Local\Temp\ccZV9hHa.s 			page 7


  82              	.LFE81:
  83              		.size	LCD_I2C_1_noBacklight, .-LCD_I2C_1_noBacklight
  84              		.section	.text.LCD_I2C_1_backlight,"ax",%progbits
  85              		.align	2
  86              		.global	LCD_I2C_1_backlight
  87              		.thumb
  88              		.thumb_func
  89              		.type	LCD_I2C_1_backlight, %function
  90              	LCD_I2C_1_backlight:
  91              	.LFB82:
 251:Generated_Source\PSoC5/LCD_I2C_1_FUNCS.c **** 	LCD_I2C_1_config.backlightval = LCD_BACKLIGHT;
  92              		.loc 1 251 0
  93              		.cfi_startproc
  94              		@ args = 0, pretend = 0, frame = 0
  95              		@ frame_needed = 0, uses_anonymous_args = 0
  96 0000 08B5     		push	{r3, lr}
  97              		.cfi_def_cfa_offset 8
  98              		.cfi_offset 3, -8
  99              		.cfi_offset 14, -4
 252:Generated_Source\PSoC5/LCD_I2C_1_FUNCS.c **** 	LCD_I2C_1_expanderWrite(0);
 100              		.loc 1 252 0
 101 0002 0822     		movs	r2, #8
 102 0004 024B     		ldr	r3, .L11
 103 0006 DA71     		strb	r2, [r3, #7]
 253:Generated_Source\PSoC5/LCD_I2C_1_FUNCS.c **** }
 104              		.loc 1 253 0
 105 0008 0020     		movs	r0, #0
 106 000a FFF7FEFF 		bl	LCD_I2C_1_expanderWrite
 107              	.LVL4:
 108 000e 08BD     		pop	{r3, pc}
 109              	.L12:
 110              		.align	2
 111              	.L11:
 112 0010 00000000 		.word	LCD_I2C_1_config
 113              		.cfi_endproc
 114              	.LFE82:
 115              		.size	LCD_I2C_1_backlight, .-LCD_I2C_1_backlight
 116              		.section	.text.LCD_I2C_1_setBacklight,"ax",%progbits
 117              		.align	2
 118              		.global	LCD_I2C_1_setBacklight
 119              		.thumb
 120              		.thumb_func
 121              		.type	LCD_I2C_1_setBacklight, %function
 122              	LCD_I2C_1_setBacklight:
 123              	.LFB87:
 259:Generated_Source\PSoC5/LCD_I2C_1_FUNCS.c **** }
 260:Generated_Source\PSoC5/LCD_I2C_1_FUNCS.c **** 
 261:Generated_Source\PSoC5/LCD_I2C_1_FUNCS.c **** void LCD_I2C_1_write(uint8_t data)
 262:Generated_Source\PSoC5/LCD_I2C_1_FUNCS.c **** {
 263:Generated_Source\PSoC5/LCD_I2C_1_FUNCS.c **** 	LCD_I2C_1_send(data, RS);
 264:Generated_Source\PSoC5/LCD_I2C_1_FUNCS.c **** }
 265:Generated_Source\PSoC5/LCD_I2C_1_FUNCS.c **** 
 266:Generated_Source\PSoC5/LCD_I2C_1_FUNCS.c **** void LCD_I2C_1_command(uint8_t command)
 267:Generated_Source\PSoC5/LCD_I2C_1_FUNCS.c **** {
 268:Generated_Source\PSoC5/LCD_I2C_1_FUNCS.c ****     LCD_I2C_1_send(command, 0);
 269:Generated_Source\PSoC5/LCD_I2C_1_FUNCS.c **** }
 270:Generated_Source\PSoC5/LCD_I2C_1_FUNCS.c **** 
ARM GAS  C:\Users\Dell\AppData\Local\Temp\ccZV9hHa.s 			page 8


 271:Generated_Source\PSoC5/LCD_I2C_1_FUNCS.c **** void LCD_I2C_1_print(const char *word)
 272:Generated_Source\PSoC5/LCD_I2C_1_FUNCS.c **** {
 273:Generated_Source\PSoC5/LCD_I2C_1_FUNCS.c ****     for (uint32_t i = 0; word[i] != '\0'; ++i) {
 274:Generated_Source\PSoC5/LCD_I2C_1_FUNCS.c ****         LCD_I2C_1_write(word[i]);
 275:Generated_Source\PSoC5/LCD_I2C_1_FUNCS.c ****     }
 276:Generated_Source\PSoC5/LCD_I2C_1_FUNCS.c **** }
 277:Generated_Source\PSoC5/LCD_I2C_1_FUNCS.c **** 
 278:Generated_Source\PSoC5/LCD_I2C_1_FUNCS.c **** void LCD_I2C_1_setBacklight(bool backlight)
 279:Generated_Source\PSoC5/LCD_I2C_1_FUNCS.c **** {
 124              		.loc 1 279 0
 125              		.cfi_startproc
 126              		@ args = 0, pretend = 0, frame = 0
 127              		@ frame_needed = 0, uses_anonymous_args = 0
 128              	.LVL5:
 129 0000 08B5     		push	{r3, lr}
 130              		.cfi_def_cfa_offset 8
 131              		.cfi_offset 3, -8
 132              		.cfi_offset 14, -4
 280:Generated_Source\PSoC5/LCD_I2C_1_FUNCS.c ****     backlight ? LCD_I2C_1_backlight() : LCD_I2C_1_noBacklight();
 133              		.loc 1 280 0
 134 0002 10B1     		cbz	r0, .L14
 135              		.loc 1 280 0 is_stmt 0 discriminator 1
 136 0004 FFF7FEFF 		bl	LCD_I2C_1_backlight
 137              	.LVL6:
 138 0008 08BD     		pop	{r3, pc}
 139              	.LVL7:
 140              	.L14:
 141              		.loc 1 280 0 discriminator 2
 142 000a FFF7FEFF 		bl	LCD_I2C_1_noBacklight
 143              	.LVL8:
 144 000e 08BD     		pop	{r3, pc}
 145              		.cfi_endproc
 146              	.LFE87:
 147              		.size	LCD_I2C_1_setBacklight, .-LCD_I2C_1_setBacklight
 148              		.section	.text.LCD_I2C_1_pulseEnable,"ax",%progbits
 149              		.align	2
 150              		.global	LCD_I2C_1_pulseEnable
 151              		.thumb
 152              		.thumb_func
 153              		.type	LCD_I2C_1_pulseEnable, %function
 154              	LCD_I2C_1_pulseEnable:
 155              	.LFB89:
 281:Generated_Source\PSoC5/LCD_I2C_1_FUNCS.c **** }
 282:Generated_Source\PSoC5/LCD_I2C_1_FUNCS.c **** 
 283:Generated_Source\PSoC5/LCD_I2C_1_FUNCS.c **** void LCD_I2C_1_loadCustomCharacter(uint8_t char_num, uint8_t *rows)
 284:Generated_Source\PSoC5/LCD_I2C_1_FUNCS.c **** {
 285:Generated_Source\PSoC5/LCD_I2C_1_FUNCS.c ****     LCD_I2C_1_createChar(char_num, rows);
 286:Generated_Source\PSoC5/LCD_I2C_1_FUNCS.c **** }
 287:Generated_Source\PSoC5/LCD_I2C_1_FUNCS.c **** 
 288:Generated_Source\PSoC5/LCD_I2C_1_FUNCS.c **** void LCD_I2C_1_pulseEnable(uint8_t data)
 289:Generated_Source\PSoC5/LCD_I2C_1_FUNCS.c **** {
 156              		.loc 1 289 0 is_stmt 1
 157              		.cfi_startproc
 158              		@ args = 0, pretend = 0, frame = 0
 159              		@ frame_needed = 0, uses_anonymous_args = 0
 160              	.LVL9:
 161 0000 10B5     		push	{r4, lr}
ARM GAS  C:\Users\Dell\AppData\Local\Temp\ccZV9hHa.s 			page 9


 162              		.cfi_def_cfa_offset 8
 163              		.cfi_offset 4, -8
 164              		.cfi_offset 14, -4
 165 0002 0446     		mov	r4, r0
 290:Generated_Source\PSoC5/LCD_I2C_1_FUNCS.c ****     // EN high
 291:Generated_Source\PSoC5/LCD_I2C_1_FUNCS.c **** 	LCD_I2C_1_expanderWrite(data | EN);
 166              		.loc 1 291 0
 167 0004 40F00400 		orr	r0, r0, #4
 168              	.LVL10:
 169 0008 FFF7FEFF 		bl	LCD_I2C_1_expanderWrite
 170              	.LVL11:
 292:Generated_Source\PSoC5/LCD_I2C_1_FUNCS.c ****     // enable pulse must be >450ns
 293:Generated_Source\PSoC5/LCD_I2C_1_FUNCS.c **** 	CyDelayUs(1);
 171              		.loc 1 293 0
 172 000c 0120     		movs	r0, #1
 173 000e FFF7FEFF 		bl	CyDelayUs
 174              	.LVL12:
 294:Generated_Source\PSoC5/LCD_I2C_1_FUNCS.c ****     // En low
 295:Generated_Source\PSoC5/LCD_I2C_1_FUNCS.c **** 	LCD_I2C_1_expanderWrite(data & ~EN);
 175              		.loc 1 295 0
 176 0012 04F0FB00 		and	r0, r4, #251
 177 0016 FFF7FEFF 		bl	LCD_I2C_1_expanderWrite
 178              	.LVL13:
 296:Generated_Source\PSoC5/LCD_I2C_1_FUNCS.c ****     // commands need > 37us to settle
 297:Generated_Source\PSoC5/LCD_I2C_1_FUNCS.c **** 	CyDelayUs(50);
 179              		.loc 1 297 0
 180 001a 3220     		movs	r0, #50
 181 001c FFF7FEFF 		bl	CyDelayUs
 182              	.LVL14:
 183 0020 10BD     		pop	{r4, pc}
 184              		.cfi_endproc
 185              	.LFE89:
 186              		.size	LCD_I2C_1_pulseEnable, .-LCD_I2C_1_pulseEnable
 187 0022 00BF     		.section	.text.LCD_I2C_1_write4bits,"ax",%progbits
 188              		.align	2
 189              		.global	LCD_I2C_1_write4bits
 190              		.thumb
 191              		.thumb_func
 192              		.type	LCD_I2C_1_write4bits, %function
 193              	LCD_I2C_1_write4bits:
 194              	.LFB91:
 298:Generated_Source\PSoC5/LCD_I2C_1_FUNCS.c **** }
 299:Generated_Source\PSoC5/LCD_I2C_1_FUNCS.c **** 
 300:Generated_Source\PSoC5/LCD_I2C_1_FUNCS.c **** // write either command or data
 301:Generated_Source\PSoC5/LCD_I2C_1_FUNCS.c **** void LCD_I2C_1_send(uint8_t value, const uint8_t mode)
 302:Generated_Source\PSoC5/LCD_I2C_1_FUNCS.c **** {
 303:Generated_Source\PSoC5/LCD_I2C_1_FUNCS.c **** 	uint8_t highnib = value & 0xf0;
 304:Generated_Source\PSoC5/LCD_I2C_1_FUNCS.c **** 	uint8_t lownib = (value << 4) & 0xf0;
 305:Generated_Source\PSoC5/LCD_I2C_1_FUNCS.c **** 	LCD_I2C_1_write4bits(highnib | mode);
 306:Generated_Source\PSoC5/LCD_I2C_1_FUNCS.c **** 	LCD_I2C_1_write4bits(lownib | mode);
 307:Generated_Source\PSoC5/LCD_I2C_1_FUNCS.c **** }
 308:Generated_Source\PSoC5/LCD_I2C_1_FUNCS.c **** 
 309:Generated_Source\PSoC5/LCD_I2C_1_FUNCS.c **** void LCD_I2C_1_write4bits(const uint8_t data)
 310:Generated_Source\PSoC5/LCD_I2C_1_FUNCS.c **** {    
 195              		.loc 1 310 0
 196              		.cfi_startproc
 197              		@ args = 0, pretend = 0, frame = 0
ARM GAS  C:\Users\Dell\AppData\Local\Temp\ccZV9hHa.s 			page 10


 198              		@ frame_needed = 0, uses_anonymous_args = 0
 199              	.LVL15:
 200 0000 10B5     		push	{r4, lr}
 201              		.cfi_def_cfa_offset 8
 202              		.cfi_offset 4, -8
 203              		.cfi_offset 14, -4
 204 0002 0446     		mov	r4, r0
 311:Generated_Source\PSoC5/LCD_I2C_1_FUNCS.c **** 	LCD_I2C_1_expanderWrite(data);
 205              		.loc 1 311 0
 206 0004 FFF7FEFF 		bl	LCD_I2C_1_expanderWrite
 207              	.LVL16:
 312:Generated_Source\PSoC5/LCD_I2C_1_FUNCS.c **** 	LCD_I2C_1_pulseEnable(data);
 208              		.loc 1 312 0
 209 0008 2046     		mov	r0, r4
 210 000a FFF7FEFF 		bl	LCD_I2C_1_pulseEnable
 211              	.LVL17:
 212 000e 10BD     		pop	{r4, pc}
 213              		.cfi_endproc
 214              	.LFE91:
 215              		.size	LCD_I2C_1_write4bits, .-LCD_I2C_1_write4bits
 216              		.section	.text.LCD_I2C_1_send,"ax",%progbits
 217              		.align	2
 218              		.global	LCD_I2C_1_send
 219              		.thumb
 220              		.thumb_func
 221              		.type	LCD_I2C_1_send, %function
 222              	LCD_I2C_1_send:
 223              	.LFB90:
 302:Generated_Source\PSoC5/LCD_I2C_1_FUNCS.c **** 	uint8_t highnib = value & 0xf0;
 224              		.loc 1 302 0
 225              		.cfi_startproc
 226              		@ args = 0, pretend = 0, frame = 0
 227              		@ frame_needed = 0, uses_anonymous_args = 0
 228              	.LVL18:
 229 0000 38B5     		push	{r3, r4, r5, lr}
 230              		.cfi_def_cfa_offset 16
 231              		.cfi_offset 3, -16
 232              		.cfi_offset 4, -12
 233              		.cfi_offset 5, -8
 234              		.cfi_offset 14, -4
 235 0002 0D46     		mov	r5, r1
 303:Generated_Source\PSoC5/LCD_I2C_1_FUNCS.c **** 	uint8_t lownib = (value << 4) & 0xf0;
 236              		.loc 1 303 0
 237 0004 00F0F003 		and	r3, r0, #240
 238              	.LVL19:
 304:Generated_Source\PSoC5/LCD_I2C_1_FUNCS.c **** 	LCD_I2C_1_write4bits(highnib | mode);
 239              		.loc 1 304 0
 240 0008 0401     		lsls	r4, r0, #4
 241 000a E4B2     		uxtb	r4, r4
 242              	.LVL20:
 305:Generated_Source\PSoC5/LCD_I2C_1_FUNCS.c **** 	LCD_I2C_1_write4bits(lownib | mode);
 243              		.loc 1 305 0
 244 000c 43EA0100 		orr	r0, r3, r1
 245              	.LVL21:
 246 0010 FFF7FEFF 		bl	LCD_I2C_1_write4bits
 247              	.LVL22:
 306:Generated_Source\PSoC5/LCD_I2C_1_FUNCS.c **** }
ARM GAS  C:\Users\Dell\AppData\Local\Temp\ccZV9hHa.s 			page 11


 248              		.loc 1 306 0
 249 0014 44EA0500 		orr	r0, r4, r5
 250 0018 FFF7FEFF 		bl	LCD_I2C_1_write4bits
 251              	.LVL23:
 252 001c 38BD     		pop	{r3, r4, r5, pc}
 253              		.cfi_endproc
 254              	.LFE90:
 255              		.size	LCD_I2C_1_send, .-LCD_I2C_1_send
 256 001e 00BF     		.section	.text.LCD_I2C_1_write,"ax",%progbits
 257              		.align	2
 258              		.global	LCD_I2C_1_write
 259              		.thumb
 260              		.thumb_func
 261              		.type	LCD_I2C_1_write, %function
 262              	LCD_I2C_1_write:
 263              	.LFB84:
 262:Generated_Source\PSoC5/LCD_I2C_1_FUNCS.c **** 	LCD_I2C_1_send(data, RS);
 264              		.loc 1 262 0
 265              		.cfi_startproc
 266              		@ args = 0, pretend = 0, frame = 0
 267              		@ frame_needed = 0, uses_anonymous_args = 0
 268              	.LVL24:
 269 0000 08B5     		push	{r3, lr}
 270              		.cfi_def_cfa_offset 8
 271              		.cfi_offset 3, -8
 272              		.cfi_offset 14, -4
 263:Generated_Source\PSoC5/LCD_I2C_1_FUNCS.c **** }
 273              		.loc 1 263 0
 274 0002 0121     		movs	r1, #1
 275 0004 FFF7FEFF 		bl	LCD_I2C_1_send
 276              	.LVL25:
 277 0008 08BD     		pop	{r3, pc}
 278              		.cfi_endproc
 279              	.LFE84:
 280              		.size	LCD_I2C_1_write, .-LCD_I2C_1_write
 281 000a 00BF     		.section	.text.LCD_I2C_1_print,"ax",%progbits
 282              		.align	2
 283              		.global	LCD_I2C_1_print
 284              		.thumb
 285              		.thumb_func
 286              		.type	LCD_I2C_1_print, %function
 287              	LCD_I2C_1_print:
 288              	.LFB86:
 272:Generated_Source\PSoC5/LCD_I2C_1_FUNCS.c ****     for (uint32_t i = 0; word[i] != '\0'; ++i) {
 289              		.loc 1 272 0
 290              		.cfi_startproc
 291              		@ args = 0, pretend = 0, frame = 0
 292              		@ frame_needed = 0, uses_anonymous_args = 0
 293              	.LVL26:
 294 0000 38B5     		push	{r3, r4, r5, lr}
 295              		.cfi_def_cfa_offset 16
 296              		.cfi_offset 3, -16
 297              		.cfi_offset 4, -12
 298              		.cfi_offset 5, -8
 299              		.cfi_offset 14, -4
 300 0002 0546     		mov	r5, r0
 301              	.LVL27:
ARM GAS  C:\Users\Dell\AppData\Local\Temp\ccZV9hHa.s 			page 12


 302              	.LBB2:
 273:Generated_Source\PSoC5/LCD_I2C_1_FUNCS.c ****         LCD_I2C_1_write(word[i]);
 303              		.loc 1 273 0
 304 0004 0024     		movs	r4, #0
 305 0006 02E0     		b	.L26
 306              	.LVL28:
 307              	.L27:
 274:Generated_Source\PSoC5/LCD_I2C_1_FUNCS.c ****     }
 308              		.loc 1 274 0 discriminator 3
 309 0008 FFF7FEFF 		bl	LCD_I2C_1_write
 310              	.LVL29:
 273:Generated_Source\PSoC5/LCD_I2C_1_FUNCS.c ****         LCD_I2C_1_write(word[i]);
 311              		.loc 1 273 0 discriminator 3
 312 000c 0134     		adds	r4, r4, #1
 313              	.LVL30:
 314              	.L26:
 273:Generated_Source\PSoC5/LCD_I2C_1_FUNCS.c ****         LCD_I2C_1_write(word[i]);
 315              		.loc 1 273 0 is_stmt 0 discriminator 1
 316 000e 285D     		ldrb	r0, [r5, r4]	@ zero_extendqisi2
 317 0010 0028     		cmp	r0, #0
 318 0012 F9D1     		bne	.L27
 319              	.LBE2:
 276:Generated_Source\PSoC5/LCD_I2C_1_FUNCS.c **** 
 320              		.loc 1 276 0 is_stmt 1
 321 0014 38BD     		pop	{r3, r4, r5, pc}
 322              		.cfi_endproc
 323              	.LFE86:
 324              		.size	LCD_I2C_1_print, .-LCD_I2C_1_print
 325 0016 00BF     		.section	.text.LCD_I2C_1_command,"ax",%progbits
 326              		.align	2
 327              		.global	LCD_I2C_1_command
 328              		.thumb
 329              		.thumb_func
 330              		.type	LCD_I2C_1_command, %function
 331              	LCD_I2C_1_command:
 332              	.LFB85:
 267:Generated_Source\PSoC5/LCD_I2C_1_FUNCS.c ****     LCD_I2C_1_send(command, 0);
 333              		.loc 1 267 0
 334              		.cfi_startproc
 335              		@ args = 0, pretend = 0, frame = 0
 336              		@ frame_needed = 0, uses_anonymous_args = 0
 337              	.LVL31:
 338 0000 08B5     		push	{r3, lr}
 339              		.cfi_def_cfa_offset 8
 340              		.cfi_offset 3, -8
 341              		.cfi_offset 14, -4
 268:Generated_Source\PSoC5/LCD_I2C_1_FUNCS.c **** }
 342              		.loc 1 268 0
 343 0002 0021     		movs	r1, #0
 344 0004 FFF7FEFF 		bl	LCD_I2C_1_send
 345              	.LVL32:
 346 0008 08BD     		pop	{r3, pc}
 347              		.cfi_endproc
 348              	.LFE85:
 349              		.size	LCD_I2C_1_command, .-LCD_I2C_1_command
 350 000a 00BF     		.section	.text.LCD_I2C_1_clear,"ax",%progbits
 351              		.align	2
ARM GAS  C:\Users\Dell\AppData\Local\Temp\ccZV9hHa.s 			page 13


 352              		.global	LCD_I2C_1_clear
 353              		.thumb
 354              		.thumb_func
 355              		.type	LCD_I2C_1_clear, %function
 356              	LCD_I2C_1_clear:
 357              	.LFB65:
 134:Generated_Source\PSoC5/LCD_I2C_1_FUNCS.c **** 	LCD_I2C_1_command(LCD_CLEARDISPLAY);// clear display, set cursor position to zero
 358              		.loc 1 134 0
 359              		.cfi_startproc
 360              		@ args = 0, pretend = 0, frame = 0
 361              		@ frame_needed = 0, uses_anonymous_args = 0
 362 0000 08B5     		push	{r3, lr}
 363              		.cfi_def_cfa_offset 8
 364              		.cfi_offset 3, -8
 365              		.cfi_offset 14, -4
 135:Generated_Source\PSoC5/LCD_I2C_1_FUNCS.c **** 	CyDelay(2);  // this command takes a long time!
 366              		.loc 1 135 0
 367 0002 0120     		movs	r0, #1
 368 0004 FFF7FEFF 		bl	LCD_I2C_1_command
 369              	.LVL33:
 136:Generated_Source\PSoC5/LCD_I2C_1_FUNCS.c **** }
 370              		.loc 1 136 0
 371 0008 0220     		movs	r0, #2
 372 000a FFF7FEFF 		bl	CyDelay
 373              	.LVL34:
 374 000e 08BD     		pop	{r3, pc}
 375              		.cfi_endproc
 376              	.LFE65:
 377              		.size	LCD_I2C_1_clear, .-LCD_I2C_1_clear
 378              		.section	.text.LCD_I2C_1_home,"ax",%progbits
 379              		.align	2
 380              		.global	LCD_I2C_1_home
 381              		.thumb
 382              		.thumb_func
 383              		.type	LCD_I2C_1_home, %function
 384              	LCD_I2C_1_home:
 385              	.LFB66:
 140:Generated_Source\PSoC5/LCD_I2C_1_FUNCS.c ****     LCD_I2C_1_command(LCD_RETURNHOME);  // set cursor position to zero
 386              		.loc 1 140 0
 387              		.cfi_startproc
 388              		@ args = 0, pretend = 0, frame = 0
 389              		@ frame_needed = 0, uses_anonymous_args = 0
 390 0000 08B5     		push	{r3, lr}
 391              		.cfi_def_cfa_offset 8
 392              		.cfi_offset 3, -8
 393              		.cfi_offset 14, -4
 141:Generated_Source\PSoC5/LCD_I2C_1_FUNCS.c **** 	CyDelay(2);  // this command takes a long time!
 394              		.loc 1 141 0
 395 0002 0220     		movs	r0, #2
 396 0004 FFF7FEFF 		bl	LCD_I2C_1_command
 397              	.LVL35:
 142:Generated_Source\PSoC5/LCD_I2C_1_FUNCS.c **** }
 398              		.loc 1 142 0
 399 0008 0220     		movs	r0, #2
 400 000a FFF7FEFF 		bl	CyDelay
 401              	.LVL36:
 402 000e 08BD     		pop	{r3, pc}
ARM GAS  C:\Users\Dell\AppData\Local\Temp\ccZV9hHa.s 			page 14


 403              		.cfi_endproc
 404              	.LFE66:
 405              		.size	LCD_I2C_1_home, .-LCD_I2C_1_home
 406              		.section	.text.LCD_I2C_1_setCursor,"ax",%progbits
 407              		.align	2
 408              		.global	LCD_I2C_1_setCursor
 409              		.thumb
 410              		.thumb_func
 411              		.type	LCD_I2C_1_setCursor, %function
 412              	LCD_I2C_1_setCursor:
 413              	.LFB67:
 146:Generated_Source\PSoC5/LCD_I2C_1_FUNCS.c **** 	const uint8_t row_offsets[4] = { 0x00, 0x40, 0x14, 0x54 };
 414              		.loc 1 146 0
 415              		.cfi_startproc
 416              		@ args = 0, pretend = 0, frame = 8
 417              		@ frame_needed = 0, uses_anonymous_args = 0
 418              	.LVL37:
 419 0000 00B5     		push	{lr}
 420              		.cfi_def_cfa_offset 4
 421              		.cfi_offset 14, -4
 422 0002 83B0     		sub	sp, sp, #12
 423              		.cfi_def_cfa_offset 16
 424 0004 0346     		mov	r3, r0
 147:Generated_Source\PSoC5/LCD_I2C_1_FUNCS.c **** 	if (row > LCD_I2C_1_config.rows) {
 425              		.loc 1 147 0
 426 0006 0B4A     		ldr	r2, .L38
 427 0008 1068     		ldr	r0, [r2]	@ unaligned
 428              	.LVL38:
 429 000a 0190     		str	r0, [sp, #4]	@ unaligned
 148:Generated_Source\PSoC5/LCD_I2C_1_FUNCS.c **** 		row = LCD_I2C_1_config.rows - 1;    // we count rows starting w/0
 430              		.loc 1 148 0
 431 000c 0A4A     		ldr	r2, .L38+4
 432 000e 5279     		ldrb	r2, [r2, #5]	@ zero_extendqisi2
 433 0010 8A42     		cmp	r2, r1
 434 0012 01D2     		bcs	.L36
 149:Generated_Source\PSoC5/LCD_I2C_1_FUNCS.c **** 	}
 435              		.loc 1 149 0
 436 0014 511E     		subs	r1, r2, #1
 437              	.LVL39:
 438 0016 C9B2     		uxtb	r1, r1
 439              	.LVL40:
 440              	.L36:
 151:Generated_Source\PSoC5/LCD_I2C_1_FUNCS.c **** }
 441              		.loc 1 151 0
 442 0018 02AA     		add	r2, sp, #8
 443 001a 1144     		add	r1, r1, r2
 444              	.LVL41:
 445 001c 11F8040C 		ldrb	r0, [r1, #-4]	@ zero_extendqisi2
 446 0020 1844     		add	r0, r0, r3
 447 0022 60F07F00 		orn	r0, r0, #127
 448 0026 C0B2     		uxtb	r0, r0
 449 0028 FFF7FEFF 		bl	LCD_I2C_1_command
 450              	.LVL42:
 152:Generated_Source\PSoC5/LCD_I2C_1_FUNCS.c **** 
 451              		.loc 1 152 0
 452 002c 03B0     		add	sp, sp, #12
 453              		.cfi_def_cfa_offset 4
ARM GAS  C:\Users\Dell\AppData\Local\Temp\ccZV9hHa.s 			page 15


 454              		@ sp needed
 455 002e 5DF804FB 		ldr	pc, [sp], #4
 456              	.L39:
 457 0032 00BF     		.align	2
 458              	.L38:
 459 0034 00000000 		.word	.LANCHOR0
 460 0038 00000000 		.word	LCD_I2C_1_config
 461              		.cfi_endproc
 462              	.LFE67:
 463              		.size	LCD_I2C_1_setCursor, .-LCD_I2C_1_setCursor
 464              		.section	.text.LCD_I2C_1_noDisplay,"ax",%progbits
 465              		.align	2
 466              		.global	LCD_I2C_1_noDisplay
 467              		.thumb
 468              		.thumb_func
 469              		.type	LCD_I2C_1_noDisplay, %function
 470              	LCD_I2C_1_noDisplay:
 471              	.LFB68:
 156:Generated_Source\PSoC5/LCD_I2C_1_FUNCS.c ****     LCD_I2C_1_config.displaycontrol &= ~LCD_DISPLAYON;
 472              		.loc 1 156 0
 473              		.cfi_startproc
 474              		@ args = 0, pretend = 0, frame = 0
 475              		@ frame_needed = 0, uses_anonymous_args = 0
 476 0000 08B5     		push	{r3, lr}
 477              		.cfi_def_cfa_offset 8
 478              		.cfi_offset 3, -8
 479              		.cfi_offset 14, -4
 157:Generated_Source\PSoC5/LCD_I2C_1_FUNCS.c **** 	LCD_I2C_1_command(LCD_DISPLAYCONTROL | LCD_I2C_1_config.displaycontrol);
 480              		.loc 1 157 0
 481 0002 054B     		ldr	r3, .L42
 482 0004 9878     		ldrb	r0, [r3, #2]	@ zero_extendqisi2
 483 0006 00F0FB00 		and	r0, r0, #251
 484 000a 9870     		strb	r0, [r3, #2]
 158:Generated_Source\PSoC5/LCD_I2C_1_FUNCS.c **** }
 485              		.loc 1 158 0
 486 000c 40F00800 		orr	r0, r0, #8
 487 0010 FFF7FEFF 		bl	LCD_I2C_1_command
 488              	.LVL43:
 489 0014 08BD     		pop	{r3, pc}
 490              	.L43:
 491 0016 00BF     		.align	2
 492              	.L42:
 493 0018 00000000 		.word	LCD_I2C_1_config
 494              		.cfi_endproc
 495              	.LFE68:
 496              		.size	LCD_I2C_1_noDisplay, .-LCD_I2C_1_noDisplay
 497              		.section	.text.LCD_I2C_1_display,"ax",%progbits
 498              		.align	2
 499              		.global	LCD_I2C_1_display
 500              		.thumb
 501              		.thumb_func
 502              		.type	LCD_I2C_1_display, %function
 503              	LCD_I2C_1_display:
 504              	.LFB69:
 162:Generated_Source\PSoC5/LCD_I2C_1_FUNCS.c **** 	LCD_I2C_1_config.displaycontrol |= LCD_DISPLAYON;
 505              		.loc 1 162 0
 506              		.cfi_startproc
ARM GAS  C:\Users\Dell\AppData\Local\Temp\ccZV9hHa.s 			page 16


 507              		@ args = 0, pretend = 0, frame = 0
 508              		@ frame_needed = 0, uses_anonymous_args = 0
 509 0000 08B5     		push	{r3, lr}
 510              		.cfi_def_cfa_offset 8
 511              		.cfi_offset 3, -8
 512              		.cfi_offset 14, -4
 163:Generated_Source\PSoC5/LCD_I2C_1_FUNCS.c **** 	LCD_I2C_1_command(LCD_DISPLAYCONTROL | LCD_I2C_1_config.displaycontrol);
 513              		.loc 1 163 0
 514 0002 054B     		ldr	r3, .L46
 515 0004 9878     		ldrb	r0, [r3, #2]	@ zero_extendqisi2
 516 0006 40F00400 		orr	r0, r0, #4
 517 000a 9870     		strb	r0, [r3, #2]
 164:Generated_Source\PSoC5/LCD_I2C_1_FUNCS.c **** }
 518              		.loc 1 164 0
 519 000c 40F00800 		orr	r0, r0, #8
 520 0010 FFF7FEFF 		bl	LCD_I2C_1_command
 521              	.LVL44:
 522 0014 08BD     		pop	{r3, pc}
 523              	.L47:
 524 0016 00BF     		.align	2
 525              	.L46:
 526 0018 00000000 		.word	LCD_I2C_1_config
 527              		.cfi_endproc
 528              	.LFE69:
 529              		.size	LCD_I2C_1_display, .-LCD_I2C_1_display
 530              		.section	.text.LCD_I2C_1_noCursor,"ax",%progbits
 531              		.align	2
 532              		.global	LCD_I2C_1_noCursor
 533              		.thumb
 534              		.thumb_func
 535              		.type	LCD_I2C_1_noCursor, %function
 536              	LCD_I2C_1_noCursor:
 537              	.LFB70:
 169:Generated_Source\PSoC5/LCD_I2C_1_FUNCS.c ****     LCD_I2C_1_config.displaycontrol &= ~LCD_CURSORON;
 538              		.loc 1 169 0
 539              		.cfi_startproc
 540              		@ args = 0, pretend = 0, frame = 0
 541              		@ frame_needed = 0, uses_anonymous_args = 0
 542 0000 08B5     		push	{r3, lr}
 543              		.cfi_def_cfa_offset 8
 544              		.cfi_offset 3, -8
 545              		.cfi_offset 14, -4
 170:Generated_Source\PSoC5/LCD_I2C_1_FUNCS.c **** 	LCD_I2C_1_command(LCD_DISPLAYCONTROL | LCD_I2C_1_config.displaycontrol);
 546              		.loc 1 170 0
 547 0002 054B     		ldr	r3, .L50
 548 0004 9878     		ldrb	r0, [r3, #2]	@ zero_extendqisi2
 549 0006 00F0FD00 		and	r0, r0, #253
 550 000a 9870     		strb	r0, [r3, #2]
 171:Generated_Source\PSoC5/LCD_I2C_1_FUNCS.c **** }
 551              		.loc 1 171 0
 552 000c 40F00800 		orr	r0, r0, #8
 553 0010 FFF7FEFF 		bl	LCD_I2C_1_command
 554              	.LVL45:
 555 0014 08BD     		pop	{r3, pc}
 556              	.L51:
 557 0016 00BF     		.align	2
 558              	.L50:
ARM GAS  C:\Users\Dell\AppData\Local\Temp\ccZV9hHa.s 			page 17


 559 0018 00000000 		.word	LCD_I2C_1_config
 560              		.cfi_endproc
 561              	.LFE70:
 562              		.size	LCD_I2C_1_noCursor, .-LCD_I2C_1_noCursor
 563              		.section	.text.LCD_I2C_1_cursor,"ax",%progbits
 564              		.align	2
 565              		.global	LCD_I2C_1_cursor
 566              		.thumb
 567              		.thumb_func
 568              		.type	LCD_I2C_1_cursor, %function
 569              	LCD_I2C_1_cursor:
 570              	.LFB71:
 175:Generated_Source\PSoC5/LCD_I2C_1_FUNCS.c ****     LCD_I2C_1_config.displaycontrol |= LCD_CURSORON;
 571              		.loc 1 175 0
 572              		.cfi_startproc
 573              		@ args = 0, pretend = 0, frame = 0
 574              		@ frame_needed = 0, uses_anonymous_args = 0
 575 0000 08B5     		push	{r3, lr}
 576              		.cfi_def_cfa_offset 8
 577              		.cfi_offset 3, -8
 578              		.cfi_offset 14, -4
 176:Generated_Source\PSoC5/LCD_I2C_1_FUNCS.c **** 	LCD_I2C_1_command(LCD_DISPLAYCONTROL | LCD_I2C_1_config.displaycontrol);
 579              		.loc 1 176 0
 580 0002 054B     		ldr	r3, .L54
 581 0004 9878     		ldrb	r0, [r3, #2]	@ zero_extendqisi2
 582 0006 40F00200 		orr	r0, r0, #2
 583 000a 9870     		strb	r0, [r3, #2]
 177:Generated_Source\PSoC5/LCD_I2C_1_FUNCS.c **** }
 584              		.loc 1 177 0
 585 000c 40F00800 		orr	r0, r0, #8
 586 0010 FFF7FEFF 		bl	LCD_I2C_1_command
 587              	.LVL46:
 588 0014 08BD     		pop	{r3, pc}
 589              	.L55:
 590 0016 00BF     		.align	2
 591              	.L54:
 592 0018 00000000 		.word	LCD_I2C_1_config
 593              		.cfi_endproc
 594              	.LFE71:
 595              		.size	LCD_I2C_1_cursor, .-LCD_I2C_1_cursor
 596              		.section	.text.LCD_I2C_1_noBlink,"ax",%progbits
 597              		.align	2
 598              		.global	LCD_I2C_1_noBlink
 599              		.thumb
 600              		.thumb_func
 601              		.type	LCD_I2C_1_noBlink, %function
 602              	LCD_I2C_1_noBlink:
 603              	.LFB72:
 182:Generated_Source\PSoC5/LCD_I2C_1_FUNCS.c ****     LCD_I2C_1_config.displaycontrol &= ~LCD_BLINKON;
 604              		.loc 1 182 0
 605              		.cfi_startproc
 606              		@ args = 0, pretend = 0, frame = 0
 607              		@ frame_needed = 0, uses_anonymous_args = 0
 608 0000 08B5     		push	{r3, lr}
 609              		.cfi_def_cfa_offset 8
 610              		.cfi_offset 3, -8
 611              		.cfi_offset 14, -4
ARM GAS  C:\Users\Dell\AppData\Local\Temp\ccZV9hHa.s 			page 18


 183:Generated_Source\PSoC5/LCD_I2C_1_FUNCS.c **** 	LCD_I2C_1_command(LCD_DISPLAYCONTROL | LCD_I2C_1_config.displaycontrol);
 612              		.loc 1 183 0
 613 0002 054B     		ldr	r3, .L58
 614 0004 9878     		ldrb	r0, [r3, #2]	@ zero_extendqisi2
 615 0006 00F0FE00 		and	r0, r0, #254
 616 000a 9870     		strb	r0, [r3, #2]
 184:Generated_Source\PSoC5/LCD_I2C_1_FUNCS.c **** }
 617              		.loc 1 184 0
 618 000c 40F00800 		orr	r0, r0, #8
 619 0010 FFF7FEFF 		bl	LCD_I2C_1_command
 620              	.LVL47:
 621 0014 08BD     		pop	{r3, pc}
 622              	.L59:
 623 0016 00BF     		.align	2
 624              	.L58:
 625 0018 00000000 		.word	LCD_I2C_1_config
 626              		.cfi_endproc
 627              	.LFE72:
 628              		.size	LCD_I2C_1_noBlink, .-LCD_I2C_1_noBlink
 629              		.section	.text.LCD_I2C_1_blink,"ax",%progbits
 630              		.align	2
 631              		.global	LCD_I2C_1_blink
 632              		.thumb
 633              		.thumb_func
 634              		.type	LCD_I2C_1_blink, %function
 635              	LCD_I2C_1_blink:
 636              	.LFB73:
 188:Generated_Source\PSoC5/LCD_I2C_1_FUNCS.c **** 	LCD_I2C_1_config.displaycontrol |= LCD_BLINKON;
 637              		.loc 1 188 0
 638              		.cfi_startproc
 639              		@ args = 0, pretend = 0, frame = 0
 640              		@ frame_needed = 0, uses_anonymous_args = 0
 641 0000 08B5     		push	{r3, lr}
 642              		.cfi_def_cfa_offset 8
 643              		.cfi_offset 3, -8
 644              		.cfi_offset 14, -4
 189:Generated_Source\PSoC5/LCD_I2C_1_FUNCS.c **** 	LCD_I2C_1_command(LCD_DISPLAYCONTROL | LCD_I2C_1_config.displaycontrol);
 645              		.loc 1 189 0
 646 0002 054B     		ldr	r3, .L62
 647 0004 9878     		ldrb	r0, [r3, #2]	@ zero_extendqisi2
 648 0006 40F00100 		orr	r0, r0, #1
 649 000a 9870     		strb	r0, [r3, #2]
 190:Generated_Source\PSoC5/LCD_I2C_1_FUNCS.c **** }
 650              		.loc 1 190 0
 651 000c 40F00800 		orr	r0, r0, #8
 652 0010 FFF7FEFF 		bl	LCD_I2C_1_command
 653              	.LVL48:
 654 0014 08BD     		pop	{r3, pc}
 655              	.L63:
 656 0016 00BF     		.align	2
 657              	.L62:
 658 0018 00000000 		.word	LCD_I2C_1_config
 659              		.cfi_endproc
 660              	.LFE73:
 661              		.size	LCD_I2C_1_blink, .-LCD_I2C_1_blink
 662              		.section	.text.LCD_I2C_1_scrollDisplayLeft,"ax",%progbits
 663              		.align	2
ARM GAS  C:\Users\Dell\AppData\Local\Temp\ccZV9hHa.s 			page 19


 664              		.global	LCD_I2C_1_scrollDisplayLeft
 665              		.thumb
 666              		.thumb_func
 667              		.type	LCD_I2C_1_scrollDisplayLeft, %function
 668              	LCD_I2C_1_scrollDisplayLeft:
 669              	.LFB74:
 195:Generated_Source\PSoC5/LCD_I2C_1_FUNCS.c **** 	LCD_I2C_1_command(LCD_CURSORSHIFT | LCD_DISPLAYMOVE | LCD_MOVELEFT);
 670              		.loc 1 195 0
 671              		.cfi_startproc
 672              		@ args = 0, pretend = 0, frame = 0
 673              		@ frame_needed = 0, uses_anonymous_args = 0
 674 0000 08B5     		push	{r3, lr}
 675              		.cfi_def_cfa_offset 8
 676              		.cfi_offset 3, -8
 677              		.cfi_offset 14, -4
 196:Generated_Source\PSoC5/LCD_I2C_1_FUNCS.c **** }
 678              		.loc 1 196 0
 679 0002 1820     		movs	r0, #24
 680 0004 FFF7FEFF 		bl	LCD_I2C_1_command
 681              	.LVL49:
 682 0008 08BD     		pop	{r3, pc}
 683              		.cfi_endproc
 684              	.LFE74:
 685              		.size	LCD_I2C_1_scrollDisplayLeft, .-LCD_I2C_1_scrollDisplayLeft
 686 000a 00BF     		.section	.text.LCD_I2C_1_scrollDisplayRight,"ax",%progbits
 687              		.align	2
 688              		.global	LCD_I2C_1_scrollDisplayRight
 689              		.thumb
 690              		.thumb_func
 691              		.type	LCD_I2C_1_scrollDisplayRight, %function
 692              	LCD_I2C_1_scrollDisplayRight:
 693              	.LFB75:
 200:Generated_Source\PSoC5/LCD_I2C_1_FUNCS.c ****     LCD_I2C_1_command(LCD_CURSORSHIFT | LCD_DISPLAYMOVE | LCD_MOVERIGHT);
 694              		.loc 1 200 0
 695              		.cfi_startproc
 696              		@ args = 0, pretend = 0, frame = 0
 697              		@ frame_needed = 0, uses_anonymous_args = 0
 698 0000 08B5     		push	{r3, lr}
 699              		.cfi_def_cfa_offset 8
 700              		.cfi_offset 3, -8
 701              		.cfi_offset 14, -4
 201:Generated_Source\PSoC5/LCD_I2C_1_FUNCS.c **** }
 702              		.loc 1 201 0
 703 0002 1C20     		movs	r0, #28
 704 0004 FFF7FEFF 		bl	LCD_I2C_1_command
 705              	.LVL50:
 706 0008 08BD     		pop	{r3, pc}
 707              		.cfi_endproc
 708              	.LFE75:
 709              		.size	LCD_I2C_1_scrollDisplayRight, .-LCD_I2C_1_scrollDisplayRight
 710 000a 00BF     		.section	.text.LCD_I2C_1_leftToRight,"ax",%progbits
 711              		.align	2
 712              		.global	LCD_I2C_1_leftToRight
 713              		.thumb
 714              		.thumb_func
 715              		.type	LCD_I2C_1_leftToRight, %function
 716              	LCD_I2C_1_leftToRight:
ARM GAS  C:\Users\Dell\AppData\Local\Temp\ccZV9hHa.s 			page 20


 717              	.LFB76:
 206:Generated_Source\PSoC5/LCD_I2C_1_FUNCS.c **** 	LCD_I2C_1_config.displaymode |= LCD_ENTRYLEFT;
 718              		.loc 1 206 0
 719              		.cfi_startproc
 720              		@ args = 0, pretend = 0, frame = 0
 721              		@ frame_needed = 0, uses_anonymous_args = 0
 722 0000 08B5     		push	{r3, lr}
 723              		.cfi_def_cfa_offset 8
 724              		.cfi_offset 3, -8
 725              		.cfi_offset 14, -4
 207:Generated_Source\PSoC5/LCD_I2C_1_FUNCS.c **** 	LCD_I2C_1_command(LCD_ENTRYMODESET | LCD_I2C_1_config.displaymode);
 726              		.loc 1 207 0
 727 0002 054B     		ldr	r3, .L70
 728 0004 D878     		ldrb	r0, [r3, #3]	@ zero_extendqisi2
 729 0006 40F00200 		orr	r0, r0, #2
 730 000a D870     		strb	r0, [r3, #3]
 208:Generated_Source\PSoC5/LCD_I2C_1_FUNCS.c **** }
 731              		.loc 1 208 0
 732 000c 40F00400 		orr	r0, r0, #4
 733 0010 FFF7FEFF 		bl	LCD_I2C_1_command
 734              	.LVL51:
 735 0014 08BD     		pop	{r3, pc}
 736              	.L71:
 737 0016 00BF     		.align	2
 738              	.L70:
 739 0018 00000000 		.word	LCD_I2C_1_config
 740              		.cfi_endproc
 741              	.LFE76:
 742              		.size	LCD_I2C_1_leftToRight, .-LCD_I2C_1_leftToRight
 743              		.section	.text.LCD_I2C_1_rightToLeft,"ax",%progbits
 744              		.align	2
 745              		.global	LCD_I2C_1_rightToLeft
 746              		.thumb
 747              		.thumb_func
 748              		.type	LCD_I2C_1_rightToLeft, %function
 749              	LCD_I2C_1_rightToLeft:
 750              	.LFB77:
 213:Generated_Source\PSoC5/LCD_I2C_1_FUNCS.c **** 	LCD_I2C_1_config.displaymode &= ~LCD_ENTRYLEFT;
 751              		.loc 1 213 0
 752              		.cfi_startproc
 753              		@ args = 0, pretend = 0, frame = 0
 754              		@ frame_needed = 0, uses_anonymous_args = 0
 755 0000 08B5     		push	{r3, lr}
 756              		.cfi_def_cfa_offset 8
 757              		.cfi_offset 3, -8
 758              		.cfi_offset 14, -4
 214:Generated_Source\PSoC5/LCD_I2C_1_FUNCS.c **** 	LCD_I2C_1_command(LCD_ENTRYMODESET | LCD_I2C_1_config.displaymode);
 759              		.loc 1 214 0
 760 0002 054B     		ldr	r3, .L74
 761 0004 D878     		ldrb	r0, [r3, #3]	@ zero_extendqisi2
 762 0006 00F0FD00 		and	r0, r0, #253
 763 000a D870     		strb	r0, [r3, #3]
 215:Generated_Source\PSoC5/LCD_I2C_1_FUNCS.c **** }
 764              		.loc 1 215 0
 765 000c 40F00400 		orr	r0, r0, #4
 766 0010 FFF7FEFF 		bl	LCD_I2C_1_command
 767              	.LVL52:
ARM GAS  C:\Users\Dell\AppData\Local\Temp\ccZV9hHa.s 			page 21


 768 0014 08BD     		pop	{r3, pc}
 769              	.L75:
 770 0016 00BF     		.align	2
 771              	.L74:
 772 0018 00000000 		.word	LCD_I2C_1_config
 773              		.cfi_endproc
 774              	.LFE77:
 775              		.size	LCD_I2C_1_rightToLeft, .-LCD_I2C_1_rightToLeft
 776              		.section	.text.LCD_I2C_1_autoscroll,"ax",%progbits
 777              		.align	2
 778              		.global	LCD_I2C_1_autoscroll
 779              		.thumb
 780              		.thumb_func
 781              		.type	LCD_I2C_1_autoscroll, %function
 782              	LCD_I2C_1_autoscroll:
 783              	.LFB78:
 220:Generated_Source\PSoC5/LCD_I2C_1_FUNCS.c ****     LCD_I2C_1_config.displaymode |= LCD_ENTRYSHIFTINCREMENT;
 784              		.loc 1 220 0
 785              		.cfi_startproc
 786              		@ args = 0, pretend = 0, frame = 0
 787              		@ frame_needed = 0, uses_anonymous_args = 0
 788 0000 08B5     		push	{r3, lr}
 789              		.cfi_def_cfa_offset 8
 790              		.cfi_offset 3, -8
 791              		.cfi_offset 14, -4
 221:Generated_Source\PSoC5/LCD_I2C_1_FUNCS.c **** 	LCD_I2C_1_command(LCD_ENTRYMODESET | LCD_I2C_1_config.displaymode);
 792              		.loc 1 221 0
 793 0002 054B     		ldr	r3, .L78
 794 0004 D878     		ldrb	r0, [r3, #3]	@ zero_extendqisi2
 795 0006 40F00100 		orr	r0, r0, #1
 796 000a D870     		strb	r0, [r3, #3]
 222:Generated_Source\PSoC5/LCD_I2C_1_FUNCS.c **** }
 797              		.loc 1 222 0
 798 000c 40F00400 		orr	r0, r0, #4
 799 0010 FFF7FEFF 		bl	LCD_I2C_1_command
 800              	.LVL53:
 801 0014 08BD     		pop	{r3, pc}
 802              	.L79:
 803 0016 00BF     		.align	2
 804              	.L78:
 805 0018 00000000 		.word	LCD_I2C_1_config
 806              		.cfi_endproc
 807              	.LFE78:
 808              		.size	LCD_I2C_1_autoscroll, .-LCD_I2C_1_autoscroll
 809              		.section	.text.LCD_I2C_1_noAutoscroll,"ax",%progbits
 810              		.align	2
 811              		.global	LCD_I2C_1_noAutoscroll
 812              		.thumb
 813              		.thumb_func
 814              		.type	LCD_I2C_1_noAutoscroll, %function
 815              	LCD_I2C_1_noAutoscroll:
 816              	.LFB79:
 227:Generated_Source\PSoC5/LCD_I2C_1_FUNCS.c ****     LCD_I2C_1_config.displaymode &= ~LCD_ENTRYSHIFTINCREMENT;
 817              		.loc 1 227 0
 818              		.cfi_startproc
 819              		@ args = 0, pretend = 0, frame = 0
 820              		@ frame_needed = 0, uses_anonymous_args = 0
ARM GAS  C:\Users\Dell\AppData\Local\Temp\ccZV9hHa.s 			page 22


 821 0000 08B5     		push	{r3, lr}
 822              		.cfi_def_cfa_offset 8
 823              		.cfi_offset 3, -8
 824              		.cfi_offset 14, -4
 228:Generated_Source\PSoC5/LCD_I2C_1_FUNCS.c **** 	LCD_I2C_1_command(LCD_ENTRYMODESET | LCD_I2C_1_config.displaymode);
 825              		.loc 1 228 0
 826 0002 054B     		ldr	r3, .L82
 827 0004 D878     		ldrb	r0, [r3, #3]	@ zero_extendqisi2
 828 0006 00F0FE00 		and	r0, r0, #254
 829 000a D870     		strb	r0, [r3, #3]
 229:Generated_Source\PSoC5/LCD_I2C_1_FUNCS.c **** }
 830              		.loc 1 229 0
 831 000c 40F00400 		orr	r0, r0, #4
 832 0010 FFF7FEFF 		bl	LCD_I2C_1_command
 833              	.LVL54:
 834 0014 08BD     		pop	{r3, pc}
 835              	.L83:
 836 0016 00BF     		.align	2
 837              	.L82:
 838 0018 00000000 		.word	LCD_I2C_1_config
 839              		.cfi_endproc
 840              	.LFE79:
 841              		.size	LCD_I2C_1_noAutoscroll, .-LCD_I2C_1_noAutoscroll
 842              		.section	.text.LCD_I2C_1_createChar,"ax",%progbits
 843              		.align	2
 844              		.global	LCD_I2C_1_createChar
 845              		.thumb
 846              		.thumb_func
 847              		.type	LCD_I2C_1_createChar, %function
 848              	LCD_I2C_1_createChar:
 849              	.LFB80:
 235:Generated_Source\PSoC5/LCD_I2C_1_FUNCS.c ****     location &= 0x7; // we only have 8 locations 0-7
 850              		.loc 1 235 0
 851              		.cfi_startproc
 852              		@ args = 0, pretend = 0, frame = 0
 853              		@ frame_needed = 0, uses_anonymous_args = 0
 854              	.LVL55:
 855 0000 38B5     		push	{r3, r4, r5, lr}
 856              		.cfi_def_cfa_offset 16
 857              		.cfi_offset 3, -16
 858              		.cfi_offset 4, -12
 859              		.cfi_offset 5, -8
 860              		.cfi_offset 14, -4
 861 0002 0D46     		mov	r5, r1
 236:Generated_Source\PSoC5/LCD_I2C_1_FUNCS.c **** 	LCD_I2C_1_command(LCD_SETCGRAMADDR | (location << 3));
 862              		.loc 1 236 0
 863 0004 00F00700 		and	r0, r0, #7
 864              	.LVL56:
 237:Generated_Source\PSoC5/LCD_I2C_1_FUNCS.c **** 	for (uint32_t i = 0; i < 8; i++) {
 865              		.loc 1 237 0
 866 0008 C000     		lsls	r0, r0, #3
 867              	.LVL57:
 868 000a 40F04000 		orr	r0, r0, #64
 869 000e FFF7FEFF 		bl	LCD_I2C_1_command
 870              	.LVL58:
 871              	.LBB3:
 238:Generated_Source\PSoC5/LCD_I2C_1_FUNCS.c **** 		LCD_I2C_1_write(charmap[i]);
ARM GAS  C:\Users\Dell\AppData\Local\Temp\ccZV9hHa.s 			page 23


 872              		.loc 1 238 0
 873 0012 0024     		movs	r4, #0
 874 0014 03E0     		b	.L85
 875              	.LVL59:
 876              	.L86:
 239:Generated_Source\PSoC5/LCD_I2C_1_FUNCS.c **** 	}
 877              		.loc 1 239 0 discriminator 3
 878 0016 285D     		ldrb	r0, [r5, r4]	@ zero_extendqisi2
 879 0018 FFF7FEFF 		bl	LCD_I2C_1_write
 880              	.LVL60:
 238:Generated_Source\PSoC5/LCD_I2C_1_FUNCS.c **** 		LCD_I2C_1_write(charmap[i]);
 881              		.loc 1 238 0 discriminator 3
 882 001c 0134     		adds	r4, r4, #1
 883              	.LVL61:
 884              	.L85:
 238:Generated_Source\PSoC5/LCD_I2C_1_FUNCS.c **** 		LCD_I2C_1_write(charmap[i]);
 885              		.loc 1 238 0 is_stmt 0 discriminator 1
 886 001e 072C     		cmp	r4, #7
 887 0020 F9D9     		bls	.L86
 888              	.LBE3:
 241:Generated_Source\PSoC5/LCD_I2C_1_FUNCS.c **** 
 889              		.loc 1 241 0 is_stmt 1
 890 0022 38BD     		pop	{r3, r4, r5, pc}
 891              		.cfi_endproc
 892              	.LFE80:
 893              		.size	LCD_I2C_1_createChar, .-LCD_I2C_1_createChar
 894              		.section	.text.LCD_I2C_1_loadCustomCharacter,"ax",%progbits
 895              		.align	2
 896              		.global	LCD_I2C_1_loadCustomCharacter
 897              		.thumb
 898              		.thumb_func
 899              		.type	LCD_I2C_1_loadCustomCharacter, %function
 900              	LCD_I2C_1_loadCustomCharacter:
 901              	.LFB88:
 284:Generated_Source\PSoC5/LCD_I2C_1_FUNCS.c ****     LCD_I2C_1_createChar(char_num, rows);
 902              		.loc 1 284 0
 903              		.cfi_startproc
 904              		@ args = 0, pretend = 0, frame = 0
 905              		@ frame_needed = 0, uses_anonymous_args = 0
 906              	.LVL62:
 907 0000 08B5     		push	{r3, lr}
 908              		.cfi_def_cfa_offset 8
 909              		.cfi_offset 3, -8
 910              		.cfi_offset 14, -4
 285:Generated_Source\PSoC5/LCD_I2C_1_FUNCS.c **** }
 911              		.loc 1 285 0
 912 0002 FFF7FEFF 		bl	LCD_I2C_1_createChar
 913              	.LVL63:
 914 0006 08BD     		pop	{r3, pc}
 915              		.cfi_endproc
 916              	.LFE88:
 917              		.size	LCD_I2C_1_loadCustomCharacter, .-LCD_I2C_1_loadCustomCharacter
 918              		.section	.text.LCD_I2C_1_begin,"ax",%progbits
 919              		.align	2
 920              		.global	LCD_I2C_1_begin
 921              		.thumb
 922              		.thumb_func
ARM GAS  C:\Users\Dell\AppData\Local\Temp\ccZV9hHa.s 			page 24


 923              		.type	LCD_I2C_1_begin, %function
 924              	LCD_I2C_1_begin:
 925              	.LFB64:
  88:Generated_Source\PSoC5/LCD_I2C_1_FUNCS.c **** 	// Now we pull both RS and R/W low to begin commands
 926              		.loc 1 88 0
 927              		.cfi_startproc
 928              		@ args = 0, pretend = 0, frame = 0
 929              		@ frame_needed = 0, uses_anonymous_args = 0
 930 0000 10B5     		push	{r4, lr}
 931              		.cfi_def_cfa_offset 8
 932              		.cfi_offset 4, -8
 933              		.cfi_offset 14, -4
  91:Generated_Source\PSoC5/LCD_I2C_1_FUNCS.c **** 	CyDelay(1000);
 934              		.loc 1 91 0
 935 0002 194C     		ldr	r4, .L92
 936 0004 E079     		ldrb	r0, [r4, #7]	@ zero_extendqisi2
 937 0006 FFF7FEFF 		bl	LCD_I2C_1_expanderWrite
 938              	.LVL64:
  92:Generated_Source\PSoC5/LCD_I2C_1_FUNCS.c **** 
 939              		.loc 1 92 0
 940 000a 4FF47A70 		mov	r0, #1000
 941 000e FFF7FEFF 		bl	CyDelay
 942              	.LVL65:
  99:Generated_Source\PSoC5/LCD_I2C_1_FUNCS.c **** 	CyDelayUs(4500); // wait min 4.1ms
 943              		.loc 1 99 0
 944 0012 3020     		movs	r0, #48
 945 0014 FFF7FEFF 		bl	LCD_I2C_1_write4bits
 946              	.LVL66:
 100:Generated_Source\PSoC5/LCD_I2C_1_FUNCS.c **** 
 947              		.loc 1 100 0
 948 0018 41F29410 		movw	r0, #4500
 949 001c FFF7FEFF 		bl	CyDelayUs
 950              	.LVL67:
 103:Generated_Source\PSoC5/LCD_I2C_1_FUNCS.c **** 	CyDelayUs(4500); // wait min 4.1ms
 951              		.loc 1 103 0
 952 0020 3020     		movs	r0, #48
 953 0022 FFF7FEFF 		bl	LCD_I2C_1_write4bits
 954              	.LVL68:
 104:Generated_Source\PSoC5/LCD_I2C_1_FUNCS.c **** 
 955              		.loc 1 104 0
 956 0026 41F29410 		movw	r0, #4500
 957 002a FFF7FEFF 		bl	CyDelayUs
 958              	.LVL69:
 107:Generated_Source\PSoC5/LCD_I2C_1_FUNCS.c **** 	CyDelayUs(150);
 959              		.loc 1 107 0
 960 002e 3020     		movs	r0, #48
 961 0030 FFF7FEFF 		bl	LCD_I2C_1_write4bits
 962              	.LVL70:
 108:Generated_Source\PSoC5/LCD_I2C_1_FUNCS.c **** 
 963              		.loc 1 108 0
 964 0034 9620     		movs	r0, #150
 965 0036 FFF7FEFF 		bl	CyDelayUs
 966              	.LVL71:
 111:Generated_Source\PSoC5/LCD_I2C_1_FUNCS.c **** 
 967              		.loc 1 111 0
 968 003a 2020     		movs	r0, #32
 969 003c FFF7FEFF 		bl	LCD_I2C_1_write4bits
ARM GAS  C:\Users\Dell\AppData\Local\Temp\ccZV9hHa.s 			page 25


 970              	.LVL72:
 114:Generated_Source\PSoC5/LCD_I2C_1_FUNCS.c **** 	
 971              		.loc 1 114 0
 972 0040 6078     		ldrb	r0, [r4, #1]	@ zero_extendqisi2
 973 0042 40F02000 		orr	r0, r0, #32
 974 0046 FFF7FEFF 		bl	LCD_I2C_1_command
 975              	.LVL73:
 117:Generated_Source\PSoC5/LCD_I2C_1_FUNCS.c **** 	LCD_I2C_1_display();
 976              		.loc 1 117 0
 977 004a 0423     		movs	r3, #4
 978 004c A370     		strb	r3, [r4, #2]
 118:Generated_Source\PSoC5/LCD_I2C_1_FUNCS.c **** 	
 979              		.loc 1 118 0
 980 004e FFF7FEFF 		bl	LCD_I2C_1_display
 981              	.LVL74:
 121:Generated_Source\PSoC5/LCD_I2C_1_FUNCS.c **** 	
 982              		.loc 1 121 0
 983 0052 FFF7FEFF 		bl	LCD_I2C_1_clear
 984              	.LVL75:
 124:Generated_Source\PSoC5/LCD_I2C_1_FUNCS.c **** 	
 985              		.loc 1 124 0
 986 0056 0223     		movs	r3, #2
 987 0058 E370     		strb	r3, [r4, #3]
 127:Generated_Source\PSoC5/LCD_I2C_1_FUNCS.c **** 	
 988              		.loc 1 127 0
 989 005a 0620     		movs	r0, #6
 990 005c FFF7FEFF 		bl	LCD_I2C_1_command
 991              	.LVL76:
 129:Generated_Source\PSoC5/LCD_I2C_1_FUNCS.c **** }
 992              		.loc 1 129 0
 993 0060 FFF7FEFF 		bl	LCD_I2C_1_home
 994              	.LVL77:
 995 0064 10BD     		pop	{r4, pc}
 996              	.L93:
 997 0066 00BF     		.align	2
 998              	.L92:
 999 0068 00000000 		.word	LCD_I2C_1_config
 1000              		.cfi_endproc
 1001              	.LFE64:
 1002              		.size	LCD_I2C_1_begin, .-LCD_I2C_1_begin
 1003              		.section	.text.LCD_I2C_1_start,"ax",%progbits
 1004              		.align	2
 1005              		.global	LCD_I2C_1_start
 1006              		.thumb
 1007              		.thumb_func
 1008              		.type	LCD_I2C_1_start, %function
 1009              	LCD_I2C_1_start:
 1010              	.LFB63:
  62:Generated_Source\PSoC5/LCD_I2C_1_FUNCS.c ****     LCD_I2C_1_config.addr = 63;
 1011              		.loc 1 62 0
 1012              		.cfi_startproc
 1013              		@ args = 0, pretend = 0, frame = 0
 1014              		@ frame_needed = 0, uses_anonymous_args = 0
 1015 0000 08B5     		push	{r3, lr}
 1016              		.cfi_def_cfa_offset 8
 1017              		.cfi_offset 3, -8
 1018              		.cfi_offset 14, -4
ARM GAS  C:\Users\Dell\AppData\Local\Temp\ccZV9hHa.s 			page 26


  63:Generated_Source\PSoC5/LCD_I2C_1_FUNCS.c ****     LCD_I2C_1_config.cols = 16;
 1019              		.loc 1 63 0
 1020 0002 094B     		ldr	r3, .L96
 1021 0004 3F22     		movs	r2, #63
 1022 0006 1A70     		strb	r2, [r3]
  64:Generated_Source\PSoC5/LCD_I2C_1_FUNCS.c ****     LCD_I2C_1_config.rows = 2;
 1023              		.loc 1 64 0
 1024 0008 1022     		movs	r2, #16
 1025 000a 1A71     		strb	r2, [r3, #4]
  65:Generated_Source\PSoC5/LCD_I2C_1_FUNCS.c ****     LCD_I2C_1_config.charsize = 0;
 1026              		.loc 1 65 0
 1027 000c 0222     		movs	r2, #2
 1028 000e 5A71     		strb	r2, [r3, #5]
  66:Generated_Source\PSoC5/LCD_I2C_1_FUNCS.c ****     LCD_I2C_1_config.backlightval = LCD_BACKLIGHT;
 1029              		.loc 1 66 0
 1030 0010 0022     		movs	r2, #0
 1031 0012 9A71     		strb	r2, [r3, #6]
  67:Generated_Source\PSoC5/LCD_I2C_1_FUNCS.c **** 	LCD_I2C_1_config.displayfunction = LCD_4BITMODE | LCD_1LINE | LCD_5x8DOTS;
 1032              		.loc 1 67 0
 1033 0014 0822     		movs	r2, #8
 1034 0016 DA71     		strb	r2, [r3, #7]
  71:Generated_Source\PSoC5/LCD_I2C_1_FUNCS.c **** 	}
 1035              		.loc 1 71 0
 1036 0018 5A70     		strb	r2, [r3, #1]
  82:Generated_Source\PSoC5/LCD_I2C_1_FUNCS.c ****     
 1037              		.loc 1 82 0
 1038 001a 3220     		movs	r0, #50
 1039 001c FFF7FEFF 		bl	CyDelay
 1040              	.LVL78:
  84:Generated_Source\PSoC5/LCD_I2C_1_FUNCS.c **** }
 1041              		.loc 1 84 0
 1042 0020 FFF7FEFF 		bl	LCD_I2C_1_begin
 1043              	.LVL79:
 1044 0024 08BD     		pop	{r3, pc}
 1045              	.L97:
 1046 0026 00BF     		.align	2
 1047              	.L96:
 1048 0028 00000000 		.word	LCD_I2C_1_config
 1049              		.cfi_endproc
 1050              	.LFE63:
 1051              		.size	LCD_I2C_1_start, .-LCD_I2C_1_start
 1052              		.comm	LCD_I2C_1_config,8,4
 1053              		.section	.rodata
 1054              		.align	2
 1055              		.set	.LANCHOR0,. + 0
 1056              	.LC0:
 1057 0000 00       		.byte	0
 1058 0001 40       		.byte	64
 1059 0002 14       		.byte	20
 1060 0003 54       		.byte	84
 1061              		.text
 1062              	.Letext0:
 1063              		.file 2 "c:\\program files (x86)\\cypress\\psoc creator\\4.4\\psoc creator\\import\\gnu\\arm\\5.4.
 1064              		.file 3 "c:\\program files (x86)\\cypress\\psoc creator\\4.4\\psoc creator\\import\\gnu\\arm\\5.4.
 1065              		.file 4 "Generated_Source\\PSoC5\\LCD_I2C_1_FUNCS.h"
 1066              		.file 5 "Generated_Source\\PSoC5/core_cm3.h"
 1067              		.file 6 "Generated_Source\\PSoC5\\LCD_I2C_1_LL_I2C.h"
ARM GAS  C:\Users\Dell\AppData\Local\Temp\ccZV9hHa.s 			page 27


 1068              		.file 7 "Generated_Source\\PSoC5\\CyLib.h"