ARM GAS  C:\Users\Dell\AppData\Local\Temp\ccDAbiEk.s 			page 1


   1              		.syntax unified
   2              		.cpu cortex-m3
   3              		.fpu softvfp
   4              		.eabi_attribute 20, 1
   5              		.eabi_attribute 21, 1
   6              		.eabi_attribute 23, 3
   7              		.eabi_attribute 24, 1
   8              		.eabi_attribute 25, 1
   9              		.eabi_attribute 26, 1
  10              		.eabi_attribute 30, 1
  11              		.eabi_attribute 34, 1
  12              		.eabi_attribute 18, 4
  13              		.thumb
  14              		.syntax unified
  15              		.file	"LiquidCrystal_I2C.c"
  16              		.text
  17              	.Ltext0:
  18              		.cfi_sections	.debug_frame
  19              		.section	.text.LiquidCrystal_I2C_init,"ax",%progbits
  20              		.align	2
  21              		.global	LiquidCrystal_I2C_init
  22              		.thumb
  23              		.thumb_func
  24              		.type	LiquidCrystal_I2C_init, %function
  25              	LiquidCrystal_I2C_init:
  26              	.LFB63:
  27              		.file 1 "LiquidCrystal_I2C.c"
   1:LiquidCrystal_I2C.c **** #include "LiquidCrystal_I2C.h"
   2:LiquidCrystal_I2C.c **** 
   3:LiquidCrystal_I2C.c **** 
   4:LiquidCrystal_I2C.c **** //Portado para PSoC por Šarūnas Straigis
   5:LiquidCrystal_I2C.c **** //http://www.element14.com/community/people/sarunaszx/blog
   6:LiquidCrystal_I2C.c **** //Portado y modificado para PSoC 4 y PSoC 5LP por Brayan Bermudez y Carlos Diaz
   7:LiquidCrystal_I2C.c **** //http://digitalprojectsudistrital.blogspot.com.co/
   8:LiquidCrystal_I2C.c **** 
   9:LiquidCrystal_I2C.c **** 
  10:LiquidCrystal_I2C.c **** 
  11:LiquidCrystal_I2C.c **** // When the display powers up, it is configured as follows:
  12:LiquidCrystal_I2C.c **** //
  13:LiquidCrystal_I2C.c **** // 1. Display clear
  14:LiquidCrystal_I2C.c **** // 2. Function set: 
  15:LiquidCrystal_I2C.c **** //    DL = 1; 8-bit interface data 
  16:LiquidCrystal_I2C.c **** //    N = 0; 1-line display 
  17:LiquidCrystal_I2C.c **** //    F = 0; 5x8 dot character font 
  18:LiquidCrystal_I2C.c **** // 3. Display on/off control: 
  19:LiquidCrystal_I2C.c **** //    D = 0; Display off 
  20:LiquidCrystal_I2C.c **** //    C = 0; Cursor off 
  21:LiquidCrystal_I2C.c **** //    B = 0; Blinking off 
  22:LiquidCrystal_I2C.c **** // 4. Entry mode set: 
  23:LiquidCrystal_I2C.c **** //    I/D = 1; Increment by 1
  24:LiquidCrystal_I2C.c **** //    S = 0; No shift 
  25:LiquidCrystal_I2C.c **** //
  26:LiquidCrystal_I2C.c **** // Note, however, that resetting the Arduino doesn't reset the LCD, so we
  27:LiquidCrystal_I2C.c **** // can't assume that its in that state when a sketch starts (and the
  28:LiquidCrystal_I2C.c **** // LiquidCrystal constructor is called).
  29:LiquidCrystal_I2C.c **** 
  30:LiquidCrystal_I2C.c **** uint8_t _addr;
ARM GAS  C:\Users\Dell\AppData\Local\Temp\ccDAbiEk.s 			page 2


  31:LiquidCrystal_I2C.c **** uint8_t _displayfunction;
  32:LiquidCrystal_I2C.c **** uint8_t _displaycontrol;
  33:LiquidCrystal_I2C.c **** uint8_t _displaymode;
  34:LiquidCrystal_I2C.c **** uint8_t _cols;
  35:LiquidCrystal_I2C.c **** uint8_t _rows;
  36:LiquidCrystal_I2C.c **** uint8_t _charsize;
  37:LiquidCrystal_I2C.c **** uint8_t _backlightval;
  38:LiquidCrystal_I2C.c **** 
  39:LiquidCrystal_I2C.c **** void LiquidCrystal_I2C_init(uint8_t lcd_addr, uint8_t lcd_cols, uint8_t lcd_rows, uint8_t charsize)
  40:LiquidCrystal_I2C.c **** {
  28              		.loc 1 40 0
  29              		.cfi_startproc
  30              		@ args = 0, pretend = 0, frame = 0
  31              		@ frame_needed = 0, uses_anonymous_args = 0
  32              		@ link register save eliminated.
  33              	.LVL0:
  34 0000 10B4     		push	{r4}
  35              		.cfi_def_cfa_offset 4
  36              		.cfi_offset 4, -4
  41:LiquidCrystal_I2C.c **** 	_addr = lcd_addr;
  37              		.loc 1 41 0
  38 0002 064C     		ldr	r4, .L3
  39 0004 2070     		strb	r0, [r4]
  42:LiquidCrystal_I2C.c **** 	_cols = lcd_cols;
  40              		.loc 1 42 0
  41 0006 0648     		ldr	r0, .L3+4
  42              	.LVL1:
  43 0008 0170     		strb	r1, [r0]
  43:LiquidCrystal_I2C.c **** 	_rows = lcd_rows;
  44              		.loc 1 43 0
  45 000a 0649     		ldr	r1, .L3+8
  46              	.LVL2:
  47 000c 0A70     		strb	r2, [r1]
  44:LiquidCrystal_I2C.c **** 	_charsize = charsize;
  48              		.loc 1 44 0
  49 000e 064A     		ldr	r2, .L3+12
  50              	.LVL3:
  51 0010 1370     		strb	r3, [r2]
  45:LiquidCrystal_I2C.c **** 	_backlightval = LCD_BACKLIGHT;
  52              		.loc 1 45 0
  53 0012 0822     		movs	r2, #8
  54 0014 054B     		ldr	r3, .L3+16
  55              	.LVL4:
  56 0016 1A70     		strb	r2, [r3]
  46:LiquidCrystal_I2C.c ****     
  47:LiquidCrystal_I2C.c ****     return;
  48:LiquidCrystal_I2C.c **** }
  57              		.loc 1 48 0
  58 0018 10BC     		pop	{r4}
  59              		.cfi_restore 4
  60              		.cfi_def_cfa_offset 0
  61 001a 7047     		bx	lr
  62              	.L4:
  63              		.align	2
  64              	.L3:
  65 001c 00000000 		.word	_addr
  66 0020 00000000 		.word	_cols
ARM GAS  C:\Users\Dell\AppData\Local\Temp\ccDAbiEk.s 			page 3


  67 0024 00000000 		.word	_rows
  68 0028 00000000 		.word	_charsize
  69 002c 00000000 		.word	_backlightval
  70              		.cfi_endproc
  71              	.LFE63:
  72              		.size	LiquidCrystal_I2C_init, .-LiquidCrystal_I2C_init
  73              		.section	.text.PreConfigurarLCD,"ax",%progbits
  74              		.align	2
  75              		.global	PreConfigurarLCD
  76              		.thumb
  77              		.thumb_func
  78              		.type	PreConfigurarLCD, %function
  79              	PreConfigurarLCD:
  80              	.LFB64:
  49:LiquidCrystal_I2C.c **** 
  50:LiquidCrystal_I2C.c **** void PreConfigurarLCD(void)
  51:LiquidCrystal_I2C.c **** {
  81              		.loc 1 51 0
  82              		.cfi_startproc
  83              		@ args = 0, pretend = 0, frame = 0
  84              		@ frame_needed = 0, uses_anonymous_args = 0
  85              		@ link register save eliminated.
  52:LiquidCrystal_I2C.c **** 	_cols = 16;
  86              		.loc 1 52 0
  87 0000 1022     		movs	r2, #16
  88 0002 064B     		ldr	r3, .L6
  89 0004 1A70     		strb	r2, [r3]
  53:LiquidCrystal_I2C.c **** 	_rows = 2;
  90              		.loc 1 53 0
  91 0006 0222     		movs	r2, #2
  92 0008 054B     		ldr	r3, .L6+4
  93 000a 1A70     		strb	r2, [r3]
  54:LiquidCrystal_I2C.c **** 	_charsize = 0;
  94              		.loc 1 54 0
  95 000c 0022     		movs	r2, #0
  96 000e 054B     		ldr	r3, .L6+8
  97 0010 1A70     		strb	r2, [r3]
  55:LiquidCrystal_I2C.c **** 	_backlightval = LCD_BACKLIGHT;
  98              		.loc 1 55 0
  99 0012 0822     		movs	r2, #8
 100 0014 044B     		ldr	r3, .L6+12
 101 0016 1A70     		strb	r2, [r3]
 102 0018 7047     		bx	lr
 103              	.L7:
 104 001a 00BF     		.align	2
 105              	.L6:
 106 001c 00000000 		.word	_cols
 107 0020 00000000 		.word	_rows
 108 0024 00000000 		.word	_charsize
 109 0028 00000000 		.word	_backlightval
 110              		.cfi_endproc
 111              	.LFE64:
 112              		.size	PreConfigurarLCD, .-PreConfigurarLCD
 113              		.section	.text.CambiarDireccion,"ax",%progbits
 114              		.align	2
 115              		.global	CambiarDireccion
 116              		.thumb
ARM GAS  C:\Users\Dell\AppData\Local\Temp\ccDAbiEk.s 			page 4


 117              		.thumb_func
 118              		.type	CambiarDireccion, %function
 119              	CambiarDireccion:
 120              	.LFB65:
  56:LiquidCrystal_I2C.c **** }
  57:LiquidCrystal_I2C.c **** 
  58:LiquidCrystal_I2C.c **** void CambiarDireccion(uint8_t NuevaDireccion)
  59:LiquidCrystal_I2C.c **** {
 121              		.loc 1 59 0
 122              		.cfi_startproc
 123              		@ args = 0, pretend = 0, frame = 0
 124              		@ frame_needed = 0, uses_anonymous_args = 0
 125              		@ link register save eliminated.
 126              	.LVL5:
  60:LiquidCrystal_I2C.c **** 	_addr = NuevaDireccion;
 127              		.loc 1 60 0
 128 0000 024B     		ldr	r3, .L9
 129 0002 1870     		strb	r0, [r3]
  61:LiquidCrystal_I2C.c ****     _backlightval = LCD_BACKLIGHT;
 130              		.loc 1 61 0
 131 0004 0822     		movs	r2, #8
 132 0006 024B     		ldr	r3, .L9+4
 133 0008 1A70     		strb	r2, [r3]
 134 000a 7047     		bx	lr
 135              	.L10:
 136              		.align	2
 137              	.L9:
 138 000c 00000000 		.word	_addr
 139 0010 00000000 		.word	_backlightval
 140              		.cfi_endproc
 141              	.LFE65:
 142              		.size	CambiarDireccion, .-CambiarDireccion
 143              		.section	.text.I2C_M_write_byte,"ax",%progbits
 144              		.align	2
 145              		.global	I2C_M_write_byte
 146              		.thumb
 147              		.thumb_func
 148              		.type	I2C_M_write_byte, %function
 149              	I2C_M_write_byte:
 150              	.LFB94:
  62:LiquidCrystal_I2C.c ****     return;
  63:LiquidCrystal_I2C.c **** }
  64:LiquidCrystal_I2C.c **** 
  65:LiquidCrystal_I2C.c **** void begin(void){
  66:LiquidCrystal_I2C.c ****   
  67:LiquidCrystal_I2C.c **** 	_displayfunction = LCD_4BITMODE | LCD_1LINE | LCD_5x8DOTS;
  68:LiquidCrystal_I2C.c **** 
  69:LiquidCrystal_I2C.c **** 	if (_rows > 1) {
  70:LiquidCrystal_I2C.c **** 		_displayfunction |= LCD_2LINE;
  71:LiquidCrystal_I2C.c **** 	}
  72:LiquidCrystal_I2C.c **** 
  73:LiquidCrystal_I2C.c **** 	// for some 1 line displays you can select a 10 pixel high font
  74:LiquidCrystal_I2C.c **** 	if ((_charsize != 0) && (_rows == 1)) {
  75:LiquidCrystal_I2C.c **** 		_displayfunction |= LCD_5x10DOTS;
  76:LiquidCrystal_I2C.c **** 	}
  77:LiquidCrystal_I2C.c **** 
  78:LiquidCrystal_I2C.c **** 	// SEE PAGE 45/46 FOR INITIALIZATION SPECIFICATION!
ARM GAS  C:\Users\Dell\AppData\Local\Temp\ccDAbiEk.s 			page 5


  79:LiquidCrystal_I2C.c **** 	// according to datasheet, we need at least 40ms after power rises above 2.7V
  80:LiquidCrystal_I2C.c **** 	// before sending commands. Arduino can turn on way befer 4.5V so we'll wait 50
  81:LiquidCrystal_I2C.c **** 	CyDelay(50); 
  82:LiquidCrystal_I2C.c **** 
  83:LiquidCrystal_I2C.c **** 	// Now we pull both RS and R/W low to begin commands
  84:LiquidCrystal_I2C.c **** 	expanderWrite(_backlightval);	// reset expanderand turn backlight off (Bit 8 =1)
  85:LiquidCrystal_I2C.c **** 	CyDelay(1000);
  86:LiquidCrystal_I2C.c **** 
  87:LiquidCrystal_I2C.c **** 	//put the LCD into 4 bit mode
  88:LiquidCrystal_I2C.c **** 	// this is according to the hitachi HD44780 datasheet
  89:LiquidCrystal_I2C.c **** 	// figure 24, pg 46
  90:LiquidCrystal_I2C.c **** 
  91:LiquidCrystal_I2C.c **** 	// we start in 8bit mode, try to set 4 bit mode
  92:LiquidCrystal_I2C.c **** 	write4bits(0x03 << 4);
  93:LiquidCrystal_I2C.c **** 	CyDelayUs(4500); // wait min 4.1ms
  94:LiquidCrystal_I2C.c **** 
  95:LiquidCrystal_I2C.c **** 	// second try
  96:LiquidCrystal_I2C.c **** 	write4bits(0x03 << 4);
  97:LiquidCrystal_I2C.c **** 	CyDelayUs(4500); // wait min 4.1ms
  98:LiquidCrystal_I2C.c **** 
  99:LiquidCrystal_I2C.c **** 	// third go!
 100:LiquidCrystal_I2C.c **** 	write4bits(0x03 << 4); 
 101:LiquidCrystal_I2C.c **** 	CyDelayUs(150);
 102:LiquidCrystal_I2C.c **** 
 103:LiquidCrystal_I2C.c **** 	// finally, set to 4-bit interface
 104:LiquidCrystal_I2C.c **** 	write4bits(0x02 << 4); 
 105:LiquidCrystal_I2C.c **** 
 106:LiquidCrystal_I2C.c **** 	// set # lines, font size, etc.
 107:LiquidCrystal_I2C.c **** 	command(LCD_FUNCTIONSET | _displayfunction);  
 108:LiquidCrystal_I2C.c **** 	
 109:LiquidCrystal_I2C.c **** 	// turn the display on with no cursor or blinking default
 110:LiquidCrystal_I2C.c **** 	_displaycontrol = LCD_DISPLAYON | LCD_CURSOROFF | LCD_BLINKOFF;
 111:LiquidCrystal_I2C.c **** 	display();
 112:LiquidCrystal_I2C.c **** 	
 113:LiquidCrystal_I2C.c **** 	// clear it off
 114:LiquidCrystal_I2C.c **** 	clear();
 115:LiquidCrystal_I2C.c **** 	
 116:LiquidCrystal_I2C.c **** 	// Initialize to default text direction (for roman languages)
 117:LiquidCrystal_I2C.c **** 	_displaymode = LCD_ENTRYLEFT | LCD_ENTRYSHIFTDECREMENT;
 118:LiquidCrystal_I2C.c **** 	
 119:LiquidCrystal_I2C.c **** 	// set the entry mode
 120:LiquidCrystal_I2C.c **** 	command(LCD_ENTRYMODESET | _displaymode);
 121:LiquidCrystal_I2C.c **** 	
 122:LiquidCrystal_I2C.c **** 	home();
 123:LiquidCrystal_I2C.c ****     
 124:LiquidCrystal_I2C.c ****     return;
 125:LiquidCrystal_I2C.c **** }
 126:LiquidCrystal_I2C.c **** 
 127:LiquidCrystal_I2C.c **** /********** high level commands, for the user! */
 128:LiquidCrystal_I2C.c **** void clear(void){
 129:LiquidCrystal_I2C.c ****     
 130:LiquidCrystal_I2C.c **** 	command(LCD_CLEARDISPLAY);// clear display, set cursor position to zero
 131:LiquidCrystal_I2C.c **** 	CyDelay(2);  // this command takes a long time!
 132:LiquidCrystal_I2C.c ****     
 133:LiquidCrystal_I2C.c ****     return;
 134:LiquidCrystal_I2C.c **** }
 135:LiquidCrystal_I2C.c **** 
ARM GAS  C:\Users\Dell\AppData\Local\Temp\ccDAbiEk.s 			page 6


 136:LiquidCrystal_I2C.c **** void home(void){
 137:LiquidCrystal_I2C.c **** 	
 138:LiquidCrystal_I2C.c ****     command(LCD_RETURNHOME);  // set cursor position to zero
 139:LiquidCrystal_I2C.c **** 	CyDelay(2);  // this command takes a long time!
 140:LiquidCrystal_I2C.c ****     
 141:LiquidCrystal_I2C.c ****     return;
 142:LiquidCrystal_I2C.c **** }
 143:LiquidCrystal_I2C.c **** 
 144:LiquidCrystal_I2C.c **** void setCursor(uint8_t col, uint8_t row){
 145:LiquidCrystal_I2C.c ****     
 146:LiquidCrystal_I2C.c **** 	int row_offsets[] = { 0x00, 0x40, 0x14, 0x54 };
 147:LiquidCrystal_I2C.c **** 	if (row > _rows) {
 148:LiquidCrystal_I2C.c **** 		row = _rows-1;    // we count rows starting w/0
 149:LiquidCrystal_I2C.c **** 	}
 150:LiquidCrystal_I2C.c **** 	command(LCD_SETDDRAMADDR | (col + row_offsets[row]));
 151:LiquidCrystal_I2C.c ****     
 152:LiquidCrystal_I2C.c ****     return;
 153:LiquidCrystal_I2C.c **** }
 154:LiquidCrystal_I2C.c **** 
 155:LiquidCrystal_I2C.c **** // Turn the display on/off (quickly)
 156:LiquidCrystal_I2C.c **** void noDisplay(void){
 157:LiquidCrystal_I2C.c **** 	
 158:LiquidCrystal_I2C.c ****     _displaycontrol &= ~LCD_DISPLAYON;
 159:LiquidCrystal_I2C.c **** 	command(LCD_DISPLAYCONTROL | _displaycontrol);
 160:LiquidCrystal_I2C.c ****     
 161:LiquidCrystal_I2C.c ****     return;
 162:LiquidCrystal_I2C.c **** }
 163:LiquidCrystal_I2C.c **** void display(void){
 164:LiquidCrystal_I2C.c ****     
 165:LiquidCrystal_I2C.c **** 	_displaycontrol |= LCD_DISPLAYON;
 166:LiquidCrystal_I2C.c **** 	command(LCD_DISPLAYCONTROL | _displaycontrol);
 167:LiquidCrystal_I2C.c ****     
 168:LiquidCrystal_I2C.c ****     return;
 169:LiquidCrystal_I2C.c **** }
 170:LiquidCrystal_I2C.c **** 
 171:LiquidCrystal_I2C.c **** // Turns the underline cursor on/off
 172:LiquidCrystal_I2C.c **** void noCursor(void){
 173:LiquidCrystal_I2C.c **** 	
 174:LiquidCrystal_I2C.c ****     _displaycontrol &= ~LCD_CURSORON;
 175:LiquidCrystal_I2C.c **** 	command(LCD_DISPLAYCONTROL | _displaycontrol);
 176:LiquidCrystal_I2C.c ****     
 177:LiquidCrystal_I2C.c ****     return;
 178:LiquidCrystal_I2C.c **** }
 179:LiquidCrystal_I2C.c **** void cursor(void){
 180:LiquidCrystal_I2C.c **** 	
 181:LiquidCrystal_I2C.c ****     _displaycontrol |= LCD_CURSORON;
 182:LiquidCrystal_I2C.c **** 	command(LCD_DISPLAYCONTROL | _displaycontrol);
 183:LiquidCrystal_I2C.c ****     
 184:LiquidCrystal_I2C.c ****     return;
 185:LiquidCrystal_I2C.c **** }
 186:LiquidCrystal_I2C.c **** 
 187:LiquidCrystal_I2C.c **** // Turn on and off the blinking cursor
 188:LiquidCrystal_I2C.c **** void noBlink(void){
 189:LiquidCrystal_I2C.c **** 	
 190:LiquidCrystal_I2C.c ****     _displaycontrol &= ~LCD_BLINKON;
 191:LiquidCrystal_I2C.c **** 	command(LCD_DISPLAYCONTROL | _displaycontrol);
 192:LiquidCrystal_I2C.c ****     
ARM GAS  C:\Users\Dell\AppData\Local\Temp\ccDAbiEk.s 			page 7


 193:LiquidCrystal_I2C.c ****     return;
 194:LiquidCrystal_I2C.c **** }
 195:LiquidCrystal_I2C.c **** void blink(void){
 196:LiquidCrystal_I2C.c ****     
 197:LiquidCrystal_I2C.c **** 	_displaycontrol |= LCD_BLINKON;
 198:LiquidCrystal_I2C.c **** 	command(LCD_DISPLAYCONTROL | _displaycontrol);
 199:LiquidCrystal_I2C.c ****     
 200:LiquidCrystal_I2C.c ****     return;
 201:LiquidCrystal_I2C.c **** }
 202:LiquidCrystal_I2C.c **** 
 203:LiquidCrystal_I2C.c **** // These commands scroll the display without changing the RAM
 204:LiquidCrystal_I2C.c **** void scrollDisplayLeft(void){
 205:LiquidCrystal_I2C.c ****     
 206:LiquidCrystal_I2C.c **** 	command(LCD_CURSORSHIFT | LCD_DISPLAYMOVE | LCD_MOVELEFT);
 207:LiquidCrystal_I2C.c ****     
 208:LiquidCrystal_I2C.c ****     return;
 209:LiquidCrystal_I2C.c **** }
 210:LiquidCrystal_I2C.c **** void scrollDisplayRight(void){
 211:LiquidCrystal_I2C.c **** 	
 212:LiquidCrystal_I2C.c ****     command(LCD_CURSORSHIFT | LCD_DISPLAYMOVE | LCD_MOVERIGHT);
 213:LiquidCrystal_I2C.c ****     
 214:LiquidCrystal_I2C.c ****     return;
 215:LiquidCrystal_I2C.c **** }
 216:LiquidCrystal_I2C.c **** 
 217:LiquidCrystal_I2C.c **** // This is for text that flows Left to Right
 218:LiquidCrystal_I2C.c **** void leftToRight(void){
 219:LiquidCrystal_I2C.c ****     
 220:LiquidCrystal_I2C.c **** 	_displaymode |= LCD_ENTRYLEFT;
 221:LiquidCrystal_I2C.c **** 	command(LCD_ENTRYMODESET | _displaymode);
 222:LiquidCrystal_I2C.c ****     
 223:LiquidCrystal_I2C.c ****     return;
 224:LiquidCrystal_I2C.c **** }
 225:LiquidCrystal_I2C.c **** 
 226:LiquidCrystal_I2C.c **** // This is for text that flows Right to Left
 227:LiquidCrystal_I2C.c **** void rightToLeft(void){
 228:LiquidCrystal_I2C.c ****     
 229:LiquidCrystal_I2C.c **** 	_displaymode &= ~LCD_ENTRYLEFT;
 230:LiquidCrystal_I2C.c **** 	command(LCD_ENTRYMODESET | _displaymode);
 231:LiquidCrystal_I2C.c ****     
 232:LiquidCrystal_I2C.c ****     return;
 233:LiquidCrystal_I2C.c **** }
 234:LiquidCrystal_I2C.c **** 
 235:LiquidCrystal_I2C.c **** // This will 'right justify' text from the cursor
 236:LiquidCrystal_I2C.c **** void autoscroll(void){
 237:LiquidCrystal_I2C.c **** 	
 238:LiquidCrystal_I2C.c ****     _displaymode |= LCD_ENTRYSHIFTINCREMENT;
 239:LiquidCrystal_I2C.c **** 	command(LCD_ENTRYMODESET | _displaymode);
 240:LiquidCrystal_I2C.c ****     
 241:LiquidCrystal_I2C.c ****     return;
 242:LiquidCrystal_I2C.c **** }
 243:LiquidCrystal_I2C.c **** 
 244:LiquidCrystal_I2C.c **** // This will 'left justify' text from the cursor
 245:LiquidCrystal_I2C.c **** void noAutoscroll(void){
 246:LiquidCrystal_I2C.c **** 	
 247:LiquidCrystal_I2C.c ****     _displaymode &= ~LCD_ENTRYSHIFTINCREMENT;
 248:LiquidCrystal_I2C.c **** 	command(LCD_ENTRYMODESET | _displaymode);
 249:LiquidCrystal_I2C.c ****     
ARM GAS  C:\Users\Dell\AppData\Local\Temp\ccDAbiEk.s 			page 8


 250:LiquidCrystal_I2C.c ****     return;
 251:LiquidCrystal_I2C.c **** }
 252:LiquidCrystal_I2C.c **** 
 253:LiquidCrystal_I2C.c **** // Allows us to fill the first 8 CGRAM locations
 254:LiquidCrystal_I2C.c **** // with custom characters
 255:LiquidCrystal_I2C.c **** void createChar(uint8_t location, uint8_t charmap[]){ uint32_t i = 0;
 256:LiquidCrystal_I2C.c **** 	
 257:LiquidCrystal_I2C.c ****     location &= 0x7; // we only have 8 locations 0-7
 258:LiquidCrystal_I2C.c **** 	command(LCD_SETCGRAMADDR | (location << 3));
 259:LiquidCrystal_I2C.c **** 	for (i=0; i<8; i++) {
 260:LiquidCrystal_I2C.c **** 		write(charmap[i]);
 261:LiquidCrystal_I2C.c **** 	}
 262:LiquidCrystal_I2C.c ****     
 263:LiquidCrystal_I2C.c ****     return;
 264:LiquidCrystal_I2C.c **** }
 265:LiquidCrystal_I2C.c **** 
 266:LiquidCrystal_I2C.c **** // Turn the (optional) backlight off/on
 267:LiquidCrystal_I2C.c **** void noBacklight(void) {
 268:LiquidCrystal_I2C.c **** 	
 269:LiquidCrystal_I2C.c ****     _backlightval=LCD_NOBACKLIGHT;
 270:LiquidCrystal_I2C.c **** 	expanderWrite(0);
 271:LiquidCrystal_I2C.c ****     
 272:LiquidCrystal_I2C.c ****     return;
 273:LiquidCrystal_I2C.c **** }
 274:LiquidCrystal_I2C.c **** 
 275:LiquidCrystal_I2C.c **** void backlight(void){
 276:LiquidCrystal_I2C.c ****     
 277:LiquidCrystal_I2C.c **** 	_backlightval=LCD_BACKLIGHT;
 278:LiquidCrystal_I2C.c **** 	expanderWrite(0);
 279:LiquidCrystal_I2C.c ****     
 280:LiquidCrystal_I2C.c ****     return;
 281:LiquidCrystal_I2C.c **** }
 282:LiquidCrystal_I2C.c **** 
 283:LiquidCrystal_I2C.c **** /*********** mid level commands, for sending data/cmds */
 284:LiquidCrystal_I2C.c **** 
 285:LiquidCrystal_I2C.c **** void command(uint8_t value){
 286:LiquidCrystal_I2C.c **** 	
 287:LiquidCrystal_I2C.c ****     send(value, 0);
 288:LiquidCrystal_I2C.c ****     
 289:LiquidCrystal_I2C.c ****     return;
 290:LiquidCrystal_I2C.c **** }
 291:LiquidCrystal_I2C.c **** 
 292:LiquidCrystal_I2C.c ****  void write(uint8_t value){
 293:LiquidCrystal_I2C.c ****     
 294:LiquidCrystal_I2C.c **** 	send(value, Rs);
 295:LiquidCrystal_I2C.c ****     
 296:LiquidCrystal_I2C.c ****     return;
 297:LiquidCrystal_I2C.c **** }
 298:LiquidCrystal_I2C.c **** 
 299:LiquidCrystal_I2C.c **** 
 300:LiquidCrystal_I2C.c **** /************ low level data pushing commands **********/
 301:LiquidCrystal_I2C.c **** 
 302:LiquidCrystal_I2C.c **** // write either command or data
 303:LiquidCrystal_I2C.c **** void send(uint8_t value, uint8_t mode){
 304:LiquidCrystal_I2C.c ****     
 305:LiquidCrystal_I2C.c **** 	uint8_t highnib=value&0xf0;
 306:LiquidCrystal_I2C.c **** 	uint8_t lownib=(value<<4)&0xf0;
ARM GAS  C:\Users\Dell\AppData\Local\Temp\ccDAbiEk.s 			page 9


 307:LiquidCrystal_I2C.c **** 	write4bits((highnib)|mode);
 308:LiquidCrystal_I2C.c **** 	write4bits((lownib)|mode); 
 309:LiquidCrystal_I2C.c ****     
 310:LiquidCrystal_I2C.c ****     return;
 311:LiquidCrystal_I2C.c **** }
 312:LiquidCrystal_I2C.c **** 
 313:LiquidCrystal_I2C.c **** void write4bits(uint8_t value) {
 314:LiquidCrystal_I2C.c ****     
 315:LiquidCrystal_I2C.c **** 	expanderWrite(value);
 316:LiquidCrystal_I2C.c **** 	pulseEnable(value);
 317:LiquidCrystal_I2C.c ****     
 318:LiquidCrystal_I2C.c ****     return;
 319:LiquidCrystal_I2C.c **** }
 320:LiquidCrystal_I2C.c **** 
 321:LiquidCrystal_I2C.c **** void expanderWrite(uint8_t _data){     
 322:LiquidCrystal_I2C.c ****     
 323:LiquidCrystal_I2C.c **** 	I2C_M_write_byte(_addr,_data | _backlightval);	   
 324:LiquidCrystal_I2C.c ****     
 325:LiquidCrystal_I2C.c ****     return;
 326:LiquidCrystal_I2C.c **** }
 327:LiquidCrystal_I2C.c **** 
 328:LiquidCrystal_I2C.c **** void pulseEnable(uint8_t _data){
 329:LiquidCrystal_I2C.c ****     
 330:LiquidCrystal_I2C.c **** 	expanderWrite(_data | En);	// En high
 331:LiquidCrystal_I2C.c **** 	CyDelayUs(1);		// enable pulse must be >450ns
 332:LiquidCrystal_I2C.c **** 	expanderWrite(_data & ~En);	// En low
 333:LiquidCrystal_I2C.c **** 	CyDelayUs(50);		// commands need > 37us to settle
 334:LiquidCrystal_I2C.c ****     
 335:LiquidCrystal_I2C.c ****     return;
 336:LiquidCrystal_I2C.c **** }
 337:LiquidCrystal_I2C.c **** 
 338:LiquidCrystal_I2C.c **** void load_custom_character(uint8_t char_num, uint8_t *rows){
 339:LiquidCrystal_I2C.c **** 	
 340:LiquidCrystal_I2C.c ****     createChar(char_num, rows);
 341:LiquidCrystal_I2C.c ****     
 342:LiquidCrystal_I2C.c ****     return;
 343:LiquidCrystal_I2C.c **** }
 344:LiquidCrystal_I2C.c **** 
 345:LiquidCrystal_I2C.c **** void setBacklight(uint8_t new_val){
 346:LiquidCrystal_I2C.c ****     
 347:LiquidCrystal_I2C.c **** 	if (new_val) {
 348:LiquidCrystal_I2C.c **** 		backlight();		// turn backlight on
 349:LiquidCrystal_I2C.c **** 	} else {
 350:LiquidCrystal_I2C.c **** 		noBacklight();		// turn backlight off
 351:LiquidCrystal_I2C.c **** 	}
 352:LiquidCrystal_I2C.c ****     
 353:LiquidCrystal_I2C.c ****     return;
 354:LiquidCrystal_I2C.c **** }
 355:LiquidCrystal_I2C.c **** 
 356:LiquidCrystal_I2C.c **** void LCD_print(char word[]){ uint32_t i = 0;
 357:LiquidCrystal_I2C.c ****     
 358:LiquidCrystal_I2C.c ****     uint8_t size = strlen(word);
 359:LiquidCrystal_I2C.c ****     
 360:LiquidCrystal_I2C.c ****     for (i = 0; i < size; i++){
 361:LiquidCrystal_I2C.c ****         write(word[i]);
 362:LiquidCrystal_I2C.c ****     }
 363:LiquidCrystal_I2C.c **** 
ARM GAS  C:\Users\Dell\AppData\Local\Temp\ccDAbiEk.s 			page 10


 364:LiquidCrystal_I2C.c ****     return;
 365:LiquidCrystal_I2C.c **** }
 366:LiquidCrystal_I2C.c **** 
 367:LiquidCrystal_I2C.c **** void I2C_M_write_byte(uint8_t addr,uint8_t data){ 
 151              		.loc 1 367 0
 152              		.cfi_startproc
 153              		@ args = 0, pretend = 0, frame = 0
 154              		@ frame_needed = 0, uses_anonymous_args = 0
 155              	.LVL6:
 156 0000 10B5     		push	{r4, lr}
 157              		.cfi_def_cfa_offset 8
 158              		.cfi_offset 4, -8
 159              		.cfi_offset 14, -4
 160 0002 0C46     		mov	r4, r1
 368:LiquidCrystal_I2C.c **** 
 369:LiquidCrystal_I2C.c **** #if CY_PSOC5
 370:LiquidCrystal_I2C.c ****     I2C_MasterSendStart(addr, 0);
 161              		.loc 1 370 0
 162 0004 0021     		movs	r1, #0
 163              	.LVL7:
 164 0006 FFF7FEFF 		bl	I2C_MasterSendStart
 165              	.LVL8:
 371:LiquidCrystal_I2C.c ****     I2C_MasterWriteByte(data);
 166              		.loc 1 371 0
 167 000a 2046     		mov	r0, r4
 168 000c FFF7FEFF 		bl	I2C_MasterWriteByte
 169              	.LVL9:
 372:LiquidCrystal_I2C.c ****     I2C_MasterSendStop();
 170              		.loc 1 372 0
 171 0010 FFF7FEFF 		bl	I2C_MasterSendStop
 172              	.LVL10:
 173 0014 10BD     		pop	{r4, pc}
 174              		.cfi_endproc
 175              	.LFE94:
 176              		.size	I2C_M_write_byte, .-I2C_M_write_byte
 177 0016 00BF     		.section	.text.expanderWrite,"ax",%progbits
 178              		.align	2
 179              		.global	expanderWrite
 180              		.thumb
 181              		.thumb_func
 182              		.type	expanderWrite, %function
 183              	expanderWrite:
 184              	.LFB89:
 321:LiquidCrystal_I2C.c ****     
 185              		.loc 1 321 0
 186              		.cfi_startproc
 187              		@ args = 0, pretend = 0, frame = 0
 188              		@ frame_needed = 0, uses_anonymous_args = 0
 189              	.LVL11:
 190 0000 08B5     		push	{r3, lr}
 191              		.cfi_def_cfa_offset 8
 192              		.cfi_offset 3, -8
 193              		.cfi_offset 14, -4
 323:LiquidCrystal_I2C.c ****     
 194              		.loc 1 323 0
 195 0002 044B     		ldr	r3, .L15
 196 0004 1978     		ldrb	r1, [r3]	@ zero_extendqisi2
ARM GAS  C:\Users\Dell\AppData\Local\Temp\ccDAbiEk.s 			page 11


 197 0006 0143     		orrs	r1, r1, r0
 198 0008 034B     		ldr	r3, .L15+4
 199 000a 1878     		ldrb	r0, [r3]	@ zero_extendqisi2
 200              	.LVL12:
 201 000c FFF7FEFF 		bl	I2C_M_write_byte
 202              	.LVL13:
 203 0010 08BD     		pop	{r3, pc}
 204              	.L16:
 205 0012 00BF     		.align	2
 206              	.L15:
 207 0014 00000000 		.word	_backlightval
 208 0018 00000000 		.word	_addr
 209              		.cfi_endproc
 210              	.LFE89:
 211              		.size	expanderWrite, .-expanderWrite
 212              		.section	.text.noBacklight,"ax",%progbits
 213              		.align	2
 214              		.global	noBacklight
 215              		.thumb
 216              		.thumb_func
 217              		.type	noBacklight, %function
 218              	noBacklight:
 219              	.LFB83:
 267:LiquidCrystal_I2C.c **** 	
 220              		.loc 1 267 0
 221              		.cfi_startproc
 222              		@ args = 0, pretend = 0, frame = 0
 223              		@ frame_needed = 0, uses_anonymous_args = 0
 224 0000 08B5     		push	{r3, lr}
 225              		.cfi_def_cfa_offset 8
 226              		.cfi_offset 3, -8
 227              		.cfi_offset 14, -4
 269:LiquidCrystal_I2C.c **** 	expanderWrite(0);
 228              		.loc 1 269 0
 229 0002 0020     		movs	r0, #0
 230 0004 024B     		ldr	r3, .L19
 231 0006 1870     		strb	r0, [r3]
 270:LiquidCrystal_I2C.c ****     
 232              		.loc 1 270 0
 233 0008 FFF7FEFF 		bl	expanderWrite
 234              	.LVL14:
 235 000c 08BD     		pop	{r3, pc}
 236              	.L20:
 237 000e 00BF     		.align	2
 238              	.L19:
 239 0010 00000000 		.word	_backlightval
 240              		.cfi_endproc
 241              	.LFE83:
 242              		.size	noBacklight, .-noBacklight
 243              		.section	.text.backlight,"ax",%progbits
 244              		.align	2
 245              		.global	backlight
 246              		.thumb
 247              		.thumb_func
 248              		.type	backlight, %function
 249              	backlight:
 250              	.LFB84:
ARM GAS  C:\Users\Dell\AppData\Local\Temp\ccDAbiEk.s 			page 12


 275:LiquidCrystal_I2C.c ****     
 251              		.loc 1 275 0
 252              		.cfi_startproc
 253              		@ args = 0, pretend = 0, frame = 0
 254              		@ frame_needed = 0, uses_anonymous_args = 0
 255 0000 08B5     		push	{r3, lr}
 256              		.cfi_def_cfa_offset 8
 257              		.cfi_offset 3, -8
 258              		.cfi_offset 14, -4
 277:LiquidCrystal_I2C.c **** 	expanderWrite(0);
 259              		.loc 1 277 0
 260 0002 0822     		movs	r2, #8
 261 0004 024B     		ldr	r3, .L23
 262 0006 1A70     		strb	r2, [r3]
 278:LiquidCrystal_I2C.c ****     
 263              		.loc 1 278 0
 264 0008 0020     		movs	r0, #0
 265 000a FFF7FEFF 		bl	expanderWrite
 266              	.LVL15:
 267 000e 08BD     		pop	{r3, pc}
 268              	.L24:
 269              		.align	2
 270              	.L23:
 271 0010 00000000 		.word	_backlightval
 272              		.cfi_endproc
 273              	.LFE84:
 274              		.size	backlight, .-backlight
 275              		.section	.text.setBacklight,"ax",%progbits
 276              		.align	2
 277              		.global	setBacklight
 278              		.thumb
 279              		.thumb_func
 280              		.type	setBacklight, %function
 281              	setBacklight:
 282              	.LFB92:
 345:LiquidCrystal_I2C.c ****     
 283              		.loc 1 345 0
 284              		.cfi_startproc
 285              		@ args = 0, pretend = 0, frame = 0
 286              		@ frame_needed = 0, uses_anonymous_args = 0
 287              	.LVL16:
 288 0000 08B5     		push	{r3, lr}
 289              		.cfi_def_cfa_offset 8
 290              		.cfi_offset 3, -8
 291              		.cfi_offset 14, -4
 347:LiquidCrystal_I2C.c **** 		backlight();		// turn backlight on
 292              		.loc 1 347 0
 293 0002 10B1     		cbz	r0, .L26
 348:LiquidCrystal_I2C.c **** 	} else {
 294              		.loc 1 348 0
 295 0004 FFF7FEFF 		bl	backlight
 296              	.LVL17:
 297 0008 08BD     		pop	{r3, pc}
 298              	.LVL18:
 299              	.L26:
 350:LiquidCrystal_I2C.c **** 	}
 300              		.loc 1 350 0
ARM GAS  C:\Users\Dell\AppData\Local\Temp\ccDAbiEk.s 			page 13


 301 000a FFF7FEFF 		bl	noBacklight
 302              	.LVL19:
 303 000e 08BD     		pop	{r3, pc}
 304              		.cfi_endproc
 305              	.LFE92:
 306              		.size	setBacklight, .-setBacklight
 307              		.section	.text.pulseEnable,"ax",%progbits
 308              		.align	2
 309              		.global	pulseEnable
 310              		.thumb
 311              		.thumb_func
 312              		.type	pulseEnable, %function
 313              	pulseEnable:
 314              	.LFB90:
 328:LiquidCrystal_I2C.c ****     
 315              		.loc 1 328 0
 316              		.cfi_startproc
 317              		@ args = 0, pretend = 0, frame = 0
 318              		@ frame_needed = 0, uses_anonymous_args = 0
 319              	.LVL20:
 320 0000 10B5     		push	{r4, lr}
 321              		.cfi_def_cfa_offset 8
 322              		.cfi_offset 4, -8
 323              		.cfi_offset 14, -4
 324 0002 0446     		mov	r4, r0
 330:LiquidCrystal_I2C.c **** 	CyDelayUs(1);		// enable pulse must be >450ns
 325              		.loc 1 330 0
 326 0004 40F00400 		orr	r0, r0, #4
 327              	.LVL21:
 328 0008 FFF7FEFF 		bl	expanderWrite
 329              	.LVL22:
 331:LiquidCrystal_I2C.c **** 	expanderWrite(_data & ~En);	// En low
 330              		.loc 1 331 0
 331 000c 0120     		movs	r0, #1
 332 000e FFF7FEFF 		bl	CyDelayUs
 333              	.LVL23:
 332:LiquidCrystal_I2C.c **** 	CyDelayUs(50);		// commands need > 37us to settle
 334              		.loc 1 332 0
 335 0012 04F0FB00 		and	r0, r4, #251
 336 0016 FFF7FEFF 		bl	expanderWrite
 337              	.LVL24:
 333:LiquidCrystal_I2C.c ****     
 338              		.loc 1 333 0
 339 001a 3220     		movs	r0, #50
 340 001c FFF7FEFF 		bl	CyDelayUs
 341              	.LVL25:
 342 0020 10BD     		pop	{r4, pc}
 343              		.cfi_endproc
 344              	.LFE90:
 345              		.size	pulseEnable, .-pulseEnable
 346 0022 00BF     		.section	.text.write4bits,"ax",%progbits
 347              		.align	2
 348              		.global	write4bits
 349              		.thumb
 350              		.thumb_func
 351              		.type	write4bits, %function
 352              	write4bits:
ARM GAS  C:\Users\Dell\AppData\Local\Temp\ccDAbiEk.s 			page 14


 353              	.LFB88:
 313:LiquidCrystal_I2C.c ****     
 354              		.loc 1 313 0
 355              		.cfi_startproc
 356              		@ args = 0, pretend = 0, frame = 0
 357              		@ frame_needed = 0, uses_anonymous_args = 0
 358              	.LVL26:
 359 0000 10B5     		push	{r4, lr}
 360              		.cfi_def_cfa_offset 8
 361              		.cfi_offset 4, -8
 362              		.cfi_offset 14, -4
 363 0002 0446     		mov	r4, r0
 315:LiquidCrystal_I2C.c **** 	pulseEnable(value);
 364              		.loc 1 315 0
 365 0004 FFF7FEFF 		bl	expanderWrite
 366              	.LVL27:
 316:LiquidCrystal_I2C.c ****     
 367              		.loc 1 316 0
 368 0008 2046     		mov	r0, r4
 369 000a FFF7FEFF 		bl	pulseEnable
 370              	.LVL28:
 371 000e 10BD     		pop	{r4, pc}
 372              		.cfi_endproc
 373              	.LFE88:
 374              		.size	write4bits, .-write4bits
 375              		.section	.text.send,"ax",%progbits
 376              		.align	2
 377              		.global	send
 378              		.thumb
 379              		.thumb_func
 380              		.type	send, %function
 381              	send:
 382              	.LFB87:
 303:LiquidCrystal_I2C.c ****     
 383              		.loc 1 303 0
 384              		.cfi_startproc
 385              		@ args = 0, pretend = 0, frame = 0
 386              		@ frame_needed = 0, uses_anonymous_args = 0
 387              	.LVL29:
 388 0000 38B5     		push	{r3, r4, r5, lr}
 389              		.cfi_def_cfa_offset 16
 390              		.cfi_offset 3, -16
 391              		.cfi_offset 4, -12
 392              		.cfi_offset 5, -8
 393              		.cfi_offset 14, -4
 394 0002 0D46     		mov	r5, r1
 305:LiquidCrystal_I2C.c **** 	uint8_t lownib=(value<<4)&0xf0;
 395              		.loc 1 305 0
 396 0004 00F0F003 		and	r3, r0, #240
 397              	.LVL30:
 306:LiquidCrystal_I2C.c **** 	write4bits((highnib)|mode);
 398              		.loc 1 306 0
 399 0008 0401     		lsls	r4, r0, #4
 400 000a E4B2     		uxtb	r4, r4
 401              	.LVL31:
 307:LiquidCrystal_I2C.c **** 	write4bits((lownib)|mode); 
 402              		.loc 1 307 0
ARM GAS  C:\Users\Dell\AppData\Local\Temp\ccDAbiEk.s 			page 15


 403 000c 43EA0100 		orr	r0, r3, r1
 404              	.LVL32:
 405 0010 FFF7FEFF 		bl	write4bits
 406              	.LVL33:
 308:LiquidCrystal_I2C.c ****     
 407              		.loc 1 308 0
 408 0014 44EA0500 		orr	r0, r4, r5
 409 0018 FFF7FEFF 		bl	write4bits
 410              	.LVL34:
 411 001c 38BD     		pop	{r3, r4, r5, pc}
 412              		.cfi_endproc
 413              	.LFE87:
 414              		.size	send, .-send
 415 001e 00BF     		.section	.text.command,"ax",%progbits
 416              		.align	2
 417              		.global	command
 418              		.thumb
 419              		.thumb_func
 420              		.type	command, %function
 421              	command:
 422              	.LFB85:
 285:LiquidCrystal_I2C.c **** 	
 423              		.loc 1 285 0
 424              		.cfi_startproc
 425              		@ args = 0, pretend = 0, frame = 0
 426              		@ frame_needed = 0, uses_anonymous_args = 0
 427              	.LVL35:
 428 0000 08B5     		push	{r3, lr}
 429              		.cfi_def_cfa_offset 8
 430              		.cfi_offset 3, -8
 431              		.cfi_offset 14, -4
 287:LiquidCrystal_I2C.c ****     
 432              		.loc 1 287 0
 433 0002 0021     		movs	r1, #0
 434 0004 FFF7FEFF 		bl	send
 435              	.LVL36:
 436 0008 08BD     		pop	{r3, pc}
 437              		.cfi_endproc
 438              	.LFE85:
 439              		.size	command, .-command
 440 000a 00BF     		.section	.text.clear,"ax",%progbits
 441              		.align	2
 442              		.global	clear
 443              		.thumb
 444              		.thumb_func
 445              		.type	clear, %function
 446              	clear:
 447              	.LFB67:
 128:LiquidCrystal_I2C.c ****     
 448              		.loc 1 128 0
 449              		.cfi_startproc
 450              		@ args = 0, pretend = 0, frame = 0
 451              		@ frame_needed = 0, uses_anonymous_args = 0
 452 0000 08B5     		push	{r3, lr}
 453              		.cfi_def_cfa_offset 8
 454              		.cfi_offset 3, -8
 455              		.cfi_offset 14, -4
ARM GAS  C:\Users\Dell\AppData\Local\Temp\ccDAbiEk.s 			page 16


 130:LiquidCrystal_I2C.c **** 	CyDelay(2);  // this command takes a long time!
 456              		.loc 1 130 0
 457 0002 0120     		movs	r0, #1
 458 0004 FFF7FEFF 		bl	command
 459              	.LVL37:
 131:LiquidCrystal_I2C.c ****     
 460              		.loc 1 131 0
 461 0008 0220     		movs	r0, #2
 462 000a FFF7FEFF 		bl	CyDelay
 463              	.LVL38:
 464 000e 08BD     		pop	{r3, pc}
 465              		.cfi_endproc
 466              	.LFE67:
 467              		.size	clear, .-clear
 468              		.section	.text.home,"ax",%progbits
 469              		.align	2
 470              		.global	home
 471              		.thumb
 472              		.thumb_func
 473              		.type	home, %function
 474              	home:
 475              	.LFB68:
 136:LiquidCrystal_I2C.c **** 	
 476              		.loc 1 136 0
 477              		.cfi_startproc
 478              		@ args = 0, pretend = 0, frame = 0
 479              		@ frame_needed = 0, uses_anonymous_args = 0
 480 0000 08B5     		push	{r3, lr}
 481              		.cfi_def_cfa_offset 8
 482              		.cfi_offset 3, -8
 483              		.cfi_offset 14, -4
 138:LiquidCrystal_I2C.c **** 	CyDelay(2);  // this command takes a long time!
 484              		.loc 1 138 0
 485 0002 0220     		movs	r0, #2
 486 0004 FFF7FEFF 		bl	command
 487              	.LVL39:
 139:LiquidCrystal_I2C.c ****     
 488              		.loc 1 139 0
 489 0008 0220     		movs	r0, #2
 490 000a FFF7FEFF 		bl	CyDelay
 491              	.LVL40:
 492 000e 08BD     		pop	{r3, pc}
 493              		.cfi_endproc
 494              	.LFE68:
 495              		.size	home, .-home
 496              		.section	.text.setCursor,"ax",%progbits
 497              		.align	2
 498              		.global	setCursor
 499              		.thumb
 500              		.thumb_func
 501              		.type	setCursor, %function
 502              	setCursor:
 503              	.LFB69:
 144:LiquidCrystal_I2C.c ****     
 504              		.loc 1 144 0
 505              		.cfi_startproc
 506              		@ args = 0, pretend = 0, frame = 16
ARM GAS  C:\Users\Dell\AppData\Local\Temp\ccDAbiEk.s 			page 17


 507              		@ frame_needed = 0, uses_anonymous_args = 0
 508              	.LVL41:
 509 0000 30B5     		push	{r4, r5, lr}
 510              		.cfi_def_cfa_offset 12
 511              		.cfi_offset 4, -12
 512              		.cfi_offset 5, -8
 513              		.cfi_offset 14, -4
 514 0002 85B0     		sub	sp, sp, #20
 515              		.cfi_def_cfa_offset 32
 516 0004 0546     		mov	r5, r0
 517 0006 0C46     		mov	r4, r1
 146:LiquidCrystal_I2C.c **** 	if (row > _rows) {
 518              		.loc 1 146 0
 519 0008 0C4B     		ldr	r3, .L44
 520 000a 0FCB     		ldmia	r3, {r0, r1, r2, r3}
 521              	.LVL42:
 522 000c 0DF1100E 		add	lr, sp, #16
 523 0010 0EE90F00 		stmdb	lr, {r0, r1, r2, r3}
 147:LiquidCrystal_I2C.c **** 		row = _rows-1;    // we count rows starting w/0
 524              		.loc 1 147 0
 525 0014 0A4B     		ldr	r3, .L44+4
 526 0016 1B78     		ldrb	r3, [r3]	@ zero_extendqisi2
 527 0018 A342     		cmp	r3, r4
 528 001a 01D2     		bcs	.L42
 148:LiquidCrystal_I2C.c **** 	}
 529              		.loc 1 148 0
 530 001c 5C1E     		subs	r4, r3, #1
 531 001e E4B2     		uxtb	r4, r4
 532              	.LVL43:
 533              	.L42:
 150:LiquidCrystal_I2C.c ****     
 534              		.loc 1 150 0
 535 0020 04AB     		add	r3, sp, #16
 536 0022 03EB8404 		add	r4, r3, r4, lsl #2
 537              	.LVL44:
 538 0026 54F8100C 		ldr	r0, [r4, #-16]
 539 002a 2844     		add	r0, r0, r5
 540 002c 60F07F00 		orn	r0, r0, #127
 541 0030 C0B2     		uxtb	r0, r0
 542 0032 FFF7FEFF 		bl	command
 543              	.LVL45:
 153:LiquidCrystal_I2C.c **** 
 544              		.loc 1 153 0
 545 0036 05B0     		add	sp, sp, #20
 546              		.cfi_def_cfa_offset 12
 547              		@ sp needed
 548 0038 30BD     		pop	{r4, r5, pc}
 549              	.L45:
 550 003a 00BF     		.align	2
 551              	.L44:
 552 003c 00000000 		.word	.LANCHOR0
 553 0040 00000000 		.word	_rows
 554              		.cfi_endproc
 555              	.LFE69:
 556              		.size	setCursor, .-setCursor
 557              		.section	.text.noDisplay,"ax",%progbits
 558              		.align	2
ARM GAS  C:\Users\Dell\AppData\Local\Temp\ccDAbiEk.s 			page 18


 559              		.global	noDisplay
 560              		.thumb
 561              		.thumb_func
 562              		.type	noDisplay, %function
 563              	noDisplay:
 564              	.LFB70:
 156:LiquidCrystal_I2C.c **** 	
 565              		.loc 1 156 0
 566              		.cfi_startproc
 567              		@ args = 0, pretend = 0, frame = 0
 568              		@ frame_needed = 0, uses_anonymous_args = 0
 569 0000 08B5     		push	{r3, lr}
 570              		.cfi_def_cfa_offset 8
 571              		.cfi_offset 3, -8
 572              		.cfi_offset 14, -4
 158:LiquidCrystal_I2C.c **** 	command(LCD_DISPLAYCONTROL | _displaycontrol);
 573              		.loc 1 158 0
 574 0002 054B     		ldr	r3, .L48
 575 0004 1878     		ldrb	r0, [r3]	@ zero_extendqisi2
 576 0006 00F0FB00 		and	r0, r0, #251
 577 000a 1870     		strb	r0, [r3]
 159:LiquidCrystal_I2C.c ****     
 578              		.loc 1 159 0
 579 000c 40F00800 		orr	r0, r0, #8
 580 0010 FFF7FEFF 		bl	command
 581              	.LVL46:
 582 0014 08BD     		pop	{r3, pc}
 583              	.L49:
 584 0016 00BF     		.align	2
 585              	.L48:
 586 0018 00000000 		.word	_displaycontrol
 587              		.cfi_endproc
 588              	.LFE70:
 589              		.size	noDisplay, .-noDisplay
 590              		.section	.text.display,"ax",%progbits
 591              		.align	2
 592              		.global	display
 593              		.thumb
 594              		.thumb_func
 595              		.type	display, %function
 596              	display:
 597              	.LFB71:
 163:LiquidCrystal_I2C.c ****     
 598              		.loc 1 163 0
 599              		.cfi_startproc
 600              		@ args = 0, pretend = 0, frame = 0
 601              		@ frame_needed = 0, uses_anonymous_args = 0
 602 0000 08B5     		push	{r3, lr}
 603              		.cfi_def_cfa_offset 8
 604              		.cfi_offset 3, -8
 605              		.cfi_offset 14, -4
 165:LiquidCrystal_I2C.c **** 	command(LCD_DISPLAYCONTROL | _displaycontrol);
 606              		.loc 1 165 0
 607 0002 054B     		ldr	r3, .L52
 608 0004 1878     		ldrb	r0, [r3]	@ zero_extendqisi2
 609 0006 40F00400 		orr	r0, r0, #4
 610 000a 1870     		strb	r0, [r3]
ARM GAS  C:\Users\Dell\AppData\Local\Temp\ccDAbiEk.s 			page 19


 166:LiquidCrystal_I2C.c ****     
 611              		.loc 1 166 0
 612 000c 40F00800 		orr	r0, r0, #8
 613 0010 FFF7FEFF 		bl	command
 614              	.LVL47:
 615 0014 08BD     		pop	{r3, pc}
 616              	.L53:
 617 0016 00BF     		.align	2
 618              	.L52:
 619 0018 00000000 		.word	_displaycontrol
 620              		.cfi_endproc
 621              	.LFE71:
 622              		.size	display, .-display
 623              		.section	.text.noCursor,"ax",%progbits
 624              		.align	2
 625              		.global	noCursor
 626              		.thumb
 627              		.thumb_func
 628              		.type	noCursor, %function
 629              	noCursor:
 630              	.LFB72:
 172:LiquidCrystal_I2C.c **** 	
 631              		.loc 1 172 0
 632              		.cfi_startproc
 633              		@ args = 0, pretend = 0, frame = 0
 634              		@ frame_needed = 0, uses_anonymous_args = 0
 635 0000 08B5     		push	{r3, lr}
 636              		.cfi_def_cfa_offset 8
 637              		.cfi_offset 3, -8
 638              		.cfi_offset 14, -4
 174:LiquidCrystal_I2C.c **** 	command(LCD_DISPLAYCONTROL | _displaycontrol);
 639              		.loc 1 174 0
 640 0002 054B     		ldr	r3, .L56
 641 0004 1878     		ldrb	r0, [r3]	@ zero_extendqisi2
 642 0006 00F0FD00 		and	r0, r0, #253
 643 000a 1870     		strb	r0, [r3]
 175:LiquidCrystal_I2C.c ****     
 644              		.loc 1 175 0
 645 000c 40F00800 		orr	r0, r0, #8
 646 0010 FFF7FEFF 		bl	command
 647              	.LVL48:
 648 0014 08BD     		pop	{r3, pc}
 649              	.L57:
 650 0016 00BF     		.align	2
 651              	.L56:
 652 0018 00000000 		.word	_displaycontrol
 653              		.cfi_endproc
 654              	.LFE72:
 655              		.size	noCursor, .-noCursor
 656              		.section	.text.cursor,"ax",%progbits
 657              		.align	2
 658              		.global	cursor
 659              		.thumb
 660              		.thumb_func
 661              		.type	cursor, %function
 662              	cursor:
 663              	.LFB73:
ARM GAS  C:\Users\Dell\AppData\Local\Temp\ccDAbiEk.s 			page 20


 179:LiquidCrystal_I2C.c **** 	
 664              		.loc 1 179 0
 665              		.cfi_startproc
 666              		@ args = 0, pretend = 0, frame = 0
 667              		@ frame_needed = 0, uses_anonymous_args = 0
 668 0000 08B5     		push	{r3, lr}
 669              		.cfi_def_cfa_offset 8
 670              		.cfi_offset 3, -8
 671              		.cfi_offset 14, -4
 181:LiquidCrystal_I2C.c **** 	command(LCD_DISPLAYCONTROL | _displaycontrol);
 672              		.loc 1 181 0
 673 0002 054B     		ldr	r3, .L60
 674 0004 1878     		ldrb	r0, [r3]	@ zero_extendqisi2
 675 0006 40F00200 		orr	r0, r0, #2
 676 000a 1870     		strb	r0, [r3]
 182:LiquidCrystal_I2C.c ****     
 677              		.loc 1 182 0
 678 000c 40F00800 		orr	r0, r0, #8
 679 0010 FFF7FEFF 		bl	command
 680              	.LVL49:
 681 0014 08BD     		pop	{r3, pc}
 682              	.L61:
 683 0016 00BF     		.align	2
 684              	.L60:
 685 0018 00000000 		.word	_displaycontrol
 686              		.cfi_endproc
 687              	.LFE73:
 688              		.size	cursor, .-cursor
 689              		.section	.text.noBlink,"ax",%progbits
 690              		.align	2
 691              		.global	noBlink
 692              		.thumb
 693              		.thumb_func
 694              		.type	noBlink, %function
 695              	noBlink:
 696              	.LFB74:
 188:LiquidCrystal_I2C.c **** 	
 697              		.loc 1 188 0
 698              		.cfi_startproc
 699              		@ args = 0, pretend = 0, frame = 0
 700              		@ frame_needed = 0, uses_anonymous_args = 0
 701 0000 08B5     		push	{r3, lr}
 702              		.cfi_def_cfa_offset 8
 703              		.cfi_offset 3, -8
 704              		.cfi_offset 14, -4
 190:LiquidCrystal_I2C.c **** 	command(LCD_DISPLAYCONTROL | _displaycontrol);
 705              		.loc 1 190 0
 706 0002 054B     		ldr	r3, .L64
 707 0004 1878     		ldrb	r0, [r3]	@ zero_extendqisi2
 708 0006 00F0FE00 		and	r0, r0, #254
 709 000a 1870     		strb	r0, [r3]
 191:LiquidCrystal_I2C.c ****     
 710              		.loc 1 191 0
 711 000c 40F00800 		orr	r0, r0, #8
 712 0010 FFF7FEFF 		bl	command
 713              	.LVL50:
 714 0014 08BD     		pop	{r3, pc}
ARM GAS  C:\Users\Dell\AppData\Local\Temp\ccDAbiEk.s 			page 21


 715              	.L65:
 716 0016 00BF     		.align	2
 717              	.L64:
 718 0018 00000000 		.word	_displaycontrol
 719              		.cfi_endproc
 720              	.LFE74:
 721              		.size	noBlink, .-noBlink
 722              		.section	.text.blink,"ax",%progbits
 723              		.align	2
 724              		.global	blink
 725              		.thumb
 726              		.thumb_func
 727              		.type	blink, %function
 728              	blink:
 729              	.LFB75:
 195:LiquidCrystal_I2C.c ****     
 730              		.loc 1 195 0
 731              		.cfi_startproc
 732              		@ args = 0, pretend = 0, frame = 0
 733              		@ frame_needed = 0, uses_anonymous_args = 0
 734 0000 08B5     		push	{r3, lr}
 735              		.cfi_def_cfa_offset 8
 736              		.cfi_offset 3, -8
 737              		.cfi_offset 14, -4
 197:LiquidCrystal_I2C.c **** 	command(LCD_DISPLAYCONTROL | _displaycontrol);
 738              		.loc 1 197 0
 739 0002 054B     		ldr	r3, .L68
 740 0004 1878     		ldrb	r0, [r3]	@ zero_extendqisi2
 741 0006 40F00100 		orr	r0, r0, #1
 742 000a 1870     		strb	r0, [r3]
 198:LiquidCrystal_I2C.c ****     
 743              		.loc 1 198 0
 744 000c 40F00800 		orr	r0, r0, #8
 745 0010 FFF7FEFF 		bl	command
 746              	.LVL51:
 747 0014 08BD     		pop	{r3, pc}
 748              	.L69:
 749 0016 00BF     		.align	2
 750              	.L68:
 751 0018 00000000 		.word	_displaycontrol
 752              		.cfi_endproc
 753              	.LFE75:
 754              		.size	blink, .-blink
 755              		.section	.text.scrollDisplayLeft,"ax",%progbits
 756              		.align	2
 757              		.global	scrollDisplayLeft
 758              		.thumb
 759              		.thumb_func
 760              		.type	scrollDisplayLeft, %function
 761              	scrollDisplayLeft:
 762              	.LFB76:
 204:LiquidCrystal_I2C.c ****     
 763              		.loc 1 204 0
 764              		.cfi_startproc
 765              		@ args = 0, pretend = 0, frame = 0
 766              		@ frame_needed = 0, uses_anonymous_args = 0
 767 0000 08B5     		push	{r3, lr}
ARM GAS  C:\Users\Dell\AppData\Local\Temp\ccDAbiEk.s 			page 22


 768              		.cfi_def_cfa_offset 8
 769              		.cfi_offset 3, -8
 770              		.cfi_offset 14, -4
 206:LiquidCrystal_I2C.c ****     
 771              		.loc 1 206 0
 772 0002 1820     		movs	r0, #24
 773 0004 FFF7FEFF 		bl	command
 774              	.LVL52:
 775 0008 08BD     		pop	{r3, pc}
 776              		.cfi_endproc
 777              	.LFE76:
 778              		.size	scrollDisplayLeft, .-scrollDisplayLeft
 779 000a 00BF     		.section	.text.scrollDisplayRight,"ax",%progbits
 780              		.align	2
 781              		.global	scrollDisplayRight
 782              		.thumb
 783              		.thumb_func
 784              		.type	scrollDisplayRight, %function
 785              	scrollDisplayRight:
 786              	.LFB77:
 210:LiquidCrystal_I2C.c **** 	
 787              		.loc 1 210 0
 788              		.cfi_startproc
 789              		@ args = 0, pretend = 0, frame = 0
 790              		@ frame_needed = 0, uses_anonymous_args = 0
 791 0000 08B5     		push	{r3, lr}
 792              		.cfi_def_cfa_offset 8
 793              		.cfi_offset 3, -8
 794              		.cfi_offset 14, -4
 212:LiquidCrystal_I2C.c ****     
 795              		.loc 1 212 0
 796 0002 1C20     		movs	r0, #28
 797 0004 FFF7FEFF 		bl	command
 798              	.LVL53:
 799 0008 08BD     		pop	{r3, pc}
 800              		.cfi_endproc
 801              	.LFE77:
 802              		.size	scrollDisplayRight, .-scrollDisplayRight
 803 000a 00BF     		.section	.text.leftToRight,"ax",%progbits
 804              		.align	2
 805              		.global	leftToRight
 806              		.thumb
 807              		.thumb_func
 808              		.type	leftToRight, %function
 809              	leftToRight:
 810              	.LFB78:
 218:LiquidCrystal_I2C.c ****     
 811              		.loc 1 218 0
 812              		.cfi_startproc
 813              		@ args = 0, pretend = 0, frame = 0
 814              		@ frame_needed = 0, uses_anonymous_args = 0
 815 0000 08B5     		push	{r3, lr}
 816              		.cfi_def_cfa_offset 8
 817              		.cfi_offset 3, -8
 818              		.cfi_offset 14, -4
 220:LiquidCrystal_I2C.c **** 	command(LCD_ENTRYMODESET | _displaymode);
 819              		.loc 1 220 0
ARM GAS  C:\Users\Dell\AppData\Local\Temp\ccDAbiEk.s 			page 23


 820 0002 054B     		ldr	r3, .L76
 821 0004 1878     		ldrb	r0, [r3]	@ zero_extendqisi2
 822 0006 40F00200 		orr	r0, r0, #2
 823 000a 1870     		strb	r0, [r3]
 221:LiquidCrystal_I2C.c ****     
 824              		.loc 1 221 0
 825 000c 40F00400 		orr	r0, r0, #4
 826 0010 FFF7FEFF 		bl	command
 827              	.LVL54:
 828 0014 08BD     		pop	{r3, pc}
 829              	.L77:
 830 0016 00BF     		.align	2
 831              	.L76:
 832 0018 00000000 		.word	_displaymode
 833              		.cfi_endproc
 834              	.LFE78:
 835              		.size	leftToRight, .-leftToRight
 836              		.section	.text.rightToLeft,"ax",%progbits
 837              		.align	2
 838              		.global	rightToLeft
 839              		.thumb
 840              		.thumb_func
 841              		.type	rightToLeft, %function
 842              	rightToLeft:
 843              	.LFB79:
 227:LiquidCrystal_I2C.c ****     
 844              		.loc 1 227 0
 845              		.cfi_startproc
 846              		@ args = 0, pretend = 0, frame = 0
 847              		@ frame_needed = 0, uses_anonymous_args = 0
 848 0000 08B5     		push	{r3, lr}
 849              		.cfi_def_cfa_offset 8
 850              		.cfi_offset 3, -8
 851              		.cfi_offset 14, -4
 229:LiquidCrystal_I2C.c **** 	command(LCD_ENTRYMODESET | _displaymode);
 852              		.loc 1 229 0
 853 0002 054B     		ldr	r3, .L80
 854 0004 1878     		ldrb	r0, [r3]	@ zero_extendqisi2
 855 0006 00F0FD00 		and	r0, r0, #253
 856 000a 1870     		strb	r0, [r3]
 230:LiquidCrystal_I2C.c ****     
 857              		.loc 1 230 0
 858 000c 40F00400 		orr	r0, r0, #4
 859 0010 FFF7FEFF 		bl	command
 860              	.LVL55:
 861 0014 08BD     		pop	{r3, pc}
 862              	.L81:
 863 0016 00BF     		.align	2
 864              	.L80:
 865 0018 00000000 		.word	_displaymode
 866              		.cfi_endproc
 867              	.LFE79:
 868              		.size	rightToLeft, .-rightToLeft
 869              		.section	.text.autoscroll,"ax",%progbits
 870              		.align	2
 871              		.global	autoscroll
 872              		.thumb
ARM GAS  C:\Users\Dell\AppData\Local\Temp\ccDAbiEk.s 			page 24


 873              		.thumb_func
 874              		.type	autoscroll, %function
 875              	autoscroll:
 876              	.LFB80:
 236:LiquidCrystal_I2C.c **** 	
 877              		.loc 1 236 0
 878              		.cfi_startproc
 879              		@ args = 0, pretend = 0, frame = 0
 880              		@ frame_needed = 0, uses_anonymous_args = 0
 881 0000 08B5     		push	{r3, lr}
 882              		.cfi_def_cfa_offset 8
 883              		.cfi_offset 3, -8
 884              		.cfi_offset 14, -4
 238:LiquidCrystal_I2C.c **** 	command(LCD_ENTRYMODESET | _displaymode);
 885              		.loc 1 238 0
 886 0002 054B     		ldr	r3, .L84
 887 0004 1878     		ldrb	r0, [r3]	@ zero_extendqisi2
 888 0006 40F00100 		orr	r0, r0, #1
 889 000a 1870     		strb	r0, [r3]
 239:LiquidCrystal_I2C.c ****     
 890              		.loc 1 239 0
 891 000c 40F00400 		orr	r0, r0, #4
 892 0010 FFF7FEFF 		bl	command
 893              	.LVL56:
 894 0014 08BD     		pop	{r3, pc}
 895              	.L85:
 896 0016 00BF     		.align	2
 897              	.L84:
 898 0018 00000000 		.word	_displaymode
 899              		.cfi_endproc
 900              	.LFE80:
 901              		.size	autoscroll, .-autoscroll
 902              		.section	.text.noAutoscroll,"ax",%progbits
 903              		.align	2
 904              		.global	noAutoscroll
 905              		.thumb
 906              		.thumb_func
 907              		.type	noAutoscroll, %function
 908              	noAutoscroll:
 909              	.LFB81:
 245:LiquidCrystal_I2C.c **** 	
 910              		.loc 1 245 0
 911              		.cfi_startproc
 912              		@ args = 0, pretend = 0, frame = 0
 913              		@ frame_needed = 0, uses_anonymous_args = 0
 914 0000 08B5     		push	{r3, lr}
 915              		.cfi_def_cfa_offset 8
 916              		.cfi_offset 3, -8
 917              		.cfi_offset 14, -4
 247:LiquidCrystal_I2C.c **** 	command(LCD_ENTRYMODESET | _displaymode);
 918              		.loc 1 247 0
 919 0002 054B     		ldr	r3, .L88
 920 0004 1878     		ldrb	r0, [r3]	@ zero_extendqisi2
 921 0006 00F0FE00 		and	r0, r0, #254
 922 000a 1870     		strb	r0, [r3]
 248:LiquidCrystal_I2C.c ****     
 923              		.loc 1 248 0
ARM GAS  C:\Users\Dell\AppData\Local\Temp\ccDAbiEk.s 			page 25


 924 000c 40F00400 		orr	r0, r0, #4
 925 0010 FFF7FEFF 		bl	command
 926              	.LVL57:
 927 0014 08BD     		pop	{r3, pc}
 928              	.L89:
 929 0016 00BF     		.align	2
 930              	.L88:
 931 0018 00000000 		.word	_displaymode
 932              		.cfi_endproc
 933              	.LFE81:
 934              		.size	noAutoscroll, .-noAutoscroll
 935              		.section	.text.write,"ax",%progbits
 936              		.align	2
 937              		.global	write
 938              		.thumb
 939              		.thumb_func
 940              		.type	write, %function
 941              	write:
 942              	.LFB86:
 292:LiquidCrystal_I2C.c ****     
 943              		.loc 1 292 0
 944              		.cfi_startproc
 945              		@ args = 0, pretend = 0, frame = 0
 946              		@ frame_needed = 0, uses_anonymous_args = 0
 947              	.LVL58:
 948 0000 08B5     		push	{r3, lr}
 949              		.cfi_def_cfa_offset 8
 950              		.cfi_offset 3, -8
 951              		.cfi_offset 14, -4
 294:LiquidCrystal_I2C.c ****     
 952              		.loc 1 294 0
 953 0002 0121     		movs	r1, #1
 954 0004 FFF7FEFF 		bl	send
 955              	.LVL59:
 956 0008 08BD     		pop	{r3, pc}
 957              		.cfi_endproc
 958              	.LFE86:
 959              		.size	write, .-write
 960 000a 00BF     		.section	.text.createChar,"ax",%progbits
 961              		.align	2
 962              		.global	createChar
 963              		.thumb
 964              		.thumb_func
 965              		.type	createChar, %function
 966              	createChar:
 967              	.LFB82:
 255:LiquidCrystal_I2C.c **** 	
 968              		.loc 1 255 0
 969              		.cfi_startproc
 970              		@ args = 0, pretend = 0, frame = 0
 971              		@ frame_needed = 0, uses_anonymous_args = 0
 972              	.LVL60:
 973 0000 38B5     		push	{r3, r4, r5, lr}
 974              		.cfi_def_cfa_offset 16
 975              		.cfi_offset 3, -16
 976              		.cfi_offset 4, -12
 977              		.cfi_offset 5, -8
ARM GAS  C:\Users\Dell\AppData\Local\Temp\ccDAbiEk.s 			page 26


 978              		.cfi_offset 14, -4
 979 0002 0D46     		mov	r5, r1
 980              	.LVL61:
 257:LiquidCrystal_I2C.c **** 	command(LCD_SETCGRAMADDR | (location << 3));
 981              		.loc 1 257 0
 982 0004 00F00700 		and	r0, r0, #7
 983              	.LVL62:
 258:LiquidCrystal_I2C.c **** 	for (i=0; i<8; i++) {
 984              		.loc 1 258 0
 985 0008 C000     		lsls	r0, r0, #3
 986              	.LVL63:
 987 000a 40F04000 		orr	r0, r0, #64
 988 000e FFF7FEFF 		bl	command
 989              	.LVL64:
 259:LiquidCrystal_I2C.c **** 		write(charmap[i]);
 990              		.loc 1 259 0
 991 0012 0024     		movs	r4, #0
 992 0014 03E0     		b	.L93
 993              	.LVL65:
 994              	.L94:
 260:LiquidCrystal_I2C.c **** 	}
 995              		.loc 1 260 0 discriminator 3
 996 0016 285D     		ldrb	r0, [r5, r4]	@ zero_extendqisi2
 997 0018 FFF7FEFF 		bl	write
 998              	.LVL66:
 259:LiquidCrystal_I2C.c **** 		write(charmap[i]);
 999              		.loc 1 259 0 discriminator 3
 1000 001c 0134     		adds	r4, r4, #1
 1001              	.LVL67:
 1002              	.L93:
 259:LiquidCrystal_I2C.c **** 		write(charmap[i]);
 1003              		.loc 1 259 0 is_stmt 0 discriminator 1
 1004 001e 072C     		cmp	r4, #7
 1005 0020 F9D9     		bls	.L94
 264:LiquidCrystal_I2C.c **** 
 1006              		.loc 1 264 0 is_stmt 1
 1007 0022 38BD     		pop	{r3, r4, r5, pc}
 1008              		.cfi_endproc
 1009              	.LFE82:
 1010              		.size	createChar, .-createChar
 1011              		.section	.text.load_custom_character,"ax",%progbits
 1012              		.align	2
 1013              		.global	load_custom_character
 1014              		.thumb
 1015              		.thumb_func
 1016              		.type	load_custom_character, %function
 1017              	load_custom_character:
 1018              	.LFB91:
 338:LiquidCrystal_I2C.c **** 	
 1019              		.loc 1 338 0
 1020              		.cfi_startproc
 1021              		@ args = 0, pretend = 0, frame = 0
 1022              		@ frame_needed = 0, uses_anonymous_args = 0
 1023              	.LVL68:
 1024 0000 08B5     		push	{r3, lr}
 1025              		.cfi_def_cfa_offset 8
 1026              		.cfi_offset 3, -8
ARM GAS  C:\Users\Dell\AppData\Local\Temp\ccDAbiEk.s 			page 27


 1027              		.cfi_offset 14, -4
 340:LiquidCrystal_I2C.c ****     
 1028              		.loc 1 340 0
 1029 0002 FFF7FEFF 		bl	createChar
 1030              	.LVL69:
 1031 0006 08BD     		pop	{r3, pc}
 1032              		.cfi_endproc
 1033              	.LFE91:
 1034              		.size	load_custom_character, .-load_custom_character
 1035              		.section	.text.LCD_print,"ax",%progbits
 1036              		.align	2
 1037              		.global	LCD_print
 1038              		.thumb
 1039              		.thumb_func
 1040              		.type	LCD_print, %function
 1041              	LCD_print:
 1042              	.LFB93:
 356:LiquidCrystal_I2C.c ****     
 1043              		.loc 1 356 0
 1044              		.cfi_startproc
 1045              		@ args = 0, pretend = 0, frame = 0
 1046              		@ frame_needed = 0, uses_anonymous_args = 0
 1047              	.LVL70:
 1048 0000 70B5     		push	{r4, r5, r6, lr}
 1049              		.cfi_def_cfa_offset 16
 1050              		.cfi_offset 4, -16
 1051              		.cfi_offset 5, -12
 1052              		.cfi_offset 6, -8
 1053              		.cfi_offset 14, -4
 1054 0002 0646     		mov	r6, r0
 1055              	.LVL71:
 358:LiquidCrystal_I2C.c ****     
 1056              		.loc 1 358 0
 1057 0004 FFF7FEFF 		bl	strlen
 1058              	.LVL72:
 1059 0008 0546     		mov	r5, r0
 1060              	.LVL73:
 360:LiquidCrystal_I2C.c ****         write(word[i]);
 1061              		.loc 1 360 0
 1062 000a 0024     		movs	r4, #0
 1063 000c 03E0     		b	.L99
 1064              	.LVL74:
 1065              	.L100:
 361:LiquidCrystal_I2C.c ****     }
 1066              		.loc 1 361 0 discriminator 3
 1067 000e 305D     		ldrb	r0, [r6, r4]	@ zero_extendqisi2
 1068 0010 FFF7FEFF 		bl	write
 1069              	.LVL75:
 360:LiquidCrystal_I2C.c ****         write(word[i]);
 1070              		.loc 1 360 0 discriminator 3
 1071 0014 0134     		adds	r4, r4, #1
 1072              	.LVL76:
 1073              	.L99:
 360:LiquidCrystal_I2C.c ****         write(word[i]);
 1074              		.loc 1 360 0 is_stmt 0 discriminator 1
 1075 0016 EBB2     		uxtb	r3, r5
 1076 0018 9C42     		cmp	r4, r3
ARM GAS  C:\Users\Dell\AppData\Local\Temp\ccDAbiEk.s 			page 28


 1077 001a F8D3     		bcc	.L100
 365:LiquidCrystal_I2C.c **** 
 1078              		.loc 1 365 0 is_stmt 1
 1079 001c 70BD     		pop	{r4, r5, r6, pc}
 1080              		.cfi_endproc
 1081              	.LFE93:
 1082              		.size	LCD_print, .-LCD_print
 1083 001e 00BF     		.section	.text.begin,"ax",%progbits
 1084              		.align	2
 1085              		.global	begin
 1086              		.thumb
 1087              		.thumb_func
 1088              		.type	begin, %function
 1089              	begin:
 1090              	.LFB66:
  65:LiquidCrystal_I2C.c ****   
 1091              		.loc 1 65 0
 1092              		.cfi_startproc
 1093              		@ args = 0, pretend = 0, frame = 0
 1094              		@ frame_needed = 0, uses_anonymous_args = 0
 1095 0000 08B5     		push	{r3, lr}
 1096              		.cfi_def_cfa_offset 8
 1097              		.cfi_offset 3, -8
 1098              		.cfi_offset 14, -4
  67:LiquidCrystal_I2C.c **** 
 1099              		.loc 1 67 0
 1100 0002 0022     		movs	r2, #0
 1101 0004 254B     		ldr	r3, .L106
 1102 0006 1A70     		strb	r2, [r3]
  69:LiquidCrystal_I2C.c **** 		_displayfunction |= LCD_2LINE;
 1103              		.loc 1 69 0
 1104 0008 254B     		ldr	r3, .L106+4
 1105 000a 1B78     		ldrb	r3, [r3]	@ zero_extendqisi2
 1106 000c 012B     		cmp	r3, #1
 1107 000e 02D9     		bls	.L103
  70:LiquidCrystal_I2C.c **** 	}
 1108              		.loc 1 70 0
 1109 0010 0821     		movs	r1, #8
 1110 0012 224A     		ldr	r2, .L106
 1111 0014 1170     		strb	r1, [r2]
 1112              	.L103:
  74:LiquidCrystal_I2C.c **** 		_displayfunction |= LCD_5x10DOTS;
 1113              		.loc 1 74 0
 1114 0016 234A     		ldr	r2, .L106+8
 1115 0018 1278     		ldrb	r2, [r2]	@ zero_extendqisi2
 1116 001a 32B1     		cbz	r2, .L104
  74:LiquidCrystal_I2C.c **** 		_displayfunction |= LCD_5x10DOTS;
 1117              		.loc 1 74 0 is_stmt 0 discriminator 1
 1118 001c 012B     		cmp	r3, #1
 1119 001e 04D1     		bne	.L104
  75:LiquidCrystal_I2C.c **** 	}
 1120              		.loc 1 75 0 is_stmt 1
 1121 0020 1E4A     		ldr	r2, .L106
 1122 0022 1378     		ldrb	r3, [r2]	@ zero_extendqisi2
 1123 0024 43F00403 		orr	r3, r3, #4
 1124 0028 1370     		strb	r3, [r2]
 1125              	.L104:
ARM GAS  C:\Users\Dell\AppData\Local\Temp\ccDAbiEk.s 			page 29


  81:LiquidCrystal_I2C.c **** 
 1126              		.loc 1 81 0
 1127 002a 3220     		movs	r0, #50
 1128 002c FFF7FEFF 		bl	CyDelay
 1129              	.LVL77:
  84:LiquidCrystal_I2C.c **** 	CyDelay(1000);
 1130              		.loc 1 84 0
 1131 0030 1D4B     		ldr	r3, .L106+12
 1132 0032 1878     		ldrb	r0, [r3]	@ zero_extendqisi2
 1133 0034 FFF7FEFF 		bl	expanderWrite
 1134              	.LVL78:
  85:LiquidCrystal_I2C.c **** 
 1135              		.loc 1 85 0
 1136 0038 4FF47A70 		mov	r0, #1000
 1137 003c FFF7FEFF 		bl	CyDelay
 1138              	.LVL79:
  92:LiquidCrystal_I2C.c **** 	CyDelayUs(4500); // wait min 4.1ms
 1139              		.loc 1 92 0
 1140 0040 3020     		movs	r0, #48
 1141 0042 FFF7FEFF 		bl	write4bits
 1142              	.LVL80:
  93:LiquidCrystal_I2C.c **** 
 1143              		.loc 1 93 0
 1144 0046 41F29410 		movw	r0, #4500
 1145 004a FFF7FEFF 		bl	CyDelayUs
 1146              	.LVL81:
  96:LiquidCrystal_I2C.c **** 	CyDelayUs(4500); // wait min 4.1ms
 1147              		.loc 1 96 0
 1148 004e 3020     		movs	r0, #48
 1149 0050 FFF7FEFF 		bl	write4bits
 1150              	.LVL82:
  97:LiquidCrystal_I2C.c **** 
 1151              		.loc 1 97 0
 1152 0054 41F29410 		movw	r0, #4500
 1153 0058 FFF7FEFF 		bl	CyDelayUs
 1154              	.LVL83:
 100:LiquidCrystal_I2C.c **** 	CyDelayUs(150);
 1155              		.loc 1 100 0
 1156 005c 3020     		movs	r0, #48
 1157 005e FFF7FEFF 		bl	write4bits
 1158              	.LVL84:
 101:LiquidCrystal_I2C.c **** 
 1159              		.loc 1 101 0
 1160 0062 9620     		movs	r0, #150
 1161 0064 FFF7FEFF 		bl	CyDelayUs
 1162              	.LVL85:
 104:LiquidCrystal_I2C.c **** 
 1163              		.loc 1 104 0
 1164 0068 2020     		movs	r0, #32
 1165 006a FFF7FEFF 		bl	write4bits
 1166              	.LVL86:
 107:LiquidCrystal_I2C.c **** 	
 1167              		.loc 1 107 0
 1168 006e 0B4B     		ldr	r3, .L106
 1169 0070 1878     		ldrb	r0, [r3]	@ zero_extendqisi2
 1170 0072 40F02000 		orr	r0, r0, #32
 1171 0076 FFF7FEFF 		bl	command
ARM GAS  C:\Users\Dell\AppData\Local\Temp\ccDAbiEk.s 			page 30


 1172              	.LVL87:
 110:LiquidCrystal_I2C.c **** 	display();
 1173              		.loc 1 110 0
 1174 007a 0422     		movs	r2, #4
 1175 007c 0B4B     		ldr	r3, .L106+16
 1176 007e 1A70     		strb	r2, [r3]
 111:LiquidCrystal_I2C.c **** 	
 1177              		.loc 1 111 0
 1178 0080 FFF7FEFF 		bl	display
 1179              	.LVL88:
 114:LiquidCrystal_I2C.c **** 	
 1180              		.loc 1 114 0
 1181 0084 FFF7FEFF 		bl	clear
 1182              	.LVL89:
 117:LiquidCrystal_I2C.c **** 	
 1183              		.loc 1 117 0
 1184 0088 0222     		movs	r2, #2
 1185 008a 094B     		ldr	r3, .L106+20
 1186 008c 1A70     		strb	r2, [r3]
 120:LiquidCrystal_I2C.c **** 	
 1187              		.loc 1 120 0
 1188 008e 0620     		movs	r0, #6
 1189 0090 FFF7FEFF 		bl	command
 1190              	.LVL90:
 122:LiquidCrystal_I2C.c ****     
 1191              		.loc 1 122 0
 1192 0094 FFF7FEFF 		bl	home
 1193              	.LVL91:
 1194 0098 08BD     		pop	{r3, pc}
 1195              	.L107:
 1196 009a 00BF     		.align	2
 1197              	.L106:
 1198 009c 00000000 		.word	_displayfunction
 1199 00a0 00000000 		.word	_rows
 1200 00a4 00000000 		.word	_charsize
 1201 00a8 00000000 		.word	_backlightval
 1202 00ac 00000000 		.word	_displaycontrol
 1203 00b0 00000000 		.word	_displaymode
 1204              		.cfi_endproc
 1205              	.LFE66:
 1206              		.size	begin, .-begin
 1207              		.comm	_backlightval,1,1
 1208              		.comm	_charsize,1,1
 1209              		.comm	_rows,1,1
 1210              		.comm	_cols,1,1
 1211              		.comm	_displaymode,1,1
 1212              		.comm	_displaycontrol,1,1
 1213              		.comm	_displayfunction,1,1
 1214              		.comm	_addr,1,1
 1215              		.section	.rodata
 1216              		.align	2
 1217              		.set	.LANCHOR0,. + 0
 1218              	.LC0:
 1219 0000 00000000 		.word	0
 1220 0004 40000000 		.word	64
 1221 0008 14000000 		.word	20
 1222 000c 54000000 		.word	84
ARM GAS  C:\Users\Dell\AppData\Local\Temp\ccDAbiEk.s 			page 31


 1223              		.text
 1224              	.Letext0:
 1225              		.file 2 "c:\\program files (x86)\\cypress\\psoc creator\\4.4\\psoc creator\\import\\gnu\\arm\\5.4.
 1226              		.file 3 "c:\\program files (x86)\\cypress\\psoc creator\\4.4\\psoc creator\\import\\gnu\\arm\\5.4.
 1227              		.file 4 "Generated_Source\\PSoC5/core_cm3.h"
 1228              		.file 5 "Generated_Source\\PSoC5/I2C.h"
 1229              		.file 6 "Generated_Source\\PSoC5/CyLib.h"
 1230              		.file 7 "c:\\program files (x86)\\cypress\\psoc creator\\4.4\\psoc creator\\import\\gnu\\arm\\5.4.