ARM GAS  C:\Users\Dell\AppData\Local\Temp\ccOWf6ma.s 			page 1


   1              		.syntax unified
   2              		.cpu cortex-m3
   3              		.fpu softvfp
   4              		.eabi_attribute 20, 1
   5              		.eabi_attribute 21, 1
   6              		.eabi_attribute 23, 3
   7              		.eabi_attribute 24, 1
   8              		.eabi_attribute 25, 1
   9              		.eabi_attribute 26, 1
  10              		.eabi_attribute 30, 1
  11              		.eabi_attribute 34, 1
  12              		.eabi_attribute 18, 4
  13              		.thumb
  14              		.syntax unified
  15              		.file	"main.c"
  16              		.text
  17              	.Ltext0:
  18              		.cfi_sections	.debug_frame
  19              		.section	.text.printLCD,"ax",%progbits
  20              		.align	2
  21              		.global	printLCD
  22              		.thumb
  23              		.thumb_func
  24              		.type	printLCD, %function
  25              	printLCD:
  26              	.LFB64:
  27              		.file 1 "main.c"
   1:main.c        **** #include "project.h"
   2:main.c        **** #include <stdio.h>
   3:main.c        **** #include <string.h>
   4:main.c        **** #include <math.h>
   5:main.c        **** 
   6:main.c        **** // Declaración del variables de la comunicación serial (UART).
   7:main.c        **** char bufferReceive[9];
   8:main.c        **** char bufferToSend_PWM[20];
   9:main.c        **** char bufferToSend_Time[20];
  10:main.c        **** char RPM_value_String[3];
  11:main.c        **** int16 RPM_receive = 0;
  12:main.c        **** char Time_value_String[3];
  13:main.c        **** int time_receive = 1;
  14:main.c        **** int count = 0;
  15:main.c        **** 
  16:main.c        **** // Declaración de estado inicial de la LCD
  17:main.c        **** char time_String[16] =     "Giro: Parado    ";
  18:main.c        **** char RPM_String[16] =      "VEL : 0      rpm";
  19:main.c        **** 
  20:main.c        **** // Declaración de las variables necesarias para leer las interrupciones
  21:main.c        **** float RPM;
  22:main.c        **** char RPM_reading[6];
  23:main.c        **** float PWM;
  24:main.c        **** float PWM_final;
  25:main.c        **** uint16 time;
  26:main.c        **** char time_reading[20];
  27:main.c        **** 
  28:main.c        **** int secuence[4][4] = {{1,0,0,0} ,
  29:main.c        ****                      { 0,1,0,0} ,
  30:main.c        ****                      { 0,0,1,0} ,
ARM GAS  C:\Users\Dell\AppData\Local\Temp\ccOWf6ma.s 			page 2


  31:main.c        ****                      { 0,0,0,1} };
  32:main.c        **** float function_delay;
  33:main.c        **** char string_function_delay[6];
  34:main.c        **** double aceleration = 0.0;
  35:main.c        **** 
  36:main.c        **** void printLCD(int column, int row, char message[16]) {
  28              		.loc 1 36 0
  29              		.cfi_startproc
  30              		@ args = 0, pretend = 0, frame = 0
  31              		@ frame_needed = 0, uses_anonymous_args = 0
  32              	.LVL0:
  33 0000 10B5     		push	{r4, lr}
  34              		.cfi_def_cfa_offset 8
  35              		.cfi_offset 4, -8
  36              		.cfi_offset 14, -4
  37 0002 1446     		mov	r4, r2
  37:main.c        ****     LCD_I2C_setCursor(column, row);
  38              		.loc 1 37 0
  39 0004 C9B2     		uxtb	r1, r1
  40              	.LVL1:
  41 0006 C0B2     		uxtb	r0, r0
  42              	.LVL2:
  43 0008 FFF7FEFF 		bl	LCD_I2C_setCursor
  44              	.LVL3:
  38:main.c        ****     LCD_I2C_print(message);
  45              		.loc 1 38 0
  46 000c 2046     		mov	r0, r4
  47 000e FFF7FEFF 		bl	LCD_I2C_print
  48              	.LVL4:
  49 0012 10BD     		pop	{r4, pc}
  50              		.cfi_endproc
  51              	.LFE64:
  52              		.size	printLCD, .-printLCD
  53              		.section	.text.isrSerial,"ax",%progbits
  54              		.align	2
  55              		.global	isrSerial
  56              		.thumb
  57              		.thumb_func
  58              		.type	isrSerial, %function
  59              	isrSerial:
  60              	.LFB65:
  39:main.c        **** }
  40:main.c        **** 
  41:main.c        **** CY_ISR(isrSerial) {
  61              		.loc 1 41 0
  62              		.cfi_startproc
  63              		@ args = 0, pretend = 0, frame = 0
  64              		@ frame_needed = 0, uses_anonymous_args = 0
  65 0000 38B5     		push	{r3, r4, r5, lr}
  66              		.cfi_def_cfa_offset 16
  67              		.cfi_offset 3, -16
  68              		.cfi_offset 4, -12
  69              		.cfi_offset 5, -8
  70              		.cfi_offset 14, -4
  42:main.c        ****     if (UART_Serial_GetRxBufferSize() > 0) {
  71              		.loc 1 42 0
  72 0002 FFF7FEFF 		bl	UART_Serial_GetRxBufferSize
ARM GAS  C:\Users\Dell\AppData\Local\Temp\ccOWf6ma.s 			page 3


  73              	.LVL5:
  74 0006 0028     		cmp	r0, #0
  75 0008 7CD0     		beq	.L3
  43:main.c        ****         bufferReceive[count] = UART_Serial_GetChar();
  76              		.loc 1 43 0
  77 000a 3F4C     		ldr	r4, .L9
  78 000c 2568     		ldr	r5, [r4]
  79 000e FFF7FEFF 		bl	UART_Serial_GetChar
  80              	.LVL6:
  81 0012 3E4B     		ldr	r3, .L9+4
  82 0014 5855     		strb	r0, [r3, r5]
  44:main.c        ****         count++;
  83              		.loc 1 44 0
  84 0016 2368     		ldr	r3, [r4]
  85 0018 0133     		adds	r3, r3, #1
  86 001a 2360     		str	r3, [r4]
  45:main.c        **** 
  46:main.c        ****         if (count == 7) {            
  87              		.loc 1 46 0
  88 001c 072B     		cmp	r3, #7
  89 001e 71D1     		bne	.L3
  47:main.c        ****             // Se extrae el valor de las RPM enviada por el puerto serial.
  48:main.c        ****             RPM_receive = (bufferReceive[0]-'0')*100 + 
  90              		.loc 1 48 0
  91 0020 3A4C     		ldr	r4, .L9+4
  92 0022 2378     		ldrb	r3, [r4]	@ zero_extendqisi2
  93 0024 303B     		subs	r3, r3, #48
  49:main.c        ****                           (bufferReceive[1]-'0')*10 + 
  94              		.loc 1 49 0
  95 0026 6078     		ldrb	r0, [r4, #1]	@ zero_extendqisi2
  96 0028 3038     		subs	r0, r0, #48
  50:main.c        ****                           (bufferReceive[2]-'0');            
  97              		.loc 1 50 0
  98 002a A178     		ldrb	r1, [r4, #2]	@ zero_extendqisi2
  48:main.c        ****                           (bufferReceive[1]-'0')*10 + 
  99              		.loc 1 48 0
 100 002c 03EB8303 		add	r3, r3, r3, lsl #2
 101 0030 03EB8303 		add	r3, r3, r3, lsl #2
 102 0034 9D00     		lsls	r5, r3, #2
 103 0036 00EB8003 		add	r3, r0, r0, lsl #2
 104 003a 5A00     		lsls	r2, r3, #1
 105 003c 2A44     		add	r2, r2, r5
 106 003e 0A44     		add	r2, r2, r1
 107 0040 303A     		subs	r2, r2, #48
 108 0042 12B2     		sxth	r2, r2
 109 0044 304B     		ldr	r3, .L9
 110 0046 9A80     		strh	r2, [r3, #4]	@ movhi
  51:main.c        ****             //sprintf(bufferToSend_PWM, "Recibe Vel: %i|", RPM_receive);
  52:main.c        ****             //UART_Serial_PutString(bufferToSend_PWM);
  53:main.c        ****             sprintf(RPM_value_String, "%i    ", RPM_receive);
 111              		.loc 1 53 0
 112 0048 314D     		ldr	r5, .L9+8
 113 004a 3249     		ldr	r1, .L9+12
 114 004c 2846     		mov	r0, r5
 115 004e FFF7FEFF 		bl	sprintf
 116              	.LVL7:
  54:main.c        ****             printLCD(6, 1, RPM_value_String);
ARM GAS  C:\Users\Dell\AppData\Local\Temp\ccOWf6ma.s 			page 4


 117              		.loc 1 54 0
 118 0052 2A46     		mov	r2, r5
 119 0054 0121     		movs	r1, #1
 120 0056 0620     		movs	r0, #6
 121 0058 FFF7FEFF 		bl	printLCD
 122              	.LVL8:
  55:main.c        **** 
  56:main.c        ****             // Se extrae el valor de la posición enviada por el puerto serial.
  57:main.c        ****             time_receive = (bufferReceive[4]-'0')*100 +
 123              		.loc 1 57 0
 124 005c 2279     		ldrb	r2, [r4, #4]	@ zero_extendqisi2
 125 005e A2F13001 		sub	r1, r2, #48
  58:main.c        ****                            (bufferReceive[5]-'0')*10 +
 126              		.loc 1 58 0
 127 0062 6379     		ldrb	r3, [r4, #5]	@ zero_extendqisi2
 128 0064 303B     		subs	r3, r3, #48
 129 0066 03EB8303 		add	r3, r3, r3, lsl #2
 130 006a 5A00     		lsls	r2, r3, #1
  57:main.c        ****                            (bufferReceive[5]-'0')*10 +
 131              		.loc 1 57 0
 132 006c 6423     		movs	r3, #100
 133 006e 03FB0122 		mla	r2, r3, r1, r2
  59:main.c        ****                            (bufferReceive[6]-'0');                            
 134              		.loc 1 59 0
 135 0072 A379     		ldrb	r3, [r4, #6]	@ zero_extendqisi2
 136 0074 303B     		subs	r3, r3, #48
  58:main.c        ****                            (bufferReceive[5]-'0')*10 +
 137              		.loc 1 58 0
 138 0076 1A44     		add	r2, r2, r3
  57:main.c        ****                            (bufferReceive[5]-'0')*10 +
 139              		.loc 1 57 0
 140 0078 274B     		ldr	r3, .L9+16
 141 007a 1A60     		str	r2, [r3]
  60:main.c        ****             //sprintf(bufferToSend_Time, "Recibe Time: %i\n\r", time_receive);
  61:main.c        ****             //UART_Serial_PutString(bufferToSend_Time);
  62:main.c        ****             sprintf(Time_value_String, "%i  ", time_receive);
 142              		.loc 1 62 0
 143 007c 274D     		ldr	r5, .L9+20
 144 007e 2849     		ldr	r1, .L9+24
 145 0080 2846     		mov	r0, r5
 146 0082 FFF7FEFF 		bl	sprintf
 147              	.LVL9:
  63:main.c        ****             printLCD(6, 0, "          ");
 148              		.loc 1 63 0
 149 0086 274A     		ldr	r2, .L9+28
 150 0088 0021     		movs	r1, #0
 151 008a 0620     		movs	r0, #6
 152 008c FFF7FEFF 		bl	printLCD
 153              	.LVL10:
  64:main.c        ****             printLCD(6, 0, Time_value_String);
 154              		.loc 1 64 0
 155 0090 2A46     		mov	r2, r5
 156 0092 0021     		movs	r1, #0
 157 0094 0620     		movs	r0, #6
 158 0096 FFF7FEFF 		bl	printLCD
 159              	.LVL11:
  65:main.c        ****             
ARM GAS  C:\Users\Dell\AppData\Local\Temp\ccOWf6ma.s 			page 5


  66:main.c        ****             if (bufferReceive[3] == 'i') {
 160              		.loc 1 66 0
 161 009a E378     		ldrb	r3, [r4, #3]	@ zero_extendqisi2
 162 009c 692B     		cmp	r3, #105
 163 009e 0FD1     		bne	.L5
  67:main.c        ****                 printLCD(0, 0, "Giro: Izquierda ");
 164              		.loc 1 67 0
 165 00a0 214A     		ldr	r2, .L9+32
 166 00a2 0021     		movs	r1, #0
 167 00a4 0846     		mov	r0, r1
 168 00a6 FFF7FEFF 		bl	printLCD
 169              	.LVL12:
  68:main.c        ****                 aceleration = 0;
 170              		.loc 1 68 0
 171 00aa 0020     		movs	r0, #0
 172 00ac 0021     		movs	r1, #0
 173 00ae 164B     		ldr	r3, .L9
 174 00b0 C3E90201 		strd	r0, [r3, #8]
  69:main.c        ****                 time = 0;
 175              		.loc 1 69 0
 176 00b4 0022     		movs	r2, #0
 177 00b6 1D4B     		ldr	r3, .L9+36
 178 00b8 1A80     		strh	r2, [r3]	@ movhi
  70:main.c        ****                 RPM = 0;
 179              		.loc 1 70 0
 180 00ba 0022     		movs	r2, #0
 181 00bc 1C4B     		ldr	r3, .L9+40
 182 00be 1A60     		str	r2, [r3]	@ float
 183              	.L5:
  71:main.c        ****             }
  72:main.c        ****             if (bufferReceive[3] == 'd') {
 184              		.loc 1 72 0
 185 00c0 124B     		ldr	r3, .L9+4
 186 00c2 DB78     		ldrb	r3, [r3, #3]	@ zero_extendqisi2
 187 00c4 642B     		cmp	r3, #100
 188 00c6 0FD1     		bne	.L6
  73:main.c        ****                 printLCD(0, 0, "Giro: Derecha   ");
 189              		.loc 1 73 0
 190 00c8 1A4A     		ldr	r2, .L9+44
 191 00ca 0021     		movs	r1, #0
 192 00cc 0846     		mov	r0, r1
 193 00ce FFF7FEFF 		bl	printLCD
 194              	.LVL13:
  74:main.c        ****                 aceleration = 0;
 195              		.loc 1 74 0
 196 00d2 0020     		movs	r0, #0
 197 00d4 0021     		movs	r1, #0
 198 00d6 0C4B     		ldr	r3, .L9
 199 00d8 C3E90201 		strd	r0, [r3, #8]
  75:main.c        ****                 time = 0;
 200              		.loc 1 75 0
 201 00dc 0022     		movs	r2, #0
 202 00de 134B     		ldr	r3, .L9+36
 203 00e0 1A80     		strh	r2, [r3]	@ movhi
  76:main.c        ****                 RPM = 0;
 204              		.loc 1 76 0
 205 00e2 0022     		movs	r2, #0
ARM GAS  C:\Users\Dell\AppData\Local\Temp\ccOWf6ma.s 			page 6


 206 00e4 124B     		ldr	r3, .L9+40
 207 00e6 1A60     		str	r2, [r3]	@ float
 208              	.L6:
  77:main.c        ****             }
  78:main.c        ****             if (bufferReceive[3] == 'p') {
 209              		.loc 1 78 0
 210 00e8 084B     		ldr	r3, .L9+4
 211 00ea DB78     		ldrb	r3, [r3, #3]	@ zero_extendqisi2
 212 00ec 702B     		cmp	r3, #112
 213 00ee 04D1     		bne	.L7
  79:main.c        ****                 printLCD(0, 0, "Giro: Parando   ");
 214              		.loc 1 79 0
 215 00f0 114A     		ldr	r2, .L9+48
 216 00f2 0021     		movs	r1, #0
 217 00f4 0846     		mov	r0, r1
 218 00f6 FFF7FEFF 		bl	printLCD
 219              	.LVL14:
 220              	.L7:
  80:main.c        ****             }
  81:main.c        **** 
  82:main.c        ****             UART_Serial_ClearRxBuffer();
 221              		.loc 1 82 0
 222 00fa FFF7FEFF 		bl	UART_Serial_ClearRxBuffer
 223              	.LVL15:
  83:main.c        ****             count = 0;
 224              		.loc 1 83 0
 225 00fe 0022     		movs	r2, #0
 226 0100 014B     		ldr	r3, .L9
 227 0102 1A60     		str	r2, [r3]
 228              	.L3:
 229 0104 38BD     		pop	{r3, r4, r5, pc}
 230              	.L10:
 231 0106 00BF     		.align	2
 232              	.L9:
 233 0108 00000000 		.word	.LANCHOR0
 234 010c 00000000 		.word	bufferReceive
 235 0110 00000000 		.word	RPM_value_String
 236 0114 00000000 		.word	.LC0
 237 0118 00000000 		.word	.LANCHOR1
 238 011c 00000000 		.word	Time_value_String
 239 0120 08000000 		.word	.LC1
 240 0124 10000000 		.word	.LC2
 241 0128 1C000000 		.word	.LC3
 242 012c 00000000 		.word	time
 243 0130 00000000 		.word	RPM
 244 0134 30000000 		.word	.LC4
 245 0138 44000000 		.word	.LC5
 246              		.cfi_endproc
 247              	.LFE65:
 248              		.size	isrSerial, .-isrSerial
 249              		.global	__aeabi_i2f
 250              		.global	__aeabi_f2d
 251              		.global	__aeabi_i2d
 252              		.global	__aeabi_dcmpge
 253              		.global	__aeabi_dadd
 254              		.global	__aeabi_d2f
 255              		.global	__aeabi_dmul
ARM GAS  C:\Users\Dell\AppData\Local\Temp\ccOWf6ma.s 			page 7


 256              		.global	__aeabi_dsub
 257              		.section	.text.isrTimer,"ax",%progbits
 258              		.align	2
 259              		.global	isrTimer
 260              		.thumb
 261              		.thumb_func
 262              		.type	isrTimer, %function
 263              	isrTimer:
 264              	.LFB66:
  84:main.c        ****         }
  85:main.c        ****     }
  86:main.c        **** }
  87:main.c        **** 
  88:main.c        **** CY_ISR(isrTimer) {
 265              		.loc 1 88 0
 266              		.cfi_startproc
 267              		@ args = 0, pretend = 0, frame = 0
 268              		@ frame_needed = 0, uses_anonymous_args = 0
 269 0000 70B5     		push	{r4, r5, r6, lr}
 270              		.cfi_def_cfa_offset 16
 271              		.cfi_offset 4, -16
 272              		.cfi_offset 5, -12
 273              		.cfi_offset 6, -8
 274              		.cfi_offset 14, -4
  89:main.c        ****     Counter_Stop();
 275              		.loc 1 89 0
 276 0002 FFF7FEFF 		bl	Counter_Stop
 277              	.LVL16:
  90:main.c        ****     RPM = (60*Counter_ReadCounter()/50);
 278              		.loc 1 90 0
 279 0006 FFF7FEFF 		bl	Counter_ReadCounter
 280              	.LVL17:
 281 000a C0EB0010 		rsb	r0, r0, r0, lsl #4
 282 000e 8300     		lsls	r3, r0, #2
 283 0010 5D48     		ldr	r0, .L22+16
 284 0012 80FB0320 		smull	r2, r0, r0, r3
 285 0016 DB17     		asrs	r3, r3, #31
 286 0018 C3EB2010 		rsb	r0, r3, r0, asr #4
 287 001c FFF7FEFF 		bl	__aeabi_i2f
 288              	.LVL18:
 289 0020 5A4B     		ldr	r3, .L22+20
 290 0022 1860     		str	r0, [r3]	@ float
  91:main.c        ****     sprintf(RPM_reading, "%.0f  ", RPM);
 291              		.loc 1 91 0
 292 0024 FFF7FEFF 		bl	__aeabi_f2d
 293              	.LVL19:
 294 0028 594C     		ldr	r4, .L22+24
 295 002a 0246     		mov	r2, r0
 296 002c 0B46     		mov	r3, r1
 297 002e 5949     		ldr	r1, .L22+28
 298 0030 2046     		mov	r0, r4
 299 0032 FFF7FEFF 		bl	sprintf
 300              	.LVL20:
  92:main.c        ****     printLCD(6, 1, RPM_reading);
 301              		.loc 1 92 0
 302 0036 2246     		mov	r2, r4
 303 0038 0121     		movs	r1, #1
ARM GAS  C:\Users\Dell\AppData\Local\Temp\ccOWf6ma.s 			page 8


 304 003a 0620     		movs	r0, #6
 305 003c FFF7FEFF 		bl	printLCD
 306              	.LVL21:
  93:main.c        ****     if (RPM_receive != 0 && time != 0) {
 307              		.loc 1 93 0
 308 0040 554B     		ldr	r3, .L22+32
 309 0042 B3F90430 		ldrsh	r3, [r3, #4]
 310 0046 83B1     		cbz	r3, .L12
 311              		.loc 1 93 0 is_stmt 0 discriminator 1
 312 0048 544B     		ldr	r3, .L22+36
 313 004a 1B88     		ldrh	r3, [r3]
 314 004c 6BB1     		cbz	r3, .L12
  94:main.c        ****         sprintf(bufferToSend_PWM, "Envia Vel: %.0f|", RPM);
 315              		.loc 1 94 0 is_stmt 1
 316 004e 4F4B     		ldr	r3, .L22+20
 317 0050 1868     		ldr	r0, [r3]	@ float
 318 0052 FFF7FEFF 		bl	__aeabi_f2d
 319              	.LVL22:
 320 0056 524C     		ldr	r4, .L22+40
 321 0058 0246     		mov	r2, r0
 322 005a 0B46     		mov	r3, r1
 323 005c 5149     		ldr	r1, .L22+44
 324 005e 2046     		mov	r0, r4
 325 0060 FFF7FEFF 		bl	sprintf
 326              	.LVL23:
  95:main.c        ****         UART_Serial_PutString(bufferToSend_PWM);
 327              		.loc 1 95 0
 328 0064 2046     		mov	r0, r4
 329 0066 FFF7FEFF 		bl	UART_Serial_PutString
 330              	.LVL24:
 331              	.L12:
  96:main.c        ****     }
  97:main.c        ****     Counter_WriteCounter(0);
 332              		.loc 1 97 0
 333 006a 0020     		movs	r0, #0
 334 006c FFF7FEFF 		bl	Counter_WriteCounter
 335              	.LVL25:
  98:main.c        ****     Counter_Start();
 336              		.loc 1 98 0
 337 0070 FFF7FEFF 		bl	Counter_Start
 338              	.LVL26:
  99:main.c        ****     
 100:main.c        ****     if (aceleration <= RPM_receive && bufferReceive[3] != 'p' && bufferReceive[3] != '\0') {
 339              		.loc 1 100 0
 340 0074 484C     		ldr	r4, .L22+32
 341 0076 B4F90460 		ldrsh	r6, [r4, #4]
 342 007a 3046     		mov	r0, r6
 343 007c FFF7FEFF 		bl	__aeabi_i2d
 344              	.LVL27:
 345 0080 04F10805 		add	r5, r4, #8
 346 0084 D5E90045 		ldrd	r4, [r5]
 347 0088 2246     		mov	r2, r4
 348 008a 2B46     		mov	r3, r5
 349 008c FFF7FEFF 		bl	__aeabi_dcmpge
 350              	.LVL28:
 351 0090 40B3     		cbz	r0, .L13
 352              		.loc 1 100 0 is_stmt 0 discriminator 1
ARM GAS  C:\Users\Dell\AppData\Local\Temp\ccOWf6ma.s 			page 9


 353 0092 454B     		ldr	r3, .L22+48
 354 0094 DB78     		ldrb	r3, [r3, #3]	@ zero_extendqisi2
 355 0096 702B     		cmp	r3, #112
 356 0098 24D0     		beq	.L13
 357              		.loc 1 100 0 discriminator 2
 358 009a 1BB3     		cbz	r3, .L13
 101:main.c        ****         aceleration = aceleration + (RPM_receive/time_receive);
 359              		.loc 1 101 0 is_stmt 1
 360 009c 434B     		ldr	r3, .L22+52
 361 009e 1868     		ldr	r0, [r3]
 362 00a0 96FBF0F0 		sdiv	r0, r6, r0
 363 00a4 FFF7FEFF 		bl	__aeabi_i2d
 364              	.LVL29:
 365 00a8 2246     		mov	r2, r4
 366 00aa 2B46     		mov	r3, r5
 367 00ac FFF7FEFF 		bl	__aeabi_dadd
 368              	.LVL30:
 369 00b0 394B     		ldr	r3, .L22+32
 370 00b2 C3E90201 		strd	r0, [r3, #8]
 102:main.c        ****         function_delay = pow(aceleration, -0.94);
 371              		.loc 1 102 0
 372 00b6 30A3     		adr	r3, .L22
 373 00b8 D3E90023 		ldrd	r2, [r3]
 374 00bc FFF7FEFF 		bl	pow
 375              	.LVL31:
 376 00c0 FFF7FEFF 		bl	__aeabi_d2f
 377              	.LVL32:
 103:main.c        ****         function_delay = 226.8 * function_delay;
 378              		.loc 1 103 0
 379 00c4 FFF7FEFF 		bl	__aeabi_f2d
 380              	.LVL33:
 381 00c8 2DA3     		adr	r3, .L22+8
 382 00ca D3E90023 		ldrd	r2, [r3]
 383 00ce FFF7FEFF 		bl	__aeabi_dmul
 384              	.LVL34:
 385 00d2 FFF7FEFF 		bl	__aeabi_d2f
 386              	.LVL35:
 387 00d6 364B     		ldr	r3, .L22+56
 388 00d8 1860     		str	r0, [r3]	@ float
 104:main.c        ****         //sprintf(string_function_delay, "%.0f   ", function_delay);
 105:main.c        ****         //printLCD(6, 0, string_function_delay);
 106:main.c        ****         time = time + 1;
 389              		.loc 1 106 0
 390 00da 304A     		ldr	r2, .L22+36
 391 00dc 1388     		ldrh	r3, [r2]
 392 00de 0133     		adds	r3, r3, #1
 393 00e0 1380     		strh	r3, [r2]	@ movhi
 394 00e2 36E0     		b	.L15
 395              	.L13:
 107:main.c        ****     }else if (aceleration >= 5 && bufferReceive[3] == 'p') {
 396              		.loc 1 107 0
 397 00e4 0022     		movs	r2, #0
 398 00e6 334B     		ldr	r3, .L22+60
 399 00e8 2046     		mov	r0, r4
 400 00ea 2946     		mov	r1, r5
 401 00ec FFF7FEFF 		bl	__aeabi_dcmpge
 402              	.LVL36:
ARM GAS  C:\Users\Dell\AppData\Local\Temp\ccOWf6ma.s 			page 10


 403 00f0 48B3     		cbz	r0, .L16
 404              		.loc 1 107 0 is_stmt 0 discriminator 1
 405 00f2 2D4B     		ldr	r3, .L22+48
 406 00f4 DB78     		ldrb	r3, [r3, #3]	@ zero_extendqisi2
 407 00f6 702B     		cmp	r3, #112
 408 00f8 25D1     		bne	.L16
 108:main.c        ****         aceleration = aceleration - (RPM_receive/time_receive);
 409              		.loc 1 108 0 is_stmt 1
 410 00fa 2C4B     		ldr	r3, .L22+52
 411 00fc 1868     		ldr	r0, [r3]
 412 00fe 96FBF0F0 		sdiv	r0, r6, r0
 413 0102 FFF7FEFF 		bl	__aeabi_i2d
 414              	.LVL37:
 415 0106 0246     		mov	r2, r0
 416 0108 0B46     		mov	r3, r1
 417 010a 2046     		mov	r0, r4
 418 010c 2946     		mov	r1, r5
 419 010e FFF7FEFF 		bl	__aeabi_dsub
 420              	.LVL38:
 421 0112 214B     		ldr	r3, .L22+32
 422 0114 C3E90201 		strd	r0, [r3, #8]
 109:main.c        ****         function_delay = pow(aceleration, -0.94);
 423              		.loc 1 109 0
 424 0118 17A3     		adr	r3, .L22
 425 011a D3E90023 		ldrd	r2, [r3]
 426 011e FFF7FEFF 		bl	pow
 427              	.LVL39:
 428 0122 FFF7FEFF 		bl	__aeabi_d2f
 429              	.LVL40:
 110:main.c        ****         function_delay = 226.8 * function_delay;
 430              		.loc 1 110 0
 431 0126 FFF7FEFF 		bl	__aeabi_f2d
 432              	.LVL41:
 433 012a 15A3     		adr	r3, .L22+8
 434 012c D3E90023 		ldrd	r2, [r3]
 435 0130 FFF7FEFF 		bl	__aeabi_dmul
 436              	.LVL42:
 437 0134 FFF7FEFF 		bl	__aeabi_d2f
 438              	.LVL43:
 439 0138 1D4B     		ldr	r3, .L22+56
 440 013a 1860     		str	r0, [r3]	@ float
 111:main.c        ****         //sprintf(string_function_delay, "%.0f   ", function_delay);
 112:main.c        ****         //printLCD(6, 0, string_function_delay);
 113:main.c        ****         time = time + 1;
 441              		.loc 1 113 0
 442 013c 174A     		ldr	r2, .L22+36
 443 013e 1388     		ldrh	r3, [r2]
 444 0140 0133     		adds	r3, r3, #1
 445 0142 1380     		strh	r3, [r2]	@ movhi
 446 0144 05E0     		b	.L15
 447              	.L16:
 114:main.c        ****     }
 115:main.c        ****     else if (time != 0) {
 448              		.loc 1 115 0
 449 0146 154B     		ldr	r3, .L22+36
 450 0148 1B88     		ldrh	r3, [r3]
 451 014a 13B1     		cbz	r3, .L15
ARM GAS  C:\Users\Dell\AppData\Local\Temp\ccOWf6ma.s 			page 11


 116:main.c        ****         time++;
 452              		.loc 1 116 0
 453 014c 0133     		adds	r3, r3, #1
 454 014e 134A     		ldr	r2, .L22+36
 455 0150 1380     		strh	r3, [r2]	@ movhi
 456              	.L15:
 117:main.c        ****     }
 118:main.c        ****     
 119:main.c        ****     if (RPM_receive != 0 && time != 0) {
 457              		.loc 1 119 0
 458 0152 114B     		ldr	r3, .L22+32
 459 0154 B3F90430 		ldrsh	r3, [r3, #4]
 460 0158 53B1     		cbz	r3, .L11
 461              		.loc 1 119 0 is_stmt 0 discriminator 1
 462 015a 104B     		ldr	r3, .L22+36
 463 015c 1A88     		ldrh	r2, [r3]
 464 015e 3AB1     		cbz	r2, .L11
 120:main.c        ****         sprintf(time_reading, "Envia Time: %i\n\r", time);
 465              		.loc 1 120 0 is_stmt 1
 466 0160 154C     		ldr	r4, .L22+64
 467 0162 1649     		ldr	r1, .L22+68
 468 0164 2046     		mov	r0, r4
 469 0166 FFF7FEFF 		bl	sprintf
 470              	.LVL44:
 121:main.c        ****         UART_Serial_PutString(time_reading);
 471              		.loc 1 121 0
 472 016a 2046     		mov	r0, r4
 473 016c FFF7FEFF 		bl	UART_Serial_PutString
 474              	.LVL45:
 475              	.L11:
 476 0170 70BD     		pop	{r4, r5, r6, pc}
 477              	.L23:
 478 0172 00BFAFF3 		.align	3
 478      0080
 479              	.L22:
 480 0178 14AE47E1 		.word	-515396076
 481 017c 7A14EEBF 		.word	-1074916230
 482 0180 9A999999 		.word	-1717986918
 483 0184 99596C40 		.word	1080842649
 484 0188 1F85EB51 		.word	1374389535
 485 018c 00000000 		.word	RPM
 486 0190 00000000 		.word	RPM_reading
 487 0194 58000000 		.word	.LC6
 488 0198 00000000 		.word	.LANCHOR0
 489 019c 00000000 		.word	time
 490 01a0 00000000 		.word	bufferToSend_PWM
 491 01a4 60000000 		.word	.LC7
 492 01a8 00000000 		.word	bufferReceive
 493 01ac 00000000 		.word	.LANCHOR1
 494 01b0 00000000 		.word	function_delay
 495 01b4 00001440 		.word	1075052544
 496 01b8 00000000 		.word	time_reading
 497 01bc 74000000 		.word	.LC8
 498              		.cfi_endproc
 499              	.LFE66:
 500              		.size	isrTimer, .-isrTimer
 501              		.global	__aeabi_f2uiz
ARM GAS  C:\Users\Dell\AppData\Local\Temp\ccOWf6ma.s 			page 12


 502              		.global	__aeabi_dcmplt
 503              		.section	.text.main,"ax",%progbits
 504              		.align	2
 505              		.global	main
 506              		.thumb
 507              		.thumb_func
 508              		.type	main, %function
 509              	main:
 510              	.LFB67:
 122:main.c        ****     }
 123:main.c        **** }
 124:main.c        **** 
 125:main.c        **** int main(void) {
 511              		.loc 1 125 0
 512              		.cfi_startproc
 513              		@ args = 0, pretend = 0, frame = 0
 514              		@ frame_needed = 0, uses_anonymous_args = 0
 515 0000 38B5     		push	{r3, r4, r5, lr}
 516              		.cfi_def_cfa_offset 16
 517              		.cfi_offset 3, -16
 518              		.cfi_offset 4, -12
 519              		.cfi_offset 5, -8
 520              		.cfi_offset 14, -4
 126:main.c        ****     CyGlobalIntEnable;
 521              		.loc 1 126 0
 522              		.syntax unified
 523              	@ 126 "main.c" 1
 524 0002 62B6     		CPSIE   i
 525              	@ 0 "" 2
 127:main.c        ****     isr_Serial_StartEx(isrSerial);
 526              		.loc 1 127 0
 527              		.thumb
 528              		.syntax unified
 529 0004 5F48     		ldr	r0, .L41
 530 0006 FFF7FEFF 		bl	isr_Serial_StartEx
 531              	.LVL46:
 128:main.c        ****     isr_Timer_StartEx(isrTimer);
 532              		.loc 1 128 0
 533 000a 5F48     		ldr	r0, .L41+4
 534 000c FFF7FEFF 		bl	isr_Timer_StartEx
 535              	.LVL47:
 129:main.c        ****     
 130:main.c        ****     UART_Serial_Start();
 536              		.loc 1 130 0
 537 0010 FFF7FEFF 		bl	UART_Serial_Start
 538              	.LVL48:
 131:main.c        ****     Timer_Start();
 539              		.loc 1 131 0
 540 0014 FFF7FEFF 		bl	Timer_Start
 541              	.LVL49:
 132:main.c        ****     I2C_Start();
 542              		.loc 1 132 0
 543 0018 FFF7FEFF 		bl	I2C_Start
 544              	.LVL50:
 133:main.c        ****     LCD_I2C_start();
 545              		.loc 1 133 0
 546 001c FFF7FEFF 		bl	LCD_I2C_start
ARM GAS  C:\Users\Dell\AppData\Local\Temp\ccOWf6ma.s 			page 13


 547              	.LVL51:
 134:main.c        ****     
 135:main.c        ****     printLCD(0, 0, time_String);
 548              		.loc 1 135 0
 549 0020 5A4C     		ldr	r4, .L41+8
 550 0022 221D     		adds	r2, r4, #4
 551 0024 0021     		movs	r1, #0
 552 0026 0846     		mov	r0, r1
 553 0028 FFF7FEFF 		bl	printLCD
 554              	.LVL52:
 136:main.c        ****     printLCD(0, 1, RPM_String);
 555              		.loc 1 136 0
 556 002c 04F11402 		add	r2, r4, #20
 557 0030 0121     		movs	r1, #1
 558 0032 0020     		movs	r0, #0
 559 0034 FFF7FEFF 		bl	printLCD
 560              	.LVL53:
 561              	.L25:
 137:main.c        **** 
 138:main.c        ****     for(;;) {
 139:main.c        ****         if (bufferReceive[3] == 'd') {
 562              		.loc 1 139 0
 563 0038 554B     		ldr	r3, .L41+12
 564 003a DB78     		ldrb	r3, [r3, #3]	@ zero_extendqisi2
 565 003c 642B     		cmp	r3, #100
 566 003e 26D1     		bne	.L26
 140:main.c        ****             Trigger_Write(1u);
 567              		.loc 1 140 0
 568 0040 0120     		movs	r0, #1
 569 0042 FFF7FEFF 		bl	Trigger_Write
 570              	.LVL54:
 571              	.LBB2:
 141:main.c        ****             for(int i=0; i<4; i++) {
 572              		.loc 1 141 0
 573 0046 0025     		movs	r5, #0
 574 0048 19E0     		b	.L27
 575              	.LVL55:
 576              	.L28:
 142:main.c        ****                 Out_1_Write(secuence[i][0]);
 577              		.loc 1 142 0 discriminator 3
 578 004a 504C     		ldr	r4, .L41+8
 579 004c 04EB0514 		add	r4, r4, r5, lsl #4
 580 0050 94F82400 		ldrb	r0, [r4, #36]	@ zero_extendqisi2
 581 0054 FFF7FEFF 		bl	Out_1_Write
 582              	.LVL56:
 143:main.c        ****                 Out_2_Write(secuence[i][1]);
 583              		.loc 1 143 0 discriminator 3
 584 0058 94F82800 		ldrb	r0, [r4, #40]	@ zero_extendqisi2
 585 005c FFF7FEFF 		bl	Out_2_Write
 586              	.LVL57:
 144:main.c        ****                 Out_3_Write(secuence[i][2]);
 587              		.loc 1 144 0 discriminator 3
 588 0060 94F82C00 		ldrb	r0, [r4, #44]	@ zero_extendqisi2
 589 0064 FFF7FEFF 		bl	Out_3_Write
 590              	.LVL58:
 145:main.c        ****                 Out_4_Write(secuence[i][3]);
 591              		.loc 1 145 0 discriminator 3
ARM GAS  C:\Users\Dell\AppData\Local\Temp\ccOWf6ma.s 			page 14


 592 0068 94F83000 		ldrb	r0, [r4, #48]	@ zero_extendqisi2
 593 006c FFF7FEFF 		bl	Out_4_Write
 594              	.LVL59:
 146:main.c        ****                 CyDelay(function_delay);
 595              		.loc 1 146 0 discriminator 3
 596 0070 484B     		ldr	r3, .L41+16
 597 0072 1868     		ldr	r0, [r3]	@ float
 598 0074 FFF7FEFF 		bl	__aeabi_f2uiz
 599              	.LVL60:
 600 0078 FFF7FEFF 		bl	CyDelay
 601              	.LVL61:
 141:main.c        ****                 Out_1_Write(secuence[i][0]);
 602              		.loc 1 141 0 discriminator 3
 603 007c 0135     		adds	r5, r5, #1
 604              	.LVL62:
 605              	.L27:
 141:main.c        ****                 Out_1_Write(secuence[i][0]);
 606              		.loc 1 141 0 is_stmt 0 discriminator 1
 607 007e 032D     		cmp	r5, #3
 608 0080 E3DD     		ble	.L28
 609              	.LBE2:
 147:main.c        ****             }
 148:main.c        ****             Trigger_Write(0u);
 610              		.loc 1 148 0 is_stmt 1
 611 0082 0020     		movs	r0, #0
 612 0084 FFF7FEFF 		bl	Trigger_Write
 613              	.LVL63:
 149:main.c        ****             CyDelay(1u);            
 614              		.loc 1 149 0
 615 0088 0120     		movs	r0, #1
 616 008a FFF7FEFF 		bl	CyDelay
 617              	.LVL64:
 618              	.L26:
 150:main.c        ****         }
 151:main.c        ****         if (bufferReceive[3] == 'i') {
 619              		.loc 1 151 0
 620 008e 404B     		ldr	r3, .L41+12
 621 0090 DB78     		ldrb	r3, [r3, #3]	@ zero_extendqisi2
 622 0092 692B     		cmp	r3, #105
 623 0094 26D1     		bne	.L29
 152:main.c        ****             Trigger_Write(1u);
 624              		.loc 1 152 0
 625 0096 0120     		movs	r0, #1
 626 0098 FFF7FEFF 		bl	Trigger_Write
 627              	.LVL65:
 628              	.LBB3:
 153:main.c        ****             for(int i=3; i>=0; i--) {
 629              		.loc 1 153 0
 630 009c 0325     		movs	r5, #3
 631 009e 19E0     		b	.L30
 632              	.LVL66:
 633              	.L31:
 154:main.c        ****                 Out_1_Write(secuence[i][0]);
 634              		.loc 1 154 0 discriminator 3
 635 00a0 3A4C     		ldr	r4, .L41+8
 636 00a2 04EB0514 		add	r4, r4, r5, lsl #4
 637 00a6 94F82400 		ldrb	r0, [r4, #36]	@ zero_extendqisi2
ARM GAS  C:\Users\Dell\AppData\Local\Temp\ccOWf6ma.s 			page 15


 638 00aa FFF7FEFF 		bl	Out_1_Write
 639              	.LVL67:
 155:main.c        ****                 Out_2_Write(secuence[i][1]);
 640              		.loc 1 155 0 discriminator 3
 641 00ae 94F82800 		ldrb	r0, [r4, #40]	@ zero_extendqisi2
 642 00b2 FFF7FEFF 		bl	Out_2_Write
 643              	.LVL68:
 156:main.c        ****                 Out_3_Write(secuence[i][2]);
 644              		.loc 1 156 0 discriminator 3
 645 00b6 94F82C00 		ldrb	r0, [r4, #44]	@ zero_extendqisi2
 646 00ba FFF7FEFF 		bl	Out_3_Write
 647              	.LVL69:
 157:main.c        ****                 Out_4_Write(secuence[i][3]);
 648              		.loc 1 157 0 discriminator 3
 649 00be 94F83000 		ldrb	r0, [r4, #48]	@ zero_extendqisi2
 650 00c2 FFF7FEFF 		bl	Out_4_Write
 651              	.LVL70:
 158:main.c        ****                 CyDelay(function_delay);
 652              		.loc 1 158 0 discriminator 3
 653 00c6 334B     		ldr	r3, .L41+16
 654 00c8 1868     		ldr	r0, [r3]	@ float
 655 00ca FFF7FEFF 		bl	__aeabi_f2uiz
 656              	.LVL71:
 657 00ce FFF7FEFF 		bl	CyDelay
 658              	.LVL72:
 153:main.c        ****                 Out_1_Write(secuence[i][0]);
 659              		.loc 1 153 0 discriminator 3
 660 00d2 013D     		subs	r5, r5, #1
 661              	.LVL73:
 662              	.L30:
 153:main.c        ****                 Out_1_Write(secuence[i][0]);
 663              		.loc 1 153 0 is_stmt 0 discriminator 1
 664 00d4 002D     		cmp	r5, #0
 665 00d6 E3DA     		bge	.L31
 666              	.LBE3:
 159:main.c        ****             }
 160:main.c        ****             Trigger_Write(0u);
 667              		.loc 1 160 0 is_stmt 1
 668 00d8 0020     		movs	r0, #0
 669 00da FFF7FEFF 		bl	Trigger_Write
 670              	.LVL74:
 161:main.c        ****             CyDelay(1u);            
 671              		.loc 1 161 0
 672 00de 0120     		movs	r0, #1
 673 00e0 FFF7FEFF 		bl	CyDelay
 674              	.LVL75:
 675              	.L29:
 162:main.c        ****         }
 163:main.c        ****         if (aceleration >= 5 && bufferReceive[3] == 'p') {
 676              		.loc 1 163 0
 677 00e4 0022     		movs	r2, #0
 678 00e6 2C4B     		ldr	r3, .L41+20
 679 00e8 2C49     		ldr	r1, .L41+24
 680 00ea D1E90201 		ldrd	r0, [r1, #8]
 681 00ee FFF7FEFF 		bl	__aeabi_dcmpge
 682              	.LVL76:
 683 00f2 50B3     		cbz	r0, .L32
ARM GAS  C:\Users\Dell\AppData\Local\Temp\ccOWf6ma.s 			page 16


 684              		.loc 1 163 0 is_stmt 0 discriminator 1
 685 00f4 264B     		ldr	r3, .L41+12
 686 00f6 DB78     		ldrb	r3, [r3, #3]	@ zero_extendqisi2
 687 00f8 702B     		cmp	r3, #112
 688 00fa 26D1     		bne	.L32
 164:main.c        ****             Trigger_Write(1u);
 689              		.loc 1 164 0 is_stmt 1
 690 00fc 0120     		movs	r0, #1
 691 00fe FFF7FEFF 		bl	Trigger_Write
 692              	.LVL77:
 693              	.LBB4:
 165:main.c        ****             for(int i=3; i>=0; i--) {
 694              		.loc 1 165 0
 695 0102 0325     		movs	r5, #3
 696 0104 19E0     		b	.L34
 697              	.LVL78:
 698              	.L35:
 166:main.c        ****                 Out_1_Write(secuence[i][0]);
 699              		.loc 1 166 0 discriminator 3
 700 0106 214C     		ldr	r4, .L41+8
 701 0108 04EB0514 		add	r4, r4, r5, lsl #4
 702 010c 94F82400 		ldrb	r0, [r4, #36]	@ zero_extendqisi2
 703 0110 FFF7FEFF 		bl	Out_1_Write
 704              	.LVL79:
 167:main.c        ****                 Out_2_Write(secuence[i][1]);
 705              		.loc 1 167 0 discriminator 3
 706 0114 94F82800 		ldrb	r0, [r4, #40]	@ zero_extendqisi2
 707 0118 FFF7FEFF 		bl	Out_2_Write
 708              	.LVL80:
 168:main.c        ****                 Out_3_Write(secuence[i][2]);
 709              		.loc 1 168 0 discriminator 3
 710 011c 94F82C00 		ldrb	r0, [r4, #44]	@ zero_extendqisi2
 711 0120 FFF7FEFF 		bl	Out_3_Write
 712              	.LVL81:
 169:main.c        ****                 Out_4_Write(secuence[i][3]);
 713              		.loc 1 169 0 discriminator 3
 714 0124 94F83000 		ldrb	r0, [r4, #48]	@ zero_extendqisi2
 715 0128 FFF7FEFF 		bl	Out_4_Write
 716              	.LVL82:
 170:main.c        ****                 CyDelay(function_delay);
 717              		.loc 1 170 0 discriminator 3
 718 012c 194B     		ldr	r3, .L41+16
 719 012e 1868     		ldr	r0, [r3]	@ float
 720 0130 FFF7FEFF 		bl	__aeabi_f2uiz
 721              	.LVL83:
 722 0134 FFF7FEFF 		bl	CyDelay
 723              	.LVL84:
 165:main.c        ****                 Out_1_Write(secuence[i][0]);
 724              		.loc 1 165 0 discriminator 3
 725 0138 013D     		subs	r5, r5, #1
 726              	.LVL85:
 727              	.L34:
 165:main.c        ****                 Out_1_Write(secuence[i][0]);
 728              		.loc 1 165 0 is_stmt 0 discriminator 1
 729 013a 002D     		cmp	r5, #0
 730 013c E3DA     		bge	.L35
 731              	.LBE4:
ARM GAS  C:\Users\Dell\AppData\Local\Temp\ccOWf6ma.s 			page 17


 171:main.c        ****             }
 172:main.c        ****             Trigger_Write(0u);
 732              		.loc 1 172 0 is_stmt 1
 733 013e 0020     		movs	r0, #0
 734 0140 FFF7FEFF 		bl	Trigger_Write
 735              	.LVL86:
 173:main.c        ****             CyDelay(1u);            
 736              		.loc 1 173 0
 737 0144 0120     		movs	r0, #1
 738 0146 FFF7FEFF 		bl	CyDelay
 739              	.LVL87:
 740              	.L32:
 174:main.c        ****         }
 175:main.c        ****         if (aceleration < 5 && bufferReceive[3] == 'p') {
 741              		.loc 1 175 0
 742 014a 0022     		movs	r2, #0
 743 014c 124B     		ldr	r3, .L41+20
 744 014e 1349     		ldr	r1, .L41+24
 745 0150 D1E90201 		ldrd	r0, [r1, #8]
 746 0154 FFF7FEFF 		bl	__aeabi_dcmplt
 747              	.LVL88:
 748 0158 0028     		cmp	r0, #0
 749 015a 3FF46DAF 		beq	.L25
 750              		.loc 1 175 0 is_stmt 0 discriminator 1
 751 015e 0C4B     		ldr	r3, .L41+12
 752 0160 DB78     		ldrb	r3, [r3, #3]	@ zero_extendqisi2
 753 0162 702B     		cmp	r3, #112
 754 0164 7FF468AF 		bne	.L25
 176:main.c        ****             Out_1_Write(0);
 755              		.loc 1 176 0 is_stmt 1
 756 0168 0020     		movs	r0, #0
 757 016a FFF7FEFF 		bl	Out_1_Write
 758              	.LVL89:
 177:main.c        ****             Out_2_Write(0);
 759              		.loc 1 177 0
 760 016e 0020     		movs	r0, #0
 761 0170 FFF7FEFF 		bl	Out_2_Write
 762              	.LVL90:
 178:main.c        ****             Out_3_Write(0);
 763              		.loc 1 178 0
 764 0174 0020     		movs	r0, #0
 765 0176 FFF7FEFF 		bl	Out_3_Write
 766              	.LVL91:
 179:main.c        ****             Out_4_Write(0);
 767              		.loc 1 179 0
 768 017a 0020     		movs	r0, #0
 769 017c FFF7FEFF 		bl	Out_4_Write
 770              	.LVL92:
 771 0180 5AE7     		b	.L25
 772              	.L42:
 773 0182 00BF     		.align	2
 774              	.L41:
 775 0184 00000000 		.word	isrSerial
 776 0188 00000000 		.word	isrTimer
 777 018c 00000000 		.word	.LANCHOR1
 778 0190 00000000 		.word	bufferReceive
 779 0194 00000000 		.word	function_delay
ARM GAS  C:\Users\Dell\AppData\Local\Temp\ccOWf6ma.s 			page 18


 780 0198 00001440 		.word	1075052544
 781 019c 00000000 		.word	.LANCHOR0
 782              		.cfi_endproc
 783              	.LFE67:
 784              		.size	main, .-main
 785              		.global	aceleration
 786              		.comm	string_function_delay,6,4
 787              		.comm	function_delay,4,4
 788              		.global	secuence
 789              		.comm	time_reading,20,4
 790              		.comm	time,2,2
 791              		.comm	PWM_final,4,4
 792              		.comm	PWM,4,4
 793              		.comm	RPM_reading,6,4
 794              		.comm	RPM,4,4
 795              		.global	RPM_String
 796              		.global	time_String
 797              		.global	count
 798              		.global	time_receive
 799              		.comm	Time_value_String,3,4
 800              		.global	RPM_receive
 801              		.comm	RPM_value_String,3,4
 802              		.comm	bufferToSend_Time,20,4
 803              		.comm	bufferToSend_PWM,20,4
 804              		.comm	bufferReceive,9,4
 805              		.data
 806              		.align	2
 807              		.set	.LANCHOR1,. + 0
 808              		.type	time_receive, %object
 809              		.size	time_receive, 4
 810              	time_receive:
 811 0000 01000000 		.word	1
 812              		.type	time_String, %object
 813              		.size	time_String, 16
 814              	time_String:
 815 0004 4769726F 		.ascii	"Giro: Parado    "
 815      3A205061 
 815      7261646F 
 815      20202020 
 816              		.type	RPM_String, %object
 817              		.size	RPM_String, 16
 818              	RPM_String:
 819 0014 56454C20 		.ascii	"VEL : 0      rpm"
 819      3A203020 
 819      20202020 
 819      2072706D 
 820              		.type	secuence, %object
 821              		.size	secuence, 64
 822              	secuence:
 823 0024 01000000 		.word	1
 824 0028 00000000 		.word	0
 825 002c 00000000 		.word	0
 826 0030 00000000 		.word	0
 827 0034 00000000 		.word	0
 828 0038 01000000 		.word	1
 829 003c 00000000 		.word	0
 830 0040 00000000 		.word	0
ARM GAS  C:\Users\Dell\AppData\Local\Temp\ccOWf6ma.s 			page 19


 831 0044 00000000 		.word	0
 832 0048 00000000 		.word	0
 833 004c 01000000 		.word	1
 834 0050 00000000 		.word	0
 835 0054 00000000 		.word	0
 836 0058 00000000 		.word	0
 837 005c 00000000 		.word	0
 838 0060 01000000 		.word	1
 839              		.section	.rodata.str1.4,"aMS",%progbits,1
 840              		.align	2
 841              	.LC0:
 842 0000 25692020 		.ascii	"%i    \000"
 842      202000
 843 0007 00       		.space	1
 844              	.LC1:
 845 0008 25692020 		.ascii	"%i  \000"
 845      00
 846 000d 000000   		.space	3
 847              	.LC2:
 848 0010 20202020 		.ascii	"          \000"
 848      20202020 
 848      202000
 849 001b 00       		.space	1
 850              	.LC3:
 851 001c 4769726F 		.ascii	"Giro: Izquierda \000"
 851      3A20497A 
 851      71756965 
 851      72646120 
 851      00
 852 002d 000000   		.space	3
 853              	.LC4:
 854 0030 4769726F 		.ascii	"Giro: Derecha   \000"
 854      3A204465 
 854      72656368 
 854      61202020 
 854      00
 855 0041 000000   		.space	3
 856              	.LC5:
 857 0044 4769726F 		.ascii	"Giro: Parando   \000"
 857      3A205061 
 857      72616E64 
 857      6F202020 
 857      00
 858 0055 000000   		.space	3
 859              	.LC6:
 860 0058 252E3066 		.ascii	"%.0f  \000"
 860      202000
 861 005f 00       		.space	1
 862              	.LC7:
 863 0060 456E7669 		.ascii	"Envia Vel: %.0f|\000"
 863      61205665 
 863      6C3A2025 
 863      2E30667C 
 863      00
 864 0071 000000   		.space	3
 865              	.LC8:
 866 0074 456E7669 		.ascii	"Envia Time: %i\012\015\000"
ARM GAS  C:\Users\Dell\AppData\Local\Temp\ccOWf6ma.s 			page 20


 866      61205469 
 866      6D653A20 
 866      25690A0D 
 866      00
 867              		.bss
 868              		.align	3
 869              		.set	.LANCHOR0,. + 0
 870              		.type	count, %object
 871              		.size	count, 4
 872              	count:
 873 0000 00000000 		.space	4
 874              		.type	RPM_receive, %object
 875              		.size	RPM_receive, 2
 876              	RPM_receive:
 877 0004 0000     		.space	2
 878 0006 0000     		.space	2
 879              		.type	aceleration, %object
 880              		.size	aceleration, 8
 881              	aceleration:
 882 0008 00000000 		.space	8
 882      00000000 
 883              		.text
 884              	.Letext0:
 885              		.file 2 "c:\\program files (x86)\\cypress\\psoc creator\\4.4\\psoc creator\\import\\gnu\\arm\\5.4.
 886              		.file 3 "c:\\program files (x86)\\cypress\\psoc creator\\4.4\\psoc creator\\import\\gnu\\arm\\5.4.
 887              		.file 4 "Generated_Source\\PSoC5/cytypes.h"
 888              		.file 5 "Generated_Source\\PSoC5/core_cm3.h"
 889              		.file 6 "Generated_Source\\PSoC5/LCD_I2C_FUNCS.h"
 890              		.file 7 "Generated_Source\\PSoC5/UART_Serial.h"
 891              		.file 8 "c:\\program files (x86)\\cypress\\psoc creator\\4.4\\psoc creator\\import\\gnu\\arm\\5.4.
 892              		.file 9 "Generated_Source\\PSoC5/Counter.h"
 893              		.file 10 "Generated_Source\\PSoC5/Out_1.h"
 894              		.file 11 "Generated_Source\\PSoC5/Out_2.h"
 895              		.file 12 "Generated_Source\\PSoC5/Out_3.h"
 896              		.file 13 "Generated_Source\\PSoC5/Out_4.h"
 897              		.file 14 "Generated_Source\\PSoC5/CyLib.h"
 898              		.file 15 "Generated_Source\\PSoC5/isr_Serial.h"
 899              		.file 16 "Generated_Source\\PSoC5/isr_Timer.h"
 900              		.file 17 "Generated_Source\\PSoC5/Timer.h"
 901              		.file 18 "Generated_Source\\PSoC5/I2C.h"
 902              		.file 19 "Generated_Source\\PSoC5/Trigger.h"
 903              		.file 20 "c:\\program files (x86)\\cypress\\psoc creator\\4.4\\psoc creator\\import\\gnu\\arm\\5.4